 win32_crystalflask

 Timestamp is 5f4a52f7 (Sat Aug 29 15:07:03 2020)

 Preferred load address is 0000000140000000

 Start         Length     Name                   Class
 0001:00000000 00000590H .text$di                CODE
 0001:00000590 001a3440H .text$mn                CODE
 0001:001a39d0 00000040H .text$mn$00             CODE
 0001:001a3a10 00002980H .text$x                 CODE
 0001:001a6390 000001a5H .text$yd                CODE
 0002:00000000 00000790H .idata$5                DATA
 0002:00000790 00000028H .00cfg                  DATA
 0002:000007b8 00000008H .CRT$XCA                DATA
 0002:000007c0 00000008H .CRT$XCAA               DATA
 0002:000007c8 00000038H .CRT$XCC                DATA
 0002:00000800 00000008H .CRT$XCL                DATA
 0002:00000808 00000030H .CRT$XCU                DATA
 0002:00000838 00000008H .CRT$XCZ                DATA
 0002:00000840 00000008H .CRT$XIA                DATA
 0002:00000848 00000008H .CRT$XIAA               DATA
 0002:00000850 00000008H .CRT$XIAC               DATA
 0002:00000858 00000028H .CRT$XIC                DATA
 0002:00000880 00000008H .CRT$XIZ                DATA
 0002:00000888 00000008H .CRT$XLA                DATA
 0002:00000890 00000008H .CRT$XLZ                DATA
 0002:00000898 00000008H .CRT$XPA                DATA
 0002:000008a0 00000008H .CRT$XPB                DATA
 0002:000008a8 00000010H .CRT$XPX                DATA
 0002:000008b8 00000008H .CRT$XPXA               DATA
 0002:000008c0 00000008H .CRT$XPZ                DATA
 0002:000008c8 00000008H .CRT$XTA                DATA
 0002:000008d0 00000010H .CRT$XTZ                DATA
 0002:000008d8 00000000H .gfids$y                DATA
 0002:000008e0 00064f10H .rdata                  DATA
 0002:000657f0 00000028H .rdata$T                DATA
 0002:00065818 0000310cH .rdata$r                DATA
 0002:00068924 0000044cH .rdata$zzzdbg           DATA
 0002:00068d70 00000008H .rtc$IAA                DATA
 0002:00068d78 00000008H .rtc$IZZ                DATA
 0002:00068d80 00000008H .rtc$TAA                DATA
 0002:00068d88 00000008H .rtc$TZZ                DATA
 0002:00068d90 00000008H .tls                    DATA
 0002:00068d98 00000014H .tls$                   DATA
 0002:00068dac 00000004H .tls$ZZZ                DATA
 0002:00068db0 00006e48H .xdata                  DATA
 0002:0006fbf8 00000ac8H .xdata$x                DATA
 0002:000706c0 00000000H ATL$__a                 DATA
 0002:000706c0 00000000H ATL$__z                 DATA
 0002:000706c0 00000000H .edata                  DATA
 0002:000706c0 000000f0H .idata$2                DATA
 0002:000707b0 00000018H .idata$3                DATA
 0002:000707c8 00000790H .idata$4                DATA
 0002:00070f58 00001118H .idata$6                DATA
 0003:00000000 0000a840H .data                   DATA
 0003:0000a840 00001880H .data$r                 DATA
 0003:0000c0c0 0000a2ecH .bss                    DATA
 0004:00000000 00010674H .pdata                  DATA
 0005:00000000 00000094H _RDATA                  DATA
 0006:00000000 00000060H .rsrc$01                DATA
 0006:00000060 00000370H .rsrc$02                DATA

  Address         Publics by Value              Rva+Base               Lib:Object

 0000:00000000       __guard_fids_count         0000000000000000     <absolute>
 0000:00000000       __hybrid_code_map_count    0000000000000000     <absolute>
 0000:00000000       __x64_code_ranges_to_entry_points 0000000000000000     <absolute>
 0000:00000000       __guard_longjmp_table      0000000000000000     <absolute>
 0000:00000000       __hybrid_code_map          0000000000000000     <absolute>
 0000:00000000       __guard_iat_count          0000000000000000     <absolute>
 0000:00000000       __guard_iat_table          0000000000000000     <absolute>
 0000:00000000       __guard_eh_cont_count      0000000000000000     <absolute>
 0000:00000000       __arm64x_native_entrypoint 0000000000000000     <absolute>
 0000:00000000       __volatile_metadata        0000000000000000     <absolute>
 0000:00000000       __guard_longjmp_count      0000000000000000     <absolute>
 0000:00000000       __arm64x_redirection_metadata 0000000000000000     <absolute>
 0000:00000000       ___safe_se_handler_count   0000000000000000     <absolute>
 0000:00000000       __guard_eh_cont_table      0000000000000000     <absolute>
 0000:00000000       __AbsoluteZero             0000000000000000     <absolute>
 0000:00000000       ___safe_se_handler_table   0000000000000000     <absolute>
 0000:00000000       __guard_fids_table         0000000000000000     <absolute>
 0000:00000000       __enclave_config           0000000000000000     <absolute>
 0000:00000000       __hybrid_auxiliary_iat     0000000000000000     <absolute>
 0000:00000000       __dynamic_value_reloc_table 0000000000000000     <absolute>
 0000:00000100       __guard_flags              0000000000000100     <absolute>
 0000:00000000       __ImageBase                0000000140000000     <linker-defined>
 0001:000005d0       PushSize_                  00000001400015d0 f   win32_crystalflask.obj
 0001:00000620       PopSize_                   0000000140001620 f   win32_crystalflask.obj
 0001:00000770       WinMain                    0000000140001770 f   win32_crystalflask.obj
 0001:000011b0       ?Win32GetLastErrorMessage@@YAPEADPEAY0BAA@D@Z 00000001400021b0 f   win32_crystalflask.obj
 0001:00001200       ?Win32GetLastErrorMessageW@@YAPEA_WPEAY0BAA@_W@Z 0000000140002200 f   win32_crystalflask.obj
 0001:00001360       ?GetIOFilter@@YAPEADW4file_type@@@Z 0000000140002360 f   win32_crystalflask.obj
 0001:00001450       ?GetIOFilterExtension@@YAPEADW4file_type@@@Z 0000000140002450 f   win32_crystalflask.obj
 0001:000019d0       ?Win32LoadDataFromFileByMapView@@YA?AUwin32_file@@PEAD@Z 00000001400029d0 f   win32_crystalflask.obj
 0001:00002090       ?SecureTcpConnect@@YAHPEBUsockaddr@@KPEB_WPEBU_SOCKET_SECURITY_SETTINGS@@K@Z 0000000140003090 f   win32_crystalflask.obj
 0001:00002540       ?NetworkThreadStartProc@@YAKPEAX@Z 0000000140003540 f   win32_crystalflask.obj
 0001:00002580       ?ImGui_ImplOpenGL3_Init@@YA_NPEBD@Z 0000000140003580 f   win32_crystalflask.obj
 0001:00002770       ?ImGui_ImplOpenGL3_Shutdown@@YAXXZ 0000000140003770 f   win32_crystalflask.obj
 0001:00002790       ?ImGui_ImplOpenGL3_NewFrame@@YAXXZ 0000000140003790 f   win32_crystalflask.obj
 0001:000027b0       ?ImGui_ImplOpenGL3_RenderDrawData@@YAXPEAUImDrawData@@@Z 00000001400037b0 f   win32_crystalflask.obj
 0001:00002f30       ?ImGui_ImplOpenGL3_CreateFontsTexture@@YA_NXZ 0000000140003f30 f   win32_crystalflask.obj
 0001:00003050       ?ImGui_ImplOpenGL3_DestroyFontsTexture@@YAXXZ 0000000140004050 f   win32_crystalflask.obj
 0001:000030b0       ?ImGui_ImplOpenGL3_CreateDeviceObjects@@YA_NXZ 00000001400040b0 f   win32_crystalflask.obj
 0001:000033f0       ?ImGui_ImplOpenGL3_DestroyDeviceObjects@@YAXXZ 00000001400043f0 f   win32_crystalflask.obj
 0001:00003b60       ?ImGui_ImplWin32_Init@@YA_NPEAX@Z 0000000140004b60 f   win32_crystalflask.obj
 0001:00003e40       ?ImGui_ImplWin32_Shutdown@@YAXXZ 0000000140004e40 f   win32_crystalflask.obj
 0001:00003e60       ?ImGui_ImplWin32_NewFrame@@YAXXZ 0000000140004e60 f   win32_crystalflask.obj
 0001:00004080       ?ImGui_ImplWin32_EnableDpiAwareness@@YAXXZ 0000000140005080 f   win32_crystalflask.obj
 0001:000041c0       ?ImGui_ImplWin32_GetDpiScaleForHwnd@@YAMPEAX@Z 00000001400051c0 f   win32_crystalflask.obj
 0001:00004200       ?ImGui_ImplWin32_GetDpiScaleForMonitor@@YAMPEAX@Z 0000000140005200 f   win32_crystalflask.obj
 0001:00005150       ?ImGui_ImplWin32_WndProcHandler@@YA_JPEAUHWND__@@I_K_J@Z 0000000140006150 f   win32_crystalflask.obj
 0001:00007290       ?OpenGLDebugCallback@@YAXIIIIHPEBDPEBX@Z 0000000140008290 f   win32_crystalflask.obj
 0001:000074b0       ?LoadExtension@@YA_NPEBDPEAPEAX@Z 00000001400084b0 f   win32_crystalflask.obj
 0001:00007ae0       stbi_load_from_memory      0000000140008ae0 f   win32_crystalflask.obj
 0001:00007b80       stbi_load_from_callbacks   0000000140008b80 f   win32_crystalflask.obj
 0001:00007c20       stbi_load                  0000000140008c20 f   win32_crystalflask.obj
 0001:00007cd0       stbi_load_from_file        0000000140008cd0 f   win32_crystalflask.obj
 0001:00007da0       stbi_load_gif_from_memory  0000000140008da0 f   win32_crystalflask.obj
 0001:00007ef0       stbi_load_16_from_memory   0000000140008ef0 f   win32_crystalflask.obj
 0001:00007f90       stbi_load_16_from_callbacks 0000000140008f90 f   win32_crystalflask.obj
 0001:00008030       stbi_load_16               0000000140009030 f   win32_crystalflask.obj
 0001:000080e0       stbi_load_from_file_16     00000001400090e0 f   win32_crystalflask.obj
 0001:000081b0       stbi_loadf_from_memory     00000001400091b0 f   win32_crystalflask.obj
 0001:00008250       stbi_loadf_from_callbacks  0000000140009250 f   win32_crystalflask.obj
 0001:000082f0       stbi_loadf                 00000001400092f0 f   win32_crystalflask.obj
 0001:000083a0       stbi_loadf_from_file       00000001400093a0 f   win32_crystalflask.obj
 0001:00008430       stbi_hdr_to_ldr_gamma      0000000140009430 f   win32_crystalflask.obj
 0001:00008460       stbi_hdr_to_ldr_scale      0000000140009460 f   win32_crystalflask.obj
 0001:00008490       stbi_ldr_to_hdr_gamma      0000000140009490 f   win32_crystalflask.obj
 0001:000084b0       stbi_ldr_to_hdr_scale      00000001400094b0 f   win32_crystalflask.obj
 0001:000084d0       stbi_is_hdr_from_callbacks 00000001400094d0 f   win32_crystalflask.obj
 0001:00008540       stbi_is_hdr_from_memory    0000000140009540 f   win32_crystalflask.obj
 0001:000085b0       stbi_is_hdr                00000001400095b0 f   win32_crystalflask.obj
 0001:00008610       stbi_is_hdr_from_file      0000000140009610 f   win32_crystalflask.obj
 0001:000086a0       stbi_failure_reason        00000001400096a0 f   win32_crystalflask.obj
 0001:000086d0       stbi_image_free            00000001400096d0 f   win32_crystalflask.obj
 0001:000086f0       stbi_info_from_memory      00000001400096f0 f   win32_crystalflask.obj
 0001:00008780       stbi_info_from_callbacks   0000000140009780 f   win32_crystalflask.obj
 0001:00008810       stbi_is_16_bit_from_memory 0000000140009810 f   win32_crystalflask.obj
 0001:00008880       stbi_is_16_bit_from_callbacks 0000000140009880 f   win32_crystalflask.obj
 0001:000088f0       stbi_info                  00000001400098f0 f   win32_crystalflask.obj
 0001:00008970       stbi_info_from_file        0000000140009970 f   win32_crystalflask.obj
 0001:00008a20       stbi_is_16_bit             0000000140009a20 f   win32_crystalflask.obj
 0001:00008a80       stbi_is_16_bit_from_file   0000000140009a80 f   win32_crystalflask.obj
 0001:00008b10       stbi_set_unpremultiply_on_load 0000000140009b10 f   win32_crystalflask.obj
 0001:00008b30       stbi_convert_iphone_png_to_rgb 0000000140009b30 f   win32_crystalflask.obj
 0001:00008b50       stbi_set_flip_vertically_on_load 0000000140009b50 f   win32_crystalflask.obj
 0001:00008b70       stbi_set_flip_vertically_on_load_thread 0000000140009b70 f   win32_crystalflask.obj
 0001:00008bc0       stbi_zlib_decode_malloc_guesssize 0000000140009bc0 f   win32_crystalflask.obj
 0001:00008cc0       stbi_zlib_decode_malloc_guesssize_headerflag 0000000140009cc0 f   win32_crystalflask.obj
 0001:00008dd0       stbi_zlib_decode_malloc    0000000140009dd0 f   win32_crystalflask.obj
 0001:00008e10       stbi_zlib_decode_buffer    0000000140009e10 f   win32_crystalflask.obj
 0001:00008ed0       stbi_zlib_decode_noheader_malloc 0000000140009ed0 f   win32_crystalflask.obj
 0001:00008fd0       stbi_zlib_decode_noheader_buffer 0000000140009fd0 f   win32_crystalflask.obj
 0001:00021f30       stbds_rand_seed            0000000140022f30 f   win32_crystalflask.obj
 0001:00021f50       stbds_hash_bytes           0000000140022f50 f   win32_crystalflask.obj
 0001:00022270       stbds_hash_string          0000000140023270 f   win32_crystalflask.obj
 0001:000223a0       stbds_stralloc             00000001400233a0 f   win32_crystalflask.obj
 0001:00022590       stbds_strreset             0000000140023590 f   win32_crystalflask.obj
 0001:000225f0       stbds_arrgrowf             00000001400235f0 f   win32_crystalflask.obj
 0001:000227b0       stbds_hmfree_func          00000001400237b0 f   win32_crystalflask.obj
 0001:00022870       stbds_hmget_key            0000000140023870 f   win32_crystalflask.obj
 0001:000228f0       stbds_hmget_key_ts         00000001400238f0 f   win32_crystalflask.obj
 0001:00022a60       stbds_hmput_default        0000000140023a60 f   win32_crystalflask.obj
 0001:00022b20       stbds_hmput_key            0000000140023b20 f   win32_crystalflask.obj
 0001:000232e0       stbds_hmdel_key            00000001400242e0 f   win32_crystalflask.obj
 0001:000236d0       stbds_shmode_func          00000001400246d0 f   win32_crystalflask.obj
 0001:00027b00       ??0CFBin@@QEAA@PEADPEAUmemory_arena@@@Z 0000000140028b00 f   win32_crystalflask.obj
 0001:00027b80       ??1CFBin@@QEAA@XZ          0000000140028b80 f   win32_crystalflask.obj
 0001:00027bb0       ?AddResource@CFBin@@QEAA_KPEADEPEAE_K@Z 0000000140028bb0 f   win32_crystalflask.obj
 0001:00027de0       ?RemoveResource@CFBin@@QEAAXPEAD@Z 0000000140028de0 f   win32_crystalflask.obj
 0001:00027e00       ?RemoveResource@CFBin@@QEAAX_K@Z 0000000140028e00 f   win32_crystalflask.obj
 0001:00027e20       ?Pack@CFBin@@QEAAXPEADI@Z  0000000140028e20 f   win32_crystalflask.obj
 0001:00028000       ?Load@CFBin@@QEAAXPEAD@Z   0000000140029000 f   win32_crystalflask.obj
 0001:00028390       ?Init@CFBin@@QEAAXXZ       0000000140029390 f   win32_crystalflask.obj
 0001:000283c0       ?get_data_for@CFBin@@QEAA?AUDataBuffer@1@PEAD@Z 00000001400293c0 f   win32_crystalflask.obj
 0001:00028520       ?OpenFolderDialog@@YAPEADXZ 0000000140029520 f   win32_crystalflask.obj
 0001:00028700       ?SaveFolderDialog@@YAPEADXZ 0000000140029700 f   win32_crystalflask.obj
 0001:000288e0       ?TryInferType@@YADPEAD@Z   00000001400298e0 f   win32_crystalflask.obj
 0001:00028d30       ?CreateEntityFromFile@@YAPEAUentity@@PEAUscene@@PEAD@Z 0000000140029d30 f   win32_crystalflask.obj
 0001:00028e70       ?SerializeEntityToFile@@YAXPEAUentity@@PEAD@Z 0000000140029e70 f   win32_crystalflask.obj
 0001:00028ea0       ?DeleteEntity@@YAXPEAUscene@@PEAUentity@@@Z 0000000140029ea0 f   win32_crystalflask.obj
 0001:0002a110       ?ExecCommand@crystalflask_console@@QEAAXPEBD@Z 000000014002b110 f   win32_crystalflask.obj
 0001:0002a980       ?RenderImGuiMenu@@YAXXZ    000000014002b980 f   win32_crystalflask.obj
 0001:0002b910       ?EntityNameChangeCallbackStub@@YAHPEAUImGuiInputTextCallbackData@@@Z 000000014002c910 f   win32_crystalflask.obj
 0001:0002ddd0       ?TextureCalculateMipMapCount@@YAIII@Z 000000014002edd0 f   win32_crystalflask.obj
 0001:000311b0       ?DeleteAllEntitiesInScene@@YAXPEAUscene@@@Z 00000001400321b0 f   win32_crystalflask.obj
 0001:000314f0       ?Start@renderer@@SAPEAU1@XZ 00000001400324f0 f   win32_crystalflask.obj
 0001:000315d0       ?BeginFrame@renderer@@SAXXZ 00000001400325d0 f   win32_crystalflask.obj
 0001:000315f0       ?Render@renderer@@SAXM@Z   00000001400325f0 f   win32_crystalflask.obj
 0001:000316e0       ?EndFrame@renderer@@SAXXZ  00000001400326e0 f   win32_crystalflask.obj
 0001:00033770       ?DEBUGPlatformFreeFileMemory@@YAXPEAUthread_context@@PEAX@Z 0000000140034770 f   win32_crystalflask.obj
 0001:000337b0       ?DEBUGPlatformReadEntireFile@@YA?AUdebug_read_file_result@@PEAUthread_context@@PEAD@Z 00000001400347b0 f   win32_crystalflask.obj
 0001:00033990       ?DEBUGPlatformWriteEntireFile@@YAHPEAUthread_context@@PEADIPEAX@Z 0000000140034990 f   win32_crystalflask.obj
 0001:000354f0       ??$?0$$V@?$_Compressed_pair@V?$allocator@D@std@@V?$_String_val@U?$_Simple_types@D@std@@@2@$00@std@@QEAA@U_Zero_then_variadic_args_t@1@@Z 00000001400364f0 f i win32_crystalflask.obj
 0001:00035520       ??$?0$$V@?$_Compressed_pair@V?$allocator@V?$function@$$A6AXXZ@std@@@std@@V?$_Deque_val@U?$_Deque_simple_types@V?$function@$$A6AXXZ@std@@@std@@@2@$00@std@@QEAA@U_Zero_then_variadic_args_t@1@@Z 0000000140036520 f i win32_crystalflask.obj
 0001:00035550       ??$?0$$V@?$_Compressed_pair@V?$allocator@V?$future@X@std@@@std@@V?$_Vector_val@U?$_Simple_types@V?$future@X@std@@@std@@@2@$00@std@@QEAA@U_Zero_then_variadic_args_t@1@@Z 0000000140036550 f i win32_crystalflask.obj
 0001:00035550       ??$?0$$V@?$_Compressed_pair@V?$allocator@Vthread@std@@@std@@V?$_Vector_val@U?$_Simple_types@Vthread@std@@@std@@@2@$00@std@@QEAA@U_Zero_then_variadic_args_t@1@@Z 0000000140036550 f i win32_crystalflask.obj
 0001:00035580       ??$?0AEAPEAV?$tuple@V<lambda_d1250b07d06cca55b178c66c87301ca1>@@@std@@@?$_Compressed_pair@U?$default_delete@V?$tuple@V<lambda_d1250b07d06cca55b178c66c87301ca1>@@@std@@@std@@PEAV?$tuple@V<lambda_d1250b07d06cca55b178c66c87301ca1>@@@2@$00@std@@QEAA@U_Zero_then_variadic_args_t@1@AEAPEAV?$tuple@V<lambda_d1250b07d06cca55b178c66c87301ca1>@@@1@@Z 0000000140036580 f i win32_crystalflask.obj
 0001:000356b0       ??$?0V?$function@$$A6AXXZ@std@@@?$allocator@U_Container_proxy@std@@@std@@QEAA@AEBV?$allocator@V?$function@$$A6AXXZ@std@@@1@@Z 00000001400366b0 f i win32_crystalflask.obj
 0001:000356b0       ??$?0V?$future@X@std@@@?$allocator@U_Container_proxy@std@@@std@@QEAA@AEBV?$allocator@V?$future@X@std@@@1@@Z 00000001400366b0 f i win32_crystalflask.obj
 0001:000356b0       ??$?0D@?$allocator@U_Container_proxy@std@@@std@@QEAA@AEBV?$allocator@D@1@@Z 00000001400366b0 f i win32_crystalflask.obj
 0001:000356b0       ??$?0V?$function@$$A6AXXZ@std@@@?$allocator@PEAV?$function@$$A6AXXZ@std@@@std@@QEAA@AEBV?$allocator@V?$function@$$A6AXXZ@std@@@1@@Z 00000001400366b0 f i win32_crystalflask.obj
 0001:000356b0       ??$?0Vthread@std@@@?$allocator@U_Container_proxy@std@@@std@@QEAA@AEBV?$allocator@Vthread@std@@@1@@Z 00000001400366b0 f i win32_crystalflask.obj
 0001:000356b0       ?select_on_container_copy_construction@?$_Default_allocator_traits@V?$allocator@D@std@@@std@@SA?AV?$allocator@D@2@AEBV32@@Z 00000001400366b0 f i libcpmtd:xonce.obj
 0001:000356b0       ??0?$tuple@$$V@std@@QEAA@AEBV01@@Z 00000001400366b0 f i win32_crystalflask.obj
 0001:000356c0       ??$?0HH@?$vec@$01M$0A@@glm@@QEAA@HH@Z 00000001400366c0 f i win32_crystalflask.obj
 0001:00035700       ??$?0HHH@?$vec@$02M$0A@@glm@@QEAA@HHH@Z 0000000140036700 f i win32_crystalflask.obj
 0001:00035750       ??$?0HHHH@?$vec@$03M$0A@@glm@@QEAA@HHHH@Z 0000000140036750 f i win32_crystalflask.obj
 0001:000357b0       ??$?0HHHM@?$vec@$03M$0A@@glm@@QEAA@HHHM@Z 00000001400367b0 f i win32_crystalflask.obj
 0001:00035810       ??$?0HHM@?$vec@$02M$0A@@glm@@QEAA@HHM@Z 0000000140036810 f i win32_crystalflask.obj
 0001:00035860       ??$?0HHMH@?$vec@$03M$0A@@glm@@QEAA@HHMH@Z 0000000140036860 f i win32_crystalflask.obj
 0001:000358c0       ??$?0HMH@?$vec@$02M$0A@@glm@@QEAA@HMH@Z 00000001400368c0 f i win32_crystalflask.obj
 0001:00035910       ??$?0HMHH@?$vec@$03M$0A@@glm@@QEAA@HMHH@Z 0000000140036910 f i win32_crystalflask.obj
 0001:00035970       ??$?0HNH@?$vec@$02M$0A@@glm@@QEAA@HNH@Z 0000000140036970 f i win32_crystalflask.obj
 0001:000359c0       ??$?0IH@?$vec@$01M$0A@@glm@@QEAA@IH@Z 00000001400369c0 f i win32_crystalflask.obj
 0001:00035a00       ??$?0III@?$vec@$02M$0A@@glm@@QEAA@III@Z 0000000140036a00 f i win32_crystalflask.obj
 0001:00035a60       ??$?0M$0A@@?$vec@$02M$0A@@glm@@QEAA@AEBU?$vec@$03M$0A@@1@@Z 0000000140036a60 f i win32_crystalflask.obj
 0001:00035ab0       ??$?0MH$0A@@?$vec@$03M$0A@@glm@@QEAA@AEBU?$vec@$02M$0A@@1@H@Z 0000000140036ab0 f i win32_crystalflask.obj
 0001:00035b10       ??$?0MHH@?$vec@$02M$0A@@glm@@QEAA@MHH@Z 0000000140036b10 f i win32_crystalflask.obj
 0001:00035b60       ??$?0MHHH@?$vec@$03M$0A@@glm@@QEAA@MHHH@Z 0000000140036b60 f i win32_crystalflask.obj
 0001:00035bc0       ??$?0NHN@?$vec@$02M$0A@@glm@@QEAA@NHN@Z 0000000140036bc0 f i win32_crystalflask.obj
 0001:00035c10       ??$?0NNN@?$vec@$02M$0A@@glm@@QEAA@NNN@Z 0000000140036c10 f i win32_crystalflask.obj
 0001:00035c60       ??$?0U?$default_delete@V?$tuple@V<lambda_d1250b07d06cca55b178c66c87301ca1>@@@std@@@std@@$0A@@?$unique_ptr@V?$tuple@V<lambda_d1250b07d06cca55b178c66c87301ca1>@@@std@@U?$default_delete@V?$tuple@V<lambda_d1250b07d06cca55b178c66c87301ca1>@@@std@@@2@@std@@QEAA@$$QEAV01@@Z 0000000140036c60 f i win32_crystalflask.obj
 0001:00035cb0       ??$?0U?$default_delete@V?$tuple@V<lambda_d1250b07d06cca55b178c66c87301ca1>@@@std@@@std@@$0A@@?$unique_ptr@V?$tuple@V<lambda_d1250b07d06cca55b178c66c87301ca1>@@@std@@U?$default_delete@V?$tuple@V<lambda_d1250b07d06cca55b178c66c87301ca1>@@@std@@@2@@std@@QEAA@PEAV?$tuple@V<lambda_d1250b07d06cca55b178c66c87301ca1>@@@1@@Z 0000000140036cb0 f i win32_crystalflask.obj
 0001:00035ce0       ??$?0U?$default_delete@V?$tuple@V<lambda_d1250b07d06cca55b178c66c87301ca1>@@@std@@@std@@PEAV?$tuple@V<lambda_d1250b07d06cca55b178c66c87301ca1>@@@1@@?$_Compressed_pair@U?$default_delete@V?$tuple@V<lambda_d1250b07d06cca55b178c66c87301ca1>@@@std@@@std@@PEAV?$tuple@V<lambda_d1250b07d06cca55b178c66c87301ca1>@@@2@$00@std@@QEAA@U_One_then_variadic_args_t@1@$$QEAU?$default_delete@V?$tuple@V<lambda_d1250b07d06cca55b178c66c87301ca1>@@@std@@@1@$$QEAPEAV?$tuple@V<lambda_d1250b07d06cca55b178c66c87301ca1>@@@1@@Z 0000000140036ce0 f i win32_crystalflask.obj
 0001:00035d20       ??$?0U_Exact_args_t@std@@$0A@@?$tuple@$$V@std@@QEAA@U_Exact_args_t@1@@Z 0000000140036d20 f i win32_crystalflask.obj
 0001:00035d30       ??$?0U_Exact_args_t@std@@V<lambda_d1250b07d06cca55b178c66c87301ca1>@@$$V$0A@@?$tuple@V<lambda_d1250b07d06cca55b178c66c87301ca1>@@@std@@QEAA@U_Exact_args_t@1@$$QEAV<lambda_d1250b07d06cca55b178c66c87301ca1>@@@Z 0000000140036d30 f i win32_crystalflask.obj
 0001:00035e30       ??$?0V<lambda_d1250b07d06cca55b178c66c87301ca1>@@$$V$0A@@?$tuple@V<lambda_d1250b07d06cca55b178c66c87301ca1>@@@std@@QEAA@$$QEAV<lambda_d1250b07d06cca55b178c66c87301ca1>@@@Z 0000000140036e30 f i win32_crystalflask.obj
 0001:00035e80       ??$?0V<lambda_d1250b07d06cca55b178c66c87301ca1>@@$$V$0A@@thread@std@@QEAA@$$QEAV<lambda_d1250b07d06cca55b178c66c87301ca1>@@@Z 0000000140036e80 f i win32_crystalflask.obj
 0001:00035f50       ??$?0V<lambda_d1250b07d06cca55b178c66c87301ca1>@@@?$_Tuple_val@V<lambda_d1250b07d06cca55b178c66c87301ca1>@@@std@@QEAA@$$QEAV<lambda_d1250b07d06cca55b178c66c87301ca1>@@@Z 0000000140036f50 f i win32_crystalflask.obj
 0001:00036100       ??$?D$$CBU_EXCEPTION_RECORD@@$0A@@?$shared_ptr@$$CBU_EXCEPTION_RECORD@@@std@@QEBAAEBU_EXCEPTION_RECORD@@XZ 0000000140037100 f i libcpmtd:excptptr.obj
 0001:00036100       ??$?DV?$packaged_task@$$A6APEAUmesh_data@@XZ@std@@$0A@@?$shared_ptr@V?$packaged_task@$$A6APEAUmesh_data@@XZ@std@@@std@@QEBAAEAV?$packaged_task@$$A6APEAUmesh_data@@XZ@1@XZ 0000000140037100 f i win32_crystalflask.obj
 0001:00036100       ??$?CV?$packaged_task@$$A6APEAUmesh_data@@XZ@std@@$0A@@?$shared_ptr@V?$packaged_task@$$A6APEAUmesh_data@@XZ@std@@@std@@QEBAPEAV?$packaged_task@$$A6APEAUmesh_data@@XZ@1@XZ 0000000140037100 f i win32_crystalflask.obj
 0001:00036120       ??$?DM$0A@@glm@@YA?AU?$mat@$03$03M$0A@@0@AEBU10@0@Z 0000000140037120 f i win32_crystalflask.obj
 0001:00036750       ??$?DM$0A@@glm@@YA?AU?$mat@$03$03M$0A@@0@AEBU10@AEBM@Z 0000000140037750 f i win32_crystalflask.obj
 0001:00036850       ??$?DM$0A@@glm@@YA?AU?$vec@$02M$0A@@0@AEBU10@0@Z 0000000140037850 f i win32_crystalflask.obj
 0001:000368d0       ??$?DM$0A@@glm@@YA?AU?$vec@$02M$0A@@0@AEBU10@M@Z 00000001400378d0 f i win32_crystalflask.obj
 0001:00036940       ??$?DM$0A@@glm@@YA?AU?$vec@$02M$0A@@0@AEBU?$qua@M$0A@@0@AEBU10@@Z 0000000140037940 f i win32_crystalflask.obj
 0001:00036a20       ??$?DM$0A@@glm@@YA?AU?$vec@$03M$0A@@0@AEBU10@0@Z 0000000140037a20 f i win32_crystalflask.obj
 0001:00036a80       ??$?DM$0A@@glm@@YA?AU?$vec@$03M$0A@@0@AEBU10@AEBM@Z 0000000140037a80 f i win32_crystalflask.obj
 0001:00036ae0       ??$?GM$0A@@glm@@YA?AU?$vec@$01M$0A@@0@AEBU10@0@Z 0000000140037ae0 f i win32_crystalflask.obj
 0001:00036b30       ??$?GM$0A@@glm@@YA?AU?$vec@$02M$0A@@0@AEBU10@0@Z 0000000140037b30 f i win32_crystalflask.obj
 0001:00036bb0       ??$?GM$0A@@glm@@YA?AU?$vec@$02M$0A@@0@AEBU10@@Z 0000000140037bb0 f i win32_crystalflask.obj
 0001:00036c20       ??$?GM$0A@@glm@@YA?AU?$vec@$03M$0A@@0@AEBU10@0@Z 0000000140037c20 f i win32_crystalflask.obj
 0001:00036c80       ??$?HM$0A@@glm@@YA?AU?$vec@$02M$0A@@0@AEBU10@0@Z 0000000140037c80 f i win32_crystalflask.obj
 0001:00036d00       ??$?HM$0A@@glm@@YA?AU?$vec@$03M$0A@@0@AEBU10@0@Z 0000000140037d00 f i win32_crystalflask.obj
 0001:00036dc0       ??$?XM@?$vec@$01M$0A@@glm@@QEAAAEAU01@M@Z 0000000140037dc0 f i win32_crystalflask.obj
 0001:00036e10       ??$?XM@?$vec@$03M$0A@@glm@@QEAAAEAU01@AEBU01@@Z 0000000140037e10 f i win32_crystalflask.obj
 0001:00036e70       ??$?XM@?$vec@$03M$0A@@glm@@QEAAAEAU01@M@Z 0000000140037e70 f i win32_crystalflask.obj
 0001:00036ec0       ??$?YM@?$vec@$02M$0A@@glm@@QEAAAEAU01@AEBU01@@Z 0000000140037ec0 f i win32_crystalflask.obj
 0001:00036f30       ??$?YM@?$vec@$03M$0A@@glm@@QEAAAEAU01@AEBU01@@Z 0000000140037f30 f i win32_crystalflask.obj
 0001:00036f90       ??$?ZM@?$vec@$03M$0A@@glm@@QEAAAEAU01@AEBU01@@Z 0000000140037f90 f i win32_crystalflask.obj
 0001:000370f0       ??$IM_DELETE@UImGuiViewportDataWin32@@@@YAXPEAUImGuiViewportDataWin32@@@Z 00000001400380f0 f i win32_crystalflask.obj
 0001:00037170       ??$_Adl_verify_range@PEAPEAV?$function@$$A6AXXZ@std@@PEAPEAV12@@std@@YAXAEBQEAPEAV?$function@$$A6AXXZ@0@0@Z 0000000140038170 f i win32_crystalflask.obj
 0001:000371a0       ??$_Alloc_proxy@V?$allocator@U_Container_proxy@std@@@std@@@_Container_base12@std@@QEAAX$$QEAV?$allocator@U_Container_proxy@std@@@1@@Z 00000001400381a0 f i win32_crystalflask.obj
 0001:00037210       ??$_Allocate@$0BA@U_Default_allocate_traits@std@@$0A@@std@@YAPEAX_K@Z 0000000140038210 f i win32_crystalflask.obj
 0001:00037250       ??$_Allocate_manually_vector_aligned@U_Default_allocate_traits@std@@@std@@YAPEAX_K@Z 0000000140038250 f i win32_crystalflask.obj
 0001:00037410       ??$_Call@V<lambda_d1250b07d06cca55b178c66c87301ca1>@@$$V@_Invoker_functor@std@@SAX$$QEAV<lambda_d1250b07d06cca55b178c66c87301ca1>@@@Z 0000000140038410 f i win32_crystalflask.obj
 0001:00037460       ??$_Construct_in_place@PEADAEBQEAD@std@@YAXAEAPEADAEBQEAD@Z 0000000140038460 f i win32_crystalflask.obj
 0001:000374b0       ??$_Construct_in_place@U_Container_proxy@std@@PEAU_Container_base12@2@@std@@YAXAEAU_Container_proxy@0@$$QEAPEAU_Container_base12@0@@Z 00000001400384b0 f i win32_crystalflask.obj
 0001:00037550       ??$addressof@V?$function@$$A6AXXZ@std@@@std@@YAPEAV?$function@$$A6AXXZ@0@AEAV10@@Z 0000000140038550 f i win32_crystalflask.obj
 0001:00037550       ?dangerous_get_state_array@?$dual_state_global@PEAU__crt_locale_data@@@__crt_state_management@@QEAAPEAPEAU__crt_locale_data@@XZ 0000000140038550 f i libucrtd:per_thread_data.obj
 0001:00037550       ??$forward@AEAViterator@TryBlockMap@__FrameHandler3@@@std@@YAAEAViterator@TryBlockMap@__FrameHandler3@@AEAV123@@Z 0000000140038550 f i libvcruntimed:risctrnsctrl.obj
 0001:00037550       ??0?$allocator@V?$function@$$A6AXXZ@std@@@std@@QEAA@XZ 0000000140038550 f i win32_crystalflask.obj
 0001:00037550       ?_Mycnd@condition_variable@std@@AEAAPEAU_Cnd_internal_imp_t@@XZ 0000000140038550 f i win32_crystalflask.obj
 0001:00037550       ??$move@AEAV?$future@PEAUmesh_data@@@std@@@std@@YA$$QEAV?$future@PEAUmesh_data@@@0@AEAV10@@Z 0000000140038550 f i win32_crystalflask.obj
 0001:00037550       ??$addressof@Vfuture_error@std@@@std@@YAPEAVfuture_error@0@AEAV10@@Z 0000000140038550 f i win32_crystalflask.obj
 0001:00037550       ??$get@$0A@V<lambda_d1250b07d06cca55b178c66c87301ca1>@@@std@@YAAEAV<lambda_d1250b07d06cca55b178c66c87301ca1>@@AEAV?$tuple@V<lambda_d1250b07d06cca55b178c66c87301ca1>@@@0@@Z 0000000140038550 f i win32_crystalflask.obj
 0001:00037550       ??$forward@V?$allocator@D@std@@@std@@YA$$QEAV?$allocator@D@0@AEAV10@@Z 0000000140038550 f i libcpmtd:xonce.obj
 0001:00037550       ??0?$allocator@D@std@@QEAA@XZ 0000000140038550 f i win32_crystalflask.obj
 0001:00037550       ?dangerous_get_state_array@?$dual_state_global@P6AXPEB_W00I_K@Z@__crt_state_management@@QEAAPEAP6AXPEB_W00I_K@ZXZ 0000000140038550 f i libucrtd:invalid_parameter.obj
 0001:00037550       ??0?$tuple@$$V@std@@QEAA@XZ 0000000140038550 f i win32_crystalflask.obj
 0001:00037550       ?debug_info@?$__crt_win32_buffer@DU__crt_win32_buffer_internal_dynamic_resizing@@@@QEBAAEBV__crt_win32_buffer_empty_debug_info@@XZ 0000000140038550 f i libucrtd:argv_wildcards.obj
 0001:00037550       ??$_Unfancy@V?$future@X@std@@@std@@YAPEAV?$future@X@0@PEAV10@@Z 0000000140038550 f i win32_crystalflask.obj
 0001:00037550       ??$move@AEAV?$shared_ptr@$$CBU_EXCEPTION_RECORD@@@std@@@std@@YA$$QEAV?$shared_ptr@$$CBU_EXCEPTION_RECORD@@@0@AEAV10@@Z 0000000140038550 f i libcpmtd:excptptr.obj
 0001:00037550       ??$_Unfancy@D@std@@YAPEADPEAD@Z 0000000140038550 f i win32_crystalflask.obj
 0001:00037550       ?dangerous_get_state_array@?$dual_state_global@PEAE@__crt_state_management@@QEAAPEAPEAEXZ 0000000140038550 f i libucrtd:mbctype.obj
 0001:00037550       ??$move@AEAV?$function@$$A6AXXZ@std@@@std@@YA$$QEAV?$function@$$A6AXXZ@0@AEAV10@@Z 0000000140038550 f i win32_crystalflask.obj
 0001:00037550       ?dangerous_get_state_array@?$dual_state_global@PEAU__crt_multibyte_data@@@__crt_state_management@@QEAAPEAPEAU__crt_multibyte_data@@XZ 0000000140038550 f i libucrtd:mbctype.obj
 0001:00037550       ?_Get_first@?$_Compressed_pair@U?$default_delete@V?$tuple@V<lambda_d1250b07d06cca55b178c66c87301ca1>@@@std@@@std@@PEAV?$tuple@V<lambda_d1250b07d06cca55b178c66c87301ca1>@@@2@$00@std@@QEAAAEAU?$default_delete@V?$tuple@V<lambda_d1250b07d06cca55b178c66c87301ca1>@@@std@@@2@XZ 0000000140038550 f i win32_crystalflask.obj
 0001:00037550       ??$move@AEAVthread@std@@@std@@YA$$QEAVthread@0@AEAV10@@Z 0000000140038550 f i win32_crystalflask.obj
 0001:00037550       ?get_address_of@?$__crt_unique_handle_t@U__crt_hmodule_traits@@@@QEAAPEAPEAUHINSTANCE__@@XZ 0000000140038550 f i libucrtd:exit.obj
 0001:00037550       ??$addressof@$$CBV?$_State_manager@PEAUmesh_data@@@std@@@std@@YAPEBV?$_State_manager@PEAUmesh_data@@@0@AEBV10@@Z 0000000140038550 f i win32_crystalflask.obj
 0001:00037550       ??$_Convert_size@_K@std@@YA_K_K@Z 0000000140038550 f i win32_crystalflask.obj
 0001:00037550       ??0?$_Func_base@X$$V@std@@QEAA@XZ 0000000140038550 f i win32_crystalflask.obj
 0001:00037550       ??$forward@PEAU_Container_base12@std@@@std@@YA$$QEAPEAU_Container_base12@0@AEAPEAU10@@Z 0000000140038550 f i win32_crystalflask.obj
 0001:00037550       ??$addressof@U_Container_base12@std@@@std@@YAPEAU_Container_base12@0@AEAU10@@Z 0000000140038550 f i win32_crystalflask.obj
 0001:00037550       ??$forward@AEBQEAD@std@@YAAEBQEADAEBQEAD@Z 0000000140038550 f i win32_crystalflask.obj
 0001:00037550       ??$addressof@V?$_Deque_val@U?$_Deque_simple_types@V?$function@$$A6AXXZ@std@@@std@@@std@@@std@@YAPEAV?$_Deque_val@U?$_Deque_simple_types@V?$function@$$A6AXXZ@std@@@std@@@0@AEAV10@@Z 0000000140038550 f i win32_crystalflask.obj
 0001:00037550       ??$move@AEAV<lambda_d1250b07d06cca55b178c66c87301ca1>@@@std@@YA$$QEAV<lambda_d1250b07d06cca55b178c66c87301ca1>@@AEAV1@@Z 0000000140038550 f i win32_crystalflask.obj
 0001:00037550       ?_Get_first@?$_Compressed_pair@V?$allocator@Vthread@std@@@std@@V?$_Vector_val@U?$_Simple_types@Vthread@std@@@std@@@2@$00@std@@QEAAAEAV?$allocator@Vthread@std@@@2@XZ 0000000140038550 f i win32_crystalflask.obj
 0001:00037550       ?_Get_first@?$_Compressed_pair@V?$allocator@D@std@@V?$_String_val@U?$_Simple_types@D@std@@@2@$00@std@@QEBAAEBV?$allocator@D@2@XZ 0000000140038550 f i win32_crystalflask.obj
 0001:00037550       ??$addressof@$$CBV?$_String_val@U?$_Simple_types@D@std@@@std@@@std@@YAPEBV?$_String_val@U?$_Simple_types@D@std@@@0@AEBV10@@Z 0000000140038550 f i libcpmtd:xonce.obj
 0001:00037550       ??$forward@Vthread@std@@@std@@YA$$QEAVthread@0@AEAV10@@Z 0000000140038550 f i win32_crystalflask.obj
 0001:00037550       ??$_Unfancy@V?$function@$$A6AXXZ@std@@@std@@YAPEAV?$function@$$A6AXXZ@0@PEAV10@@Z 0000000140038550 f i win32_crystalflask.obj
 0001:00037550       ??0?$allocator@V?$future@X@std@@@std@@QEAA@XZ 0000000140038550 f i win32_crystalflask.obj
 0001:00037550       ??$forward@AEAViterator@TryBlockMap4@FH4@@@std@@YAAEAViterator@TryBlockMap4@FH4@@AEAV123@@Z 0000000140038550 f i libvcruntimed:risctrnsctrl.obj
 0001:00037550       ??$move@AEAV?$allocator@D@std@@@std@@YA$$QEAV?$allocator@D@0@AEAV10@@Z 0000000140038550 f i libcpmtd:xonce.obj
 0001:00037550       ?_get_cv@_Cnd_internal_imp_t@@QEAAPEAVstl_condition_variable_interface@details@Concurrency@@XZ 0000000140038550 f i libcpmtd:cond.obj
 0001:00037550       ?_Get_data@?$deque@V?$function@$$A6AXXZ@std@@V?$allocator@V?$function@$$A6AXXZ@std@@@2@@std@@AEAAAEAV?$_Deque_val@U?$_Deque_simple_types@V?$function@$$A6AXXZ@std@@@std@@@2@XZ 0000000140038550 f i win32_crystalflask.obj
 0001:00037550       ??$move@AEAPEAV_Ref_count_base@std@@@std@@YA$$QEAPEAV_Ref_count_base@0@AEAPEAV10@@Z 0000000140038550 f i libcpmtd:excptptr.obj
 0001:00037550       ??$forward@V<lambda_d1250b07d06cca55b178c66c87301ca1>@@@std@@YA$$QEAV<lambda_d1250b07d06cca55b178c66c87301ca1>@@AEAV1@@Z 0000000140038550 f i win32_crystalflask.obj
 0001:00037550       ?_Get_data@?$deque@V?$function@$$A6AXXZ@std@@V?$allocator@V?$function@$$A6AXXZ@std@@@2@@std@@AEBAAEBV?$_Deque_val@U?$_Deque_simple_types@V?$function@$$A6AXXZ@std@@@std@@@2@XZ 0000000140038550 f i win32_crystalflask.obj
 0001:00037550       ?_Get_first@?$_Compressed_pair@V?$allocator@V?$future@X@std@@@std@@V?$_Vector_val@U?$_Simple_types@V?$future@X@std@@@std@@@2@$00@std@@QEAAAEAV?$allocator@V?$future@X@std@@@2@XZ 0000000140038550 f i win32_crystalflask.obj
 0001:00037550       ??$move@AEAV?$shared_ptr@V?$packaged_task@$$A6APEAUmesh_data@@XZ@std@@@std@@@std@@YA$$QEAV?$shared_ptr@V?$packaged_task@$$A6APEAUmesh_data@@XZ@std@@@0@AEAV10@@Z 0000000140038550 f i win32_crystalflask.obj
 0001:00037550       ?_Get_first@?$_Compressed_pair@V?$allocator@Vthread@std@@@std@@V?$_Vector_val@U?$_Simple_types@Vthread@std@@@std@@@2@$00@std@@QEBAAEBV?$allocator@Vthread@std@@@2@XZ 0000000140038550 f i win32_crystalflask.obj
 0001:00037550       ??$_Atomic_address_as@$$CBJ$$CBU?$_Atomic_padded@J@std@@@std@@YAPEDJAEBU?$_Atomic_padded@J@0@@Z 0000000140038550 f i libconcrtd:ContextBase.obj
 0001:00037550       ?data@?$scanset_storage@$00@__crt_stdio_input@@QEBAPEAEXZ 0000000140038550 f i libucrtd:input.obj
 0001:00037550       ??$forward@PEAV?$tuple@V<lambda_d1250b07d06cca55b178c66c87301ca1>@@@std@@@std@@YA$$QEAPEAV?$tuple@V<lambda_d1250b07d06cca55b178c66c87301ca1>@@@0@AEAPEAV10@@Z 0000000140038550 f i win32_crystalflask.obj
 0001:00037550       ??$_Atomic_address_as@JU?$_Atomic_padded@J@std@@@std@@YAPECJAEAU?$_Atomic_padded@J@0@@Z 0000000140038550 f i libconcrtd:TaskCollection.obj
 0001:00037550       ??$addressof@V?$packaged_task@$$A6APEAUmesh_data@@XZ@std@@@std@@YAPEAV?$packaged_task@$$A6APEAUmesh_data@@XZ@0@AEAV10@@Z 0000000140038550 f i win32_crystalflask.obj
 0001:00037550       ??$_Unfancy@U_Container_proxy@std@@@std@@YAPEAU_Container_proxy@0@PEAU10@@Z 0000000140038550 f i win32_crystalflask.obj
 0001:00037550       ?_Get_first@?$_Compressed_pair@V?$allocator@V?$function@$$A6AXXZ@std@@@std@@V?$_Deque_val@U?$_Deque_simple_types@V?$function@$$A6AXXZ@std@@@std@@@2@$00@std@@QEAAAEAV?$allocator@V?$function@$$A6AXXZ@std@@@2@XZ 0000000140038550 f i win32_crystalflask.obj
 0001:00037550       ??$addressof@J@std@@YAPEAJAEAJ@Z 0000000140038550 f i libconcrtd:TaskCollection.obj
 0001:00037550       ?_Get_first@?$_Compressed_pair@V?$allocator@V?$function@$$A6AXXZ@std@@@std@@V?$_Deque_val@U?$_Deque_simple_types@V?$function@$$A6AXXZ@std@@@std@@@2@$00@std@@QEBAAEBV?$allocator@V?$function@$$A6AXXZ@std@@@2@XZ 0000000140038550 f i win32_crystalflask.obj
 0001:00037550       ??$forward@AEAPEAV?$tuple@V<lambda_d1250b07d06cca55b178c66c87301ca1>@@@std@@@std@@YAAEAPEAV?$tuple@V<lambda_d1250b07d06cca55b178c66c87301ca1>@@@0@AEAPEAV10@@Z 0000000140038550 f i win32_crystalflask.obj
 0001:00037550       ??$_Unfancy@Vthread@std@@@std@@YAPEAVthread@0@PEAV10@@Z 0000000140038550 f i win32_crystalflask.obj
 0001:00037550       ?_Get_first@?$_Compressed_pair@V?$allocator@D@std@@V?$_String_val@U?$_Simple_types@D@std@@@2@$00@std@@QEAAAEAV?$allocator@D@2@XZ 0000000140038550 f i win32_crystalflask.obj
 0001:00037550       ?_Get_state@?$_Promise@PEAUmesh_data@@@std@@QEAAAEAV?$_State_manager@PEAUmesh_data@@@2@XZ 0000000140038550 f i win32_crystalflask.obj
 0001:00037550       ??$addressof@V?$_String_val@U?$_Simple_types@D@std@@@std@@@std@@YAPEAV?$_String_val@U?$_Simple_types@D@std@@@0@AEAV10@@Z 0000000140038550 f i libcpmtd:xonce.obj
 0001:00037550       ??$addressof@Vmutex@std@@@std@@YAPEAVmutex@0@AEAV10@@Z 0000000140038550 f i win32_crystalflask.obj
 0001:00037550       ??$move@AEAPEAUmesh_data@@@std@@YA$$QEAPEAUmesh_data@@AEAPEAU1@@Z 0000000140038550 f i win32_crystalflask.obj
 0001:00037550       ??$move@AEAPEBU_EXCEPTION_RECORD@@@std@@YA$$QEAPEBU_EXCEPTION_RECORD@@AEAPEBU1@@Z 0000000140038550 f i libcpmtd:excptptr.obj
 0001:00037550       ??0stl_critical_section_interface@details@Concurrency@@QEAA@XZ 0000000140038550 f i libcpmtd:mutex.obj
 0001:00037550       ?get_address_of@?$__crt_unique_heap_ptr@PEADU__crt_internal_free_policy@@@@QEAAPEAPEAPEADXZ 0000000140038550 f i libucrtd:argv_parsing.obj
 0001:00037550       ??0_Bxty@?$_String_val@U?$_Simple_types@D@std@@@std@@QEAA@XZ 0000000140038550 f i win32_crystalflask.obj
 0001:00037550       ?_Mymtx@_Mutex_base@std@@AEAAPEAU_Mtx_internal_imp_t@@XZ 0000000140038550 f i win32_crystalflask.obj
 0001:00037550       ??0DefaultWaiterPool@platform@details@Concurrency@@QEAA@XZ 0000000140038550 f i libconcrtd:Platform.obj
 0001:00037550       ??$forward@U?$default_delete@V?$tuple@V<lambda_d1250b07d06cca55b178c66c87301ca1>@@@std@@@std@@@std@@YA$$QEAU?$default_delete@V?$tuple@V<lambda_d1250b07d06cca55b178c66c87301ca1>@@@std@@@0@AEAU10@@Z 0000000140038550 f i win32_crystalflask.obj
 0001:00037550       ??$addressof@U_Container_proxy@std@@@std@@YAPEAU_Container_proxy@0@AEAU10@@Z 0000000140038550 f i win32_crystalflask.obj
 0001:00037550       ?debug_info@?$__crt_win32_buffer@_WU__crt_win32_buffer_internal_dynamic_resizing@@@@QEBAAEBV__crt_win32_buffer_empty_debug_info@@XZ 0000000140038550 f i libucrtd:argv_wildcards.obj
 0001:00037550       ??0?$allocator@Vthread@std@@@std@@QEAA@XZ 0000000140038550 f i win32_crystalflask.obj
 0001:00037550       ?debug_info@?$__crt_win32_buffer@DU__crt_win32_buffer_no_resizing@@@@QEBAAEBV__crt_win32_buffer_empty_debug_info@@XZ 0000000140038550 f i libucrtd:getmodulefilenamea.obj
 0001:00037550       ??$addressof@V?$_State_manager@PEAUmesh_data@@@std@@@std@@YAPEAV?$_State_manager@PEAUmesh_data@@@0@AEAV10@@Z 0000000140038550 f i win32_crystalflask.obj
 0001:00037550       ??$addressof@PEAD@std@@YAPEAPEADAEAPEAD@Z 0000000140038550 f i win32_crystalflask.obj
 0001:00037550       ??0?$_Func_base@PEAUmesh_data@@$$V@std@@QEAA@XZ 0000000140038550 f i win32_crystalflask.obj
 0001:00037550       ??0stl_condition_variable_interface@details@Concurrency@@QEAA@XZ 0000000140038550 f i libcpmtd:cond.obj
 0001:00037550       ??$forward@PEAUmesh_data@@@std@@YA$$QEAPEAUmesh_data@@AEAPEAU1@@Z 0000000140038550 f i win32_crystalflask.obj
 0001:00037560       ??$_Copy_construct_from@V?$packaged_task@$$A6APEAUmesh_data@@XZ@std@@@?$_Ptr_base@V?$packaged_task@$$A6APEAUmesh_data@@XZ@std@@@std@@IEAAXAEBV?$shared_ptr@V?$packaged_task@$$A6APEAUmesh_data@@XZ@std@@@1@@Z 0000000140038560 f i win32_crystalflask.obj
 0001:00037560       ??$_Copy_construct_from@$$CBU_EXCEPTION_RECORD@@@?$_Ptr_base@$$CBU_EXCEPTION_RECORD@@@std@@IEAAXAEBV?$shared_ptr@$$CBU_EXCEPTION_RECORD@@@1@@Z 0000000140038560 f i libcpmtd:excptptr.obj
 0001:000375b0       ??$_Copy_memmove@PEAPEAV?$function@$$A6AXXZ@std@@PEAPEAV12@@std@@YAPEAPEAV?$function@$$A6AXXZ@0@PEAPEAV10@00@Z 00000001400385b0 f i win32_crystalflask.obj
 0001:00037620       ??$_Deallocate@$07$0A@@std@@YAXPEAX_K@Z 0000000140038620 f i win32_crystalflask.obj
 0001:00037620       ??$_Deallocate@$0BA@$0A@@std@@YAXPEAX_K@Z 0000000140038620 f i win32_crystalflask.obj
 0001:00037660       ??$_Deallocate_plain@V?$allocator@U_Container_proxy@std@@@std@@@std@@YAXAEAV?$allocator@U_Container_proxy@std@@@0@QEAU_Container_proxy@0@@Z 0000000140038660 f i win32_crystalflask.obj
 0001:00037690       ??$_Delete_plain_internal@V?$allocator@U_Container_proxy@std@@@std@@@std@@YAXAEAV?$allocator@U_Container_proxy@std@@@0@QEAU_Container_proxy@0@@Z 0000000140038690 f i win32_crystalflask.obj
 0001:000376c0       ?RMAwaken@InternalContextBase@details@Concurrency@@EEAAXXZ 00000001400386c0 f i libconcrtd:InternalContextBase.obj
 0001:000376c0       ?destroy@stl_condition_variable_win7@details@Concurrency@@UEAAXXZ 00000001400386c0 f i libcpmtd:cond.obj
 0001:000376c0       ?destroy@stl_condition_variable_vista@details@Concurrency@@UEAAXXZ 00000001400386c0 f i libcpmtd:cond.obj
 0001:000376c0       ?DeleteValue@?$Hash@II@details@Concurrency@@CAXAEAI@Z 00000001400386c0 f i libconcrtd:SchedulerBase.obj
 0001:000376c0       ??1?$__crt_simd_cleanup_guard@$0A@@@QEAA@XZ 00000001400386c0 f i libucrtd:strnlen.obj
 0001:000376c0       ??$_Destroy_in_place@PEAD@std@@YAXAEAPEAD@Z 00000001400386c0 f i libcpmtd:xonce.obj
 0001:000376c0       ??1scoped_global_state_reset@__crt_state_management@@QEAA@XZ 00000001400386c0 f i libucrtd:qsort.obj
 0001:000376c0       ??1_Ref_count_base@std@@UEAA@XZ 00000001400386c0 f i win32_crystalflask.obj
 0001:000376c0       _guard_check_icall_nop     00000001400386c0 f i LIBCMTD:guard_support.obj
 0001:000376c0       ??1error_category@std@@UEAA@XZ 00000001400386c0 f i win32_crystalflask.obj
 0001:000376c0       ?Destroy@WaitAnyBlock@details@Concurrency@@UEAAXXZ 00000001400386c0 f i libconcrtd:event.obj
 0001:000376c0       ?destroy@stl_critical_section_win7@details@Concurrency@@UEAAXXZ 00000001400386c0 f i libcpmtd:mutex.obj
 0001:000376c0       ??$_Destroy_in_place@PEAV?$function@$$A6AXXZ@std@@@std@@YAXAEAPEAV?$function@$$A6AXXZ@0@@Z 00000001400386c0 f i win32_crystalflask.obj
 0001:000376c0       ?NotifyAffinitizedWork@FairScheduleGroupSegment@details@Concurrency@@UEAAXXZ 00000001400386c0 f i libconcrtd:SchedulerBase.obj
 0001:000376c0       ??1location@Concurrency@@QEAA@XZ 00000001400386c0 f i libconcrtd:SchedulerBase.obj
 0001:000376c0       ??1_Bxty@?$_String_val@U?$_Simple_types@D@std@@@std@@QEAA@XZ 00000001400386c0 f i libcpmtd:xonce.obj
 0001:000376c0       ?DeleteKey@?$Hash@II@details@Concurrency@@CAXAEAI@Z 00000001400386c0 f i libconcrtd:SchedulerBase.obj
 0001:000376c0       ?Cleanup@SchedulingNode@details@Concurrency@@AEAAXXZ 00000001400386c0 f i libconcrtd:SchedulingNode.obj
 0001:000376c0       ?DeleteValue@?$Hash@PEAV_TaskCollection@details@Concurrency@@PEAV123@@details@Concurrency@@CAXAEAPEAV_TaskCollection@23@@Z 00000001400386c0 f i libconcrtd:ContextBase.obj
 0001:000376c0       ?DeleteKey@?$Hash@PEAV_TaskCollection@details@Concurrency@@PEAV123@@details@Concurrency@@CAXAEAPEAV_TaskCollection@23@@Z 00000001400386c0 f i libconcrtd:ContextBase.obj
 0001:000376d0       ??$_Destroy_in_place@V?$packaged_task@$$A6APEAUmesh_data@@XZ@std@@@std@@YAXAEAV?$packaged_task@$$A6APEAUmesh_data@@XZ@0@@Z 00000001400386d0 f i win32_crystalflask.obj
 0001:000376f0       ??$_Destroy_range@PEAPEAV?$function@$$A6AXXZ@std@@@std@@YAXPEAPEAV?$function@$$A6AXXZ@0@QEAPEAV10@@Z 00000001400386f0 f i win32_crystalflask.obj
 0001:000376f0       ?_Run_deferred_function@?$_Associated_state@PEAUmesh_data@@@std@@EEAAXAEAV?$unique_lock@Vmutex@std@@@2@@Z 00000001400386f0 f i win32_crystalflask.obj
 0001:000376f0       ?deallocate@__crt_win32_buffer_no_resizing@@SAXQEAXAEBV__crt_win32_buffer_empty_debug_info@@@Z 00000001400386f0 f i libucrtd:getmodulefilenamea.obj
 0001:00037700       ??$_Destroy_range@V?$allocator@V?$future@X@std@@@std@@@std@@YAXPEAV?$future@X@0@QEAV10@AEAV?$allocator@V?$future@X@std@@@0@@Z 0000000140038700 f i win32_crystalflask.obj
 0001:00037750       ??$_Destroy_range@V?$allocator@Vthread@std@@@std@@@std@@YAXPEAVthread@0@QEAV10@AEAV?$allocator@Vthread@std@@@0@@Z 0000000140038750 f i win32_crystalflask.obj
 0001:000377a0       ??$_Emplace_back@Vthread@std@@@?$_Uninitialized_backout_al@V?$allocator@Vthread@std@@@std@@@std@@QEAAX$$QEAVthread@1@@Z 00000001400387a0 f i win32_crystalflask.obj
 0001:00037800       ??$_Emplace_back_with_unused_capacity@V<lambda_d1250b07d06cca55b178c66c87301ca1>@@@?$vector@Vthread@std@@V?$allocator@Vthread@std@@@2@@std@@AEAAX$$QEAV<lambda_d1250b07d06cca55b178c66c87301ca1>@@@Z 0000000140038800 f i win32_crystalflask.obj
 0001:000378b0       ??$_Emplace_reallocate@V<lambda_d1250b07d06cca55b178c66c87301ca1>@@@?$vector@Vthread@std@@V?$allocator@Vthread@std@@@2@@std@@QEAAPEAVthread@1@QEAV21@$$QEAV<lambda_d1250b07d06cca55b178c66c87301ca1>@@@Z 00000001400388b0 f i win32_crystalflask.obj
 0001:00037ad0       ??$_Get_size_of_n@$00@std@@YA_K_K@Z 0000000140038ad0 f i win32_crystalflask.obj
 0001:00037af0       ??$_Get_size_of_n@$07@std@@YA_K_K@Z 0000000140038af0 f i win32_crystalflask.obj
 0001:00037b40       ??$_Get_size_of_n@$0BA@@std@@YA_K_K@Z 0000000140038b40 f i win32_crystalflask.obj
 0001:00037b80       ??$_Get_size_of_n@$0EA@@std@@YA_K_K@Z 0000000140038b80 f i win32_crystalflask.obj
 0001:00037bc0       ?GetMask@HardwareAffinity@details@Concurrency@@QEAA_KXZ 0000000140038bc0 f i libconcrtd:ResourceManager.obj
 0001:00037bc0       ??$_Get_unwrapped@AEBQEAVthread@std@@@std@@YAPEAVthread@0@AEBQEAV10@@Z 0000000140038bc0 f i win32_crystalflask.obj
 0001:00037bc0       ?get@?$__crt_unique_heap_ptr@U__vcrt_ptd@@U__crt_internal_free_policy@@@@QEBAPEAU__vcrt_ptd@@XZ 0000000140038bc0 f i libvcruntimed:per_thread_data.obj
 0001:00037bc0       ?Current@?$SQueue@VSafePointInvocation@details@Concurrency@@@details@Concurrency@@QEBAPEAVSafePointInvocation@23@XZ 0000000140038bc0 f i libconcrtd:SchedulerBase.obj
 0001:00037bc0       ??C__crt_stdio_stream@@QEBAPEAU__crt_stdio_stream_data@@XZ 0000000140038bc0 f i libucrtd:_file.obj
 0001:00037bc0       ?get@?$__crt_unique_handle_t@U__crt_hmodule_traits@@@@QEBAPEAUHINSTANCE__@@XZ 0000000140038bc0 f i libucrtd:exit.obj
 0001:00037bc0       ?get@?$__crt_unique_heap_ptr@DU__crt_public_free_policy@@@@QEBAPEADXZ 0000000140038bc0 f i libvcruntimed:std_exception.obj
 0001:00037bc0       ??D?$unique_ptr@V?$tuple@V<lambda_d1250b07d06cca55b178c66c87301ca1>@@@std@@U?$default_delete@V?$tuple@V<lambda_d1250b07d06cca55b178c66c87301ca1>@@@std@@@2@@std@@QEBAAEAV?$tuple@V<lambda_d1250b07d06cca55b178c66c87301ca1>@@@1@XZ 0000000140038bc0 f i win32_crystalflask.obj
 0001:00037bc0       ?get@?$__crt_unique_heap_ptr@U__acrt_ptd@@U__crt_internal_free_policy@@@@QEBAPEAU__acrt_ptd@@XZ 0000000140038bc0 f i libucrtd:per_thread_data.obj
 0001:00037bc0       ??$_Get_unwrapped@AEBQEAPEAV?$function@$$A6AXXZ@std@@@std@@YAPEAPEAV?$function@$$A6AXXZ@0@AEBQEAPEAV10@@Z 0000000140038bc0 f i win32_crystalflask.obj
 0001:00037bc0       ?get@?$__crt_scoped_stack_ptr@_W@@QEBAPEA_WXZ 0000000140038bc0 f i libucrtd:lcmapstringa.obj
 0001:00037bc0       ?get@?$__crt_unique_heap_ptr@EU__crt_internal_free_policy@@@@QEBAPEAEXZ 0000000140038bc0 f i libucrtd:input.obj
 0001:00037bc0       ??B?$CHeapPtrBase@_WVCComAllocator@ATL@@@ATL@@QEBAPEA_WXZ 0000000140038bc0 f i win32_crystalflask.obj
 0001:00037bc0       ?mutex@?$unique_lock@Vmutex@std@@@std@@QEBAPEAV02@XZ 0000000140038bc0 f i win32_crystalflask.obj
 0001:00037bc0       ?get@?$__crt_unique_heap_ptr@U__crt_lowio_handle_data@@U__crt_internal_free_policy@@@@QEBAPEAU__crt_lowio_handle_data@@XZ 0000000140038bc0 f i libucrtd:osfinfo.obj
 0001:00037bc0       ?GetScheduler@SchedulingNode@details@Concurrency@@QEAAPEAVSchedulerBase@23@XZ 0000000140038bc0 f i libconcrtd:VirtualProcessor.obj
 0001:00037bc0       ?get@?$_Ptr_base@$$CBU_EXCEPTION_RECORD@@@std@@IEBAPEBU_EXCEPTION_RECORD@@XZ 0000000140038bc0 f i libcpmtd:excptptr.obj
 0001:00037bc0       ?save_state@?$c_string_character_source@D@__crt_strtox@@QEBAPEBDXZ 0000000140038bc0 f i libucrtd:strtox.obj
 0001:00037bc0       ?get@?$__crt_unique_handle_t@U__crt_findfile_traits@@@@QEBAPEAXXZ 0000000140038bc0 f i libucrtd:argv_wildcards.obj
 0001:00037bc0       ?get@?$__crt_unique_heap_ptr@PEADU__crt_internal_free_policy@@@@QEBAPEAPEADXZ 0000000140038bc0 f i libucrtd:argv_parsing.obj
 0001:00037bc0       ?_Ptr@?$_State_manager@PEAUmesh_data@@@std@@QEBAPEAV?$_Associated_state@PEAUmesh_data@@@2@XZ 0000000140038bc0 f i win32_crystalflask.obj
 0001:00037bc0       ?public_stream@__crt_stdio_stream@@QEBAPEAU_iobuf@@XZ 0000000140038bc0 f i libucrtd:output.obj
 0001:00037bc0       ?get@?$unique_ptr@V?$tuple@V<lambda_d1250b07d06cca55b178c66c87301ca1>@@@std@@U?$default_delete@V?$tuple@V<lambda_d1250b07d06cca55b178c66c87301ca1>@@@std@@@2@@std@@QEBAPEAV?$tuple@V<lambda_d1250b07d06cca55b178c66c87301ca1>@@@2@XZ 0000000140038bc0 f i win32_crystalflask.obj
 0001:00037bc0       ?get@?$__crt_unique_heap_ptr@DU__crt_internal_free_policy@@@@QEBAPEADXZ 0000000140038bc0 f i libvcruntimed:std_type_info.obj
 0001:00037bc0       ?get@?$__crt_unique_heap_ptr@U__crt_multibyte_data@@U__crt_internal_free_policy@@@@QEBAPEAU__crt_multibyte_data@@XZ 0000000140038bc0 f i libucrtd:wsetlocale.obj
 0001:00037bc0       ?get@?$_Ptr_base@V?$packaged_task@$$A6APEAUmesh_data@@XZ@std@@@std@@IEBAPEAV?$packaged_task@$$A6APEAUmesh_data@@XZ@2@XZ 0000000140038bc0 f i win32_crystalflask.obj
 0001:00037bc0       ?save_state@?$c_string_character_source@_W@__crt_strtox@@QEBAPEB_WXZ 0000000140038bc0 f i libucrtd:strtox.obj
 0001:00037bd0       ??$_Get_unwrapped_n@AEAPEAPEAV?$function@$$A6AXXZ@std@@_J@std@@YAPEAPEAV?$function@$$A6AXXZ@0@AEAPEAPEAV10@_J@Z 0000000140038bd0 f i win32_crystalflask.obj
 0001:00037bf0       ??$_Idl_distance@PEAPEAV?$function@$$A6AXXZ@std@@PEAPEAV12@@std@@YA_JAEBQEAPEAV?$function@$$A6AXXZ@0@0@Z 0000000140038bf0 f i win32_crystalflask.obj
 0001:00037c20       ??$_Immortalize@V_Future_error_category@std@@@std@@YAAEAV_Future_error_category@0@XZ 0000000140038c20 f i win32_crystalflask.obj
 0001:00037c60       ??$_Immortalize_impl@V_Future_error_category@std@@@std@@YAHPEAX0PEAPEAX@Z 0000000140038c60 f i win32_crystalflask.obj
 0001:00037ca0       ??$_Invoke@V?$tuple@V<lambda_d1250b07d06cca55b178c66c87301ca1>@@@std@@$0A@@thread@std@@CAIPEAX@Z 0000000140038ca0 f i win32_crystalflask.obj
 0001:00037d10       ??$_Max_value@_K@std@@YAAEB_KAEB_K0@Z 0000000140038d10 f i win32_crystalflask.obj
 0001:00037d60       ??$_Min_value@_K@std@@YAAEB_KAEB_K0@Z 0000000140038d60 f i win32_crystalflask.obj
 0001:00037db0       ??$_Move_construct_from@$$CBU_EXCEPTION_RECORD@@@?$_Ptr_base@$$CBU_EXCEPTION_RECORD@@@std@@IEAAX$$QEAV01@@Z 0000000140038db0 f i libcpmtd:excptptr.obj
 0001:00037db0       ??$_Move_construct_from@V?$packaged_task@$$A6APEAUmesh_data@@XZ@std@@@?$_Ptr_base@V?$packaged_task@$$A6APEAUmesh_data@@XZ@std@@@std@@IEAAX$$QEAV01@@Z 0000000140038db0 f i win32_crystalflask.obj
 0001:00037e00       ??$_Reallocate_for@V<lambda_66f57f934f28d61049862f64df852ff0>@@PEBD@?$basic_string@DU?$char_traits@D@std@@V?$allocator@D@2@@std@@AEAAAEAV01@_KV<lambda_66f57f934f28d61049862f64df852ff0>@@PEBD@Z 0000000140038e00 f i win32_crystalflask.obj
 0001:00038000       ??$_Seek_wrapped@PEAPEAV?$function@$$A6AXXZ@std@@AEAPEAPEAV12@@std@@YAXAEAPEAPEAV?$function@$$A6AXXZ@0@0@Z 0000000140039000 f i win32_crystalflask.obj
 0001:00038020       ??$_Set_ptr_rep_and_enable_shared@V?$packaged_task@$$A6APEAUmesh_data@@XZ@std@@@?$shared_ptr@V?$packaged_task@$$A6APEAUmesh_data@@XZ@std@@@std@@AEAAXQEAV?$packaged_task@$$A6APEAUmesh_data@@XZ@1@QEAV_Ref_count_base@1@@Z 0000000140039020 f i win32_crystalflask.obj
 0001:00038020       ??$_Set_ptr_rep@$$CBU_EXCEPTION_RECORD@@U1@@_Exception_ptr_access@std@@SAXAEAV?$_Ptr_base@$$CBU_EXCEPTION_RECORD@@@1@PEAU_EXCEPTION_RECORD@@PEAV_Ref_count_base@1@@Z 0000000140039020 f i libcpmtd:excptptr.obj
 0001:00038050       ?validate_and_update_state_at_end_of_format_string@?$standard_base@DV?$stream_output_adapter@D@__crt_stdio_output@@@__crt_stdio_output@@IEBA_NXZ 0000000140039050 f   libucrtd:output.obj
 0001:00038050       ?should_format@?$standard_base@_WV?$string_output_adapter@_W@__crt_stdio_output@@@__crt_stdio_output@@IEAA_NXZ 0000000140039050 f   libucrtd:output.obj
 0001:00038050       ?should_format@?$standard_base@_WV?$stream_output_adapter@_W@__crt_stdio_output@@@__crt_stdio_output@@IEAA_NXZ 0000000140039050 f   libucrtd:output.obj
 0001:00038050       ?_ArePolicyCombinationsValid@SchedulerPolicy@Concurrency@@AEBA_NXZ 0000000140039050 f   libconcrtd:SchedulerPolicyBase.obj
 0001:00038050       ?validate_and_update_state_at_beginning_of_format_character@?$standard_base@DV?$string_output_adapter@D@__crt_stdio_output@@@__crt_stdio_output@@IEAA_NXZ 0000000140039050 f   libucrtd:output.obj
 0001:00038050       ?validate_and_update_state_at_end_of_format_string@?$standard_base@DV?$string_output_adapter@D@__crt_stdio_output@@@__crt_stdio_output@@IEBA_NXZ 0000000140039050 f   libucrtd:output.obj
 0001:00038050       ?SweepWaitNode@SingleWaitBlock@details@Concurrency@@UEAA_NXZ 0000000140039050 f   libconcrtd:event.obj
 0001:00038050       ?validate_state_for_type_case_a@?$standard_base@_WV?$stream_output_adapter@_W@__crt_stdio_output@@@__crt_stdio_output@@IEBA_NXZ 0000000140039050 f   libucrtd:output.obj
 0001:00038050       ?validate_and_update_state_at_beginning_of_format_character@?$standard_base@DV?$stream_output_adapter@D@__crt_stdio_output@@@__crt_stdio_output@@IEAA_NXZ 0000000140039050 f   libucrtd:output.obj
 0001:00038050       ?validate_and_update_state_at_beginning_of_format_character@?$standard_base@_WV?$string_output_adapter@_W@__crt_stdio_output@@@__crt_stdio_output@@IEAA_NXZ 0000000140039050 f   libucrtd:output.obj
 0001:00038050       ?validate_state_for_type_case_a@?$standard_base@DV?$string_output_adapter@D@__crt_stdio_output@@@__crt_stdio_output@@IEBA_NXZ 0000000140039050 f   libucrtd:output.obj
 0001:00038050       ?validate_and_update_state_at_end_of_format_string@?$standard_base@_WV?$string_output_adapter@_W@__crt_stdio_output@@@__crt_stdio_output@@IEBA_NXZ 0000000140039050 f   libucrtd:output.obj
 0001:00038050       ?validate_state_for_type_case_a@?$standard_base@DV?$stream_output_adapter@D@__crt_stdio_output@@@__crt_stdio_output@@IEBA_NXZ 0000000140039050 f   libucrtd:output.obj
 0001:00038050       ?should_format@?$standard_base@DV?$string_output_adapter@D@__crt_stdio_output@@@__crt_stdio_output@@IEAA_NXZ 0000000140039050 f   libucrtd:output.obj
 0001:00038050       ?validate_stream_is_ansi_if_required@?$__acrt_stdio_char_traits@_W@@SA_NQEAU_iobuf@@@Z 0000000140039050 f   libucrtd:output.obj
 0001:00038050       ?validate_and_update_state_at_beginning_of_format_character@?$standard_base@_WV?$stream_output_adapter@_W@__crt_stdio_output@@@__crt_stdio_output@@IEAA_NXZ 0000000140039050 f   libucrtd:output.obj
 0001:00038050       ?AllowGeneralFetchOfReservedContexts@SchedulerBase@details@Concurrency@@MEAA_NXZ 0000000140039050 f   libconcrtd:SchedulerBase.obj
 0001:00038050       ?validate_state_for_type_case_a@?$standard_base@_WV?$string_output_adapter@_W@__crt_stdio_output@@@__crt_stdio_output@@IEBA_NXZ 0000000140039050 f   libucrtd:output.obj
 0001:00038050       ?should_format@?$standard_base@DV?$stream_output_adapter@D@__crt_stdio_output@@@__crt_stdio_output@@IEAA_NXZ 0000000140039050 f   libucrtd:output.obj
 0001:00038050       ?validate_and_update_state_at_end_of_format_string@?$standard_base@_WV?$stream_output_adapter@_W@__crt_stdio_output@@@__crt_stdio_output@@IEBA_NXZ 0000000140039050 f   libucrtd:output.obj
 0001:00038060       ??$_Uninitialized_move@PEAVthread@std@@V?$allocator@Vthread@std@@@2@@std@@YAPEAVthread@0@QEAV10@0PEAV10@AEAV?$allocator@Vthread@std@@@0@@Z 0000000140039060 f i win32_crystalflask.obj
 0001:00038110       ??$_Uninitialized_value_construct_n_unchecked1@PEAPEAV?$function@$$A6AXXZ@std@@_K@std@@YAPEAPEAV?$function@$$A6AXXZ@0@PEAPEAV10@_K@Z 0000000140039110 f i win32_crystalflask.obj
 0001:00038140       ??$_Verify_range@PEAV?$function@$$A6AXXZ@std@@@std@@YAXQEBQEAV?$function@$$A6AXXZ@0@0@Z 0000000140039140 f i win32_crystalflask.obj
 0001:000381d0       ??$_Zero_range@PEAPEAV?$function@$$A6AXXZ@std@@@std@@YAPEAPEAV?$function@$$A6AXXZ@0@QEAPEAV10@0@Z 00000001400391d0 f i win32_crystalflask.obj
 0001:00038220       ??$_snprintf_s@$0CAA@@@YAHAEAY0CAA@D_KPEBDZZ 0000000140039220 f i win32_crystalflask.obj
 0001:00038270       ??$abs@$01M$0A@@glm@@YA?AU?$vec@$01M$0A@@0@AEBU10@@Z 0000000140039270 f i win32_crystalflask.obj
 0001:000382a0       ??$abs@M@glm@@YAMM@Z       00000001400392a0 f i win32_crystalflask.obj
 0001:000382c0       ??$all@$01$0A@@glm@@YA_NAEBU?$vec@$01_N$0A@@0@@Z 00000001400392c0 f i win32_crystalflask.obj
 0001:00038330       ??$atan@M@glm@@YAMMM@Z     0000000140039330 f i win32_crystalflask.obj
 0001:00038390       ??$clamp@M@glm@@YAMMMM@Z   0000000140039390 f i win32_crystalflask.obj
 0001:000383d0       ??$conjugate@M$0A@@glm@@YA?AU?$qua@M$0A@@0@AEBU10@@Z 00000001400393d0 f i win32_crystalflask.obj
 0001:000384a0       ??$construct@Vthread@std@@V12@@?$_Default_allocator_traits@V?$allocator@Vthread@std@@@std@@@std@@SAXAEAV?$allocator@Vthread@std@@@1@QEAVthread@1@$$QEAV31@@Z 00000001400394a0 f i win32_crystalflask.obj
 0001:000384f0       ??$construct@Vthread@std@@V<lambda_d1250b07d06cca55b178c66c87301ca1>@@@?$_Default_allocator_traits@V?$allocator@Vthread@std@@@std@@@std@@SAXAEAV?$allocator@Vthread@std@@@1@QEAVthread@1@$$QEAV<lambda_d1250b07d06cca55b178c66c87301ca1>@@@Z 00000001400394f0 f i win32_crystalflask.obj
 0001:00038540       ??$cos@$02M$0A@@glm@@YA?AU?$vec@$02M$0A@@0@AEBU10@@Z 0000000140039540 f i win32_crystalflask.obj
 0001:00038570       ??$cross@M$0A@@glm@@YA?AU?$vec@$02M$0A@@0@AEBU10@0@Z 0000000140039570 f i win32_crystalflask.obj
 0001:000385b0       ??$destroy@V?$function@$$A6AXXZ@std@@@?$_Default_allocator_traits@V?$allocator@V?$function@$$A6AXXZ@std@@@std@@@std@@SAXAEAV?$allocator@V?$function@$$A6AXXZ@std@@@1@QEAV?$function@$$A6AXXZ@1@@Z 00000001400395b0 f i win32_crystalflask.obj
 0001:000385d0       ??$destroy@V?$future@X@std@@@?$_Default_allocator_traits@V?$allocator@V?$future@X@std@@@std@@@std@@SAXAEAV?$allocator@V?$future@X@std@@@1@QEAV?$future@X@1@@Z 00000001400395d0 f i win32_crystalflask.obj
 0001:000385f0       ??$destroy@Vthread@std@@@?$_Default_allocator_traits@V?$allocator@Vthread@std@@@std@@@std@@SAXAEAV?$allocator@Vthread@std@@@1@QEAVthread@1@@Z 00000001400395f0 f i win32_crystalflask.obj
 0001:00038610       ??$dot@$02M$0A@@glm@@YAMAEBU?$vec@$02M$0A@@0@0@Z 0000000140039610 f i win32_crystalflask.obj
 0001:00038870       ??$emplace_back@V<lambda_d1250b07d06cca55b178c66c87301ca1>@@@?$vector@Vthread@std@@V?$allocator@Vthread@std@@@2@@std@@QEAAX$$QEAV<lambda_d1250b07d06cca55b178c66c87301ca1>@@@Z 0000000140039870 f i win32_crystalflask.obj
 0001:000388f0       ??$epsilon@M@glm@@YAMXZ    00000001400398f0 f i win32_crystalflask.obj
 0001:00038900       ??$equal@$01M$0A@@glm@@YA?AU?$vec@$01_N$0A@@0@AEBU?$vec@$01M$0A@@0@00@Z 0000000140039900 f i win32_crystalflask.obj
 0001:00038960       ??$equal@$01M$0A@@glm@@YA?AU?$vec@$01_N$0A@@0@AEBU?$vec@$01M$0A@@0@0M@Z 0000000140039960 f i win32_crystalflask.obj
 0001:000389b0       ??$eulerAngleXYZ@M@glm@@YA?AU?$mat@$03$03M$0A@@0@AEBM00@Z 00000001400399b0 f i win32_crystalflask.obj
 0001:00038e10       ??$eulerAngles@M$0A@@glm@@YA?AU?$vec@$02M$0A@@0@AEBU?$qua@M$0A@@0@@Z 0000000140039e10 f i win32_crystalflask.obj
 0001:00038e80       ??$exchange@PEAV?$tuple@V<lambda_d1250b07d06cca55b178c66c87301ca1>@@@std@@PEAV12@@std@@YAPEAV?$tuple@V<lambda_d1250b07d06cca55b178c66c87301ca1>@@@0@AEAPEAV10@$$QEAPEAV10@@Z 0000000140039e80 f i win32_crystalflask.obj
 0001:00038e80       ??$exchange@PEAU_Container_proxy@std@@$$T@std@@YAPEAU_Container_proxy@0@AEAPEAU10@$$QEA$$T@Z 0000000140039e80 f i win32_crystalflask.obj
 0001:00038ec0       ??$exchange@U_Thrd_t@@U1@@std@@YA?AU_Thrd_t@@AEAU1@$$QEAU1@@Z 0000000140039ec0 f i win32_crystalflask.obj
 0001:00038f20       ??$forward_as_tuple@$$V@std@@YA?AV?$tuple@$$V@0@XZ 0000000140039f20 f i win32_crystalflask.obj
 0001:00038f40       ??$inverse@$03$03M$0A@@glm@@YA?AU?$mat@$03$03M$0A@@0@AEBU10@@Z 0000000140039f40 f i win32_crystalflask.obj
 0001:00038f70       ??$inversesqrt@M@glm@@YAMM@Z 0000000140039f70 f i win32_crystalflask.obj
 0001:00039000       ??$invoke@V<lambda_d1250b07d06cca55b178c66c87301ca1>@@$$V@std@@YAX$$QEAV<lambda_d1250b07d06cca55b178c66c87301ca1>@@@Z 000000014003a000 f i win32_crystalflask.obj
 0001:00039020       ??$lerp@M$0A@@glm@@YA?AU?$vec@$02M$0A@@0@AEBU10@0M@Z 000000014003a020 f i win32_crystalflask.obj
 0001:00039060       ??$lessThanEqual@$01M$0A@@glm@@YA?AU?$vec@$01_N$0A@@0@AEBU?$vec@$01M$0A@@0@0@Z 000000014003a060 f i win32_crystalflask.obj
 0001:00039110       ??$lookAt@M$0A@@glm@@YA?AU?$mat@$03$03M$0A@@0@AEBU?$vec@$02M$0A@@0@00@Z 000000014003a110 f i win32_crystalflask.obj
 0001:00039180       ??$lookAtLH@M$0A@@glm@@YA?AU?$mat@$03$03M$0A@@0@AEBU?$vec@$02M$0A@@0@00@Z 000000014003a180 f i win32_crystalflask.obj
 0001:000394a0       ??$lookAtRH@M$0A@@glm@@YA?AU?$mat@$03$03M$0A@@0@AEBU?$vec@$02M$0A@@0@00@Z 000000014003a4a0 f i win32_crystalflask.obj
 0001:000397f0       ??$make_exception_ptr@Vfuture_error@std@@@std@@YA?AVexception_ptr@0@Vfuture_error@0@@Z 000000014003a7f0 f i win32_crystalflask.obj
 0001:000398e0       ??$make_unique@V?$tuple@V<lambda_d1250b07d06cca55b178c66c87301ca1>@@@std@@V<lambda_d1250b07d06cca55b178c66c87301ca1>@@$0A@@std@@YA?AV?$unique_ptr@V?$tuple@V<lambda_d1250b07d06cca55b178c66c87301ca1>@@@std@@U?$default_delete@V?$tuple@V<lambda_d1250b07d06cca55b178c66c87301ca1>@@@std@@@2@@0@$$QEAV<lambda_d1250b07d06cca55b178c66c87301ca1>@@@Z 000000014003a8e0 f i win32_crystalflask.obj
 0001:00039960       ??$mat3_cast@M$0A@@glm@@YA?AU?$mat@$02$02M$0A@@0@AEBU?$qua@M$0A@@0@@Z 000000014003a960 f i win32_crystalflask.obj
 0001:00039d90       ??$mat4_cast@M$0A@@glm@@YA?AU?$mat@$03$03M$0A@@0@AEBU?$qua@M$0A@@0@@Z 000000014003ad90 f i win32_crystalflask.obj
 0001:00039de0       ??$max@M@glm@@YAMMM@Z      000000014003ade0 f i win32_crystalflask.obj
 0001:00039e20       ??$min@M@glm@@YAMMM@Z      000000014003ae20 f i win32_crystalflask.obj
 0001:00039e60       ??$mix@$02MM$0A@@glm@@YA?AU?$vec@$02M$0A@@0@AEBU10@0M@Z 000000014003ae60 f i win32_crystalflask.obj
 0001:00039ea0       ??$normalize@$02M$0A@@glm@@YA?AU?$vec@$02M$0A@@0@AEBU10@@Z 000000014003aea0 f i win32_crystalflask.obj
 0001:00039ed0       ??$perspectiveFov@M@glm@@YA?AU?$mat@$03$03M$0A@@0@MMMMM@Z 000000014003aed0 f i win32_crystalflask.obj
 0001:00039f30       ??$perspectiveFovRH_NO@M@glm@@YA?AU?$mat@$03$03M$0A@@0@MMMMM@Z 000000014003af30 f i win32_crystalflask.obj
 0001:0003a1e0       ??$pitch@M$0A@@glm@@YAMAEBU?$qua@M$0A@@0@@Z 000000014003b1e0 f i win32_crystalflask.obj
 0001:0003a330       ??$radians@M@glm@@YAMM@Z   000000014003b330 f i win32_crystalflask.obj
 0001:0003a350       ??$roll@M$0A@@glm@@YAMAEBU?$qua@M$0A@@0@@Z 000000014003b350 f i win32_crystalflask.obj
 0001:0003a410       ??$rotate@M$0A@@glm@@YA?AU?$vec@$02M$0A@@0@AEBU?$qua@M$0A@@0@AEBU10@@Z 000000014003b410 f i win32_crystalflask.obj
 0001:0003a450       ??$scale@M$0A@@glm@@YA?AU?$mat@$03$03M$0A@@0@AEBU10@AEBU?$vec@$02M$0A@@0@@Z 000000014003b450 f i win32_crystalflask.obj
 0001:0003a620       ??$sin@$02M$0A@@glm@@YA?AU?$vec@$02M$0A@@0@AEBU10@@Z 000000014003b620 f i win32_crystalflask.obj
 0001:0003a650       ??$toMat4@M$0A@@glm@@YA?AU?$mat@$03$03M$0A@@0@AEBU?$qua@M$0A@@0@@Z 000000014003b650 f i win32_crystalflask.obj
 0001:0003a680       ??$translate@M$0A@@glm@@YA?AU?$mat@$03$03M$0A@@0@AEBU10@AEBU?$vec@$02M$0A@@0@@Z 000000014003b680 f i win32_crystalflask.obj
 0001:0003a850       ??$uninitialized_copy@PEAPEAV?$function@$$A6AXXZ@std@@PEAPEAV12@@std@@YAPEAPEAV?$function@$$A6AXXZ@0@QEAPEAV10@0PEAPEAV10@@Z 000000014003b850 f i win32_crystalflask.obj
 0001:0003a8f0       ??$wait@V<lambda_069cbd8a687ea442122c3e37bf0152c0>@@@condition_variable@std@@QEAAXAEAV?$unique_lock@Vmutex@std@@@1@V<lambda_069cbd8a687ea442122c3e37bf0152c0>@@@Z 000000014003b8f0 f i win32_crystalflask.obj
 0001:0003a930       ??$yaw@M$0A@@glm@@YAMAEBU?$qua@M$0A@@0@@Z 000000014003b930 f i win32_crystalflask.obj
 0001:0003aa30       ??0?$__crt_unique_heap_ptr@PEADU__crt_internal_free_policy@@@@QEAA@QEAPEAD@Z 000000014003ba30 f i libucrtd:argv_parsing.obj
 0001:0003aa30       ??0?$string_output_adapter@_W@__crt_stdio_output@@QEAA@QEAU?$string_output_adapter_context@_W@1@@Z 000000014003ba30 f i libucrtd:output.obj
 0001:0003aa30       ??0?$__crt_scoped_stack_ptr_tag@_W@@QEAA@QEA_W@Z 000000014003ba30 f i libucrtd:lcmapstringa.obj
 0001:0003aa30       ??0<lambda_d1250b07d06cca55b178c66c87301ca1>@@QEAA@QEAUThreadPool@@@Z 000000014003ba30 f i win32_crystalflask.obj
 0001:0003aa30       ??0?$__crt_unique_heap_ptr@U__vcrt_ptd@@U__crt_internal_free_policy@@@@QEAA@QEAU__vcrt_ptd@@@Z 000000014003ba30 f i libvcruntimed:per_thread_data.obj
 0001:0003aa30       ??0__crt_stdio_stream@@QEAA@QEAU_iobuf@@@Z 000000014003ba30 f i libucrtd:_file.obj
 0001:0003aa30       ??0?$__crt_unique_heap_ptr@U__acrt_ptd@@U__crt_internal_free_policy@@@@QEAA@QEAU__acrt_ptd@@@Z 000000014003ba30 f i libucrtd:per_thread_data.obj
 0001:0003aa30       ??0?$__crt_unique_heap_ptr@EU__crt_internal_free_policy@@@@QEAA@QEAE@Z 000000014003ba30 f i libucrtd:input.obj
 0001:0003aa30       ??0?$__crt_unique_heap_ptr@U__crt_multibyte_data@@U__crt_internal_free_policy@@@@QEAA@QEAU__crt_multibyte_data@@@Z 000000014003ba30 f i libucrtd:wsetlocale.obj
 0001:0003aa30       ??0?$string_output_adapter@D@__crt_stdio_output@@QEAA@QEAU?$string_output_adapter_context@D@1@@Z 000000014003ba30 f i libucrtd:output.obj
 0001:0003aa30       ??0?$__crt_scoped_stack_ptr@_W@@QEAA@U?$__crt_scoped_stack_ptr_tag@_W@@@Z 000000014003ba30 f i libucrtd:lcmapstringa.obj
 0001:0003aa30       ??0?$__crt_unique_heap_ptr@U__crt_stdio_stream_data@@U__crt_internal_free_policy@@@@QEAA@QEAU__crt_stdio_stream_data@@@Z 000000014003ba30 f i libucrtd:stream.obj
 0001:0003aa30       ??0?$__crt_unique_heap_ptr@U__acrt_thread_parameter@@U__crt_internal_free_policy@@@@QEAA@QEAU__acrt_thread_parameter@@@Z 000000014003ba30 f i libucrtd:thread.obj
 0001:0003aa30       ??0?$__crt_unique_heap_ptr@DU__crt_public_free_policy@@@@QEAA@QEAD@Z 000000014003ba30 f i libvcruntimed:std_exception.obj
 0001:0003aa30       ??0?$__crt_unique_heap_ptr@PEAU__crt_stdio_stream_data@@U__crt_internal_free_policy@@@@QEAA@QEAPEAU__crt_stdio_stream_data@@@Z 000000014003ba30 f i libucrtd:_file.obj
 0001:0003aa30       ??0?$__crt_unique_handle_t@U__crt_hmodule_traits@@@@QEAA@QEAUHINSTANCE__@@@Z 000000014003ba30 f i libucrtd:exit.obj
 0001:0003aa30       ??0?$__crt_unique_heap_ptr@U__crt_lowio_handle_data@@U__crt_internal_free_policy@@@@QEAA@QEAU__crt_lowio_handle_data@@@Z 000000014003ba30 f i libucrtd:osfinfo.obj
 0001:0003aa30       ??0?$__crt_unique_handle_t@U__crt_findfile_traits@@@@QEAA@QEAX@Z 000000014003ba30 f i libucrtd:argv_wildcards.obj
 0001:0003aa30       ??0?$__crt_unique_heap_ptr@DU__crt_internal_free_policy@@@@QEAA@QEAD@Z 000000014003ba30 f i libvcruntimed:std_type_info.obj
 0001:0003aa30       ??0?$__crt_unique_heap_ptr@P6AXXZU__crt_internal_free_policy@@@@QEAA@QEAP6AXXZ@Z 000000014003ba30 f i libucrtd:onexit.obj
 0001:0003aa30       ??0<lambda_069cbd8a687ea442122c3e37bf0152c0>@@QEAA@QEAUThreadPool@@@Z 000000014003ba30 f i win32_crystalflask.obj
 0001:0003aa30       ??0__crt_stdio_stream@@QEAA@QEAU__crt_stdio_stream_data@@@Z 000000014003ba30 f i libucrtd:fflush.obj
 0001:0003aa50       ??0?$CComHeapPtr@_W@ATL@@QEAA@XZ 000000014003ba50 f i win32_crystalflask.obj
 0001:0003aa70       ??0?$CHeapPtr@_WVCComAllocator@ATL@@@ATL@@QEAA@XZ 000000014003ba70 f i win32_crystalflask.obj
 0001:0003aa70       ??0?$CComPtr@UIShellItem@@@ATL@@QEAA@XZ 000000014003ba70 f i win32_crystalflask.obj
 0001:0003aa70       ??0?$CComPtr@UIFileSaveDialog@@@ATL@@QEAA@XZ 000000014003ba70 f i win32_crystalflask.obj
 0001:0003aa70       ??0?$CComPtr@UIFileOpenDialog@@@ATL@@QEAA@XZ 000000014003ba70 f i win32_crystalflask.obj
 0001:0003aa90       ??0?$LockFreePushStack@VContextNode@SchedulerBase@details@Concurrency@@@details@Concurrency@@QEAA@XZ 000000014003ba90 f i libconcrtd:SchedulerBase.obj
 0001:0003aa90       ??0?$CComPtrBase@UIShellItem@@@ATL@@IEAA@XZ 000000014003ba90 f i win32_crystalflask.obj
 0001:0003aa90       ??0?$CComPtrBase@UIFileSaveDialog@@@ATL@@IEAA@XZ 000000014003ba90 f i win32_crystalflask.obj
 0001:0003aa90       ??0_Container_base12@std@@QEAA@XZ 000000014003ba90 f i win32_crystalflask.obj
 0001:0003aa90       ??0?$CHeapPtrBase@_WVCComAllocator@ATL@@@ATL@@IEAA@XZ 000000014003ba90 f i win32_crystalflask.obj
 0001:0003aa90       ??0?$List@UBoostedObject@details@Concurrency@@VNoCount@CollectionTypes@23@@details@Concurrency@@QEAA@XZ 000000014003ba90 f i libconcrtd:SchedulerBase.obj
 0001:0003aa90       ??0StructuredEvent@details@Concurrency@@QEAA@XZ 000000014003ba90 f i libconcrtd:TaskCollection.obj
 0001:0003aa90       ??0__crt_stdio_stream@@QEAA@XZ 000000014003ba90 f i libucrtd:stream.obj
 0001:0003aa90       ??0?$List@VWaitNode@SchedulerBase@details@Concurrency@@VNoCount@CollectionTypes@34@@details@Concurrency@@QEAA@XZ 000000014003ba90 f i libconcrtd:SchedulerBase.obj
 0001:0003aa90       ??0?$CComPtrBase@UIFileOpenDialog@@@ATL@@IEAA@XZ 000000014003ba90 f i win32_crystalflask.obj
 0001:0003aa90       ??0?$List@UListEntry@details@Concurrency@@VNoCount@CollectionTypes@23@@details@Concurrency@@QEAA@XZ 000000014003ba90 f i libconcrtd:ContextBase.obj
 0001:0003aa90       ??0__crt_deferred_errno_cache@@QEAA@XZ 000000014003ba90 f i libucrtd:output.obj
 0001:0003aab0       ??0?$ImVector@PEAD@@QEAA@XZ 000000014003bab0 f i win32_crystalflask.obj
 0001:0003aab0       ??0?$ImVector@PEBD@@QEAA@XZ 000000014003bab0 f i win32_crystalflask.obj
 0001:0003aab0       ??0?$ImVector@_W@@QEAA@XZ  000000014003bab0 f i win32_crystalflask.obj
 0001:0003aab0       ??0?$ImVector@D@@QEAA@XZ   000000014003bab0 f i win32_crystalflask.obj
 0001:0003aae0       ??0?$_Associated_state@PEAUmesh_data@@@std@@QEAA@PEAU?$_Deleter_base@PEAUmesh_data@@@1@@Z 000000014003bae0 f i win32_crystalflask.obj
 0001:0003ac60       ??0?$_Container_proxy_ptr12@V?$allocator@U_Container_proxy@std@@@std@@@std@@QEAA@AEAV?$allocator@U_Container_proxy@std@@@1@AEAU_Container_base12@1@@Z 000000014003bc60 f i win32_crystalflask.obj
 0001:0003ace0       ??0?$_Deque_unchecked_const_iterator@V?$_Deque_val@U?$_Deque_simple_types@V?$function@$$A6AXXZ@std@@@std@@@std@@@std@@QEAA@_KPEBU_Container_base12@1@@Z 000000014003bce0 f i win32_crystalflask.obj
 0001:0003ad10       ??0?$_Deque_unchecked_iterator@V?$_Deque_val@U?$_Deque_simple_types@V?$function@$$A6AXXZ@std@@@std@@@std@@@std@@QEAA@_KPEBU_Container_base12@1@@Z 000000014003bd10 f i win32_crystalflask.obj
 0001:0003ad50       ??0?$_Deque_val@U?$_Deque_simple_types@V?$function@$$A6AXXZ@std@@@std@@@std@@QEAA@XZ 000000014003bd50 f i win32_crystalflask.obj
 0001:0003adb0       ??0?$_Func_class@PEAUmesh_data@@$$V@std@@QEAA@XZ 000000014003bdb0 f i win32_crystalflask.obj
 0001:0003adb0       ??0?$_Func_class@X$$V@std@@QEAA@XZ 000000014003bdb0 f i win32_crystalflask.obj
 0001:0003add0       ??0?$_Promise@PEAUmesh_data@@@std@@QEAA@PEAV?$_Associated_state@PEAUmesh_data@@@1@@Z 000000014003bdd0 f i win32_crystalflask.obj
 0001:0003ae10       ??0?$_Ptr_base@V?$packaged_task@$$A6APEAUmesh_data@@XZ@std@@@std@@IEAA@XZ 000000014003be10 f i win32_crystalflask.obj
 0001:0003ae10       ??0?$_Ptr_base@$$CBU_EXCEPTION_RECORD@@@std@@IEAA@XZ 000000014003be10 f i libcpmtd:excptptr.obj
 0001:0003ae40       ??0?$_State_manager@PEAUmesh_data@@@std@@QEAA@$$QEAV01@_N@Z 000000014003be40 f i win32_crystalflask.obj
 0001:0003ae90       ??0?$_State_manager@PEAUmesh_data@@@std@@QEAA@AEBV01@_N@Z 000000014003be90 f i win32_crystalflask.obj
 0001:0003aee0       ??0?$_State_manager@PEAUmesh_data@@@std@@QEAA@PEAV?$_Associated_state@PEAUmesh_data@@@1@_N@Z 000000014003bee0 f i win32_crystalflask.obj
 0001:0003af10       ??0?$_String_val@U?$_Simple_types@D@std@@@std@@QEAA@XZ 000000014003bf10 f i win32_crystalflask.obj
 0001:0003af60       ??0?$_Uninitialized_backout_al@V?$allocator@Vthread@std@@@std@@@std@@QEAA@PEAVthread@1@AEAV?$allocator@Vthread@std@@@1@@Z 000000014003bf60 f i win32_crystalflask.obj
 0001:0003afa0       ??0?$_Vector_val@U?$_Simple_types@V?$future@X@std@@@std@@@std@@QEAA@XZ 000000014003bfa0 f i win32_crystalflask.obj
 0001:0003afa0       ??0?$_Vector_val@U?$_Simple_types@Vthread@std@@@std@@@std@@QEAA@XZ 000000014003bfa0 f i win32_crystalflask.obj
 0001:0003aff0       ??0?$array@UCFBinResource@CFBin@@@@QEAA@XZ 000000014003bff0 f i win32_crystalflask.obj
 0001:0003b020       ??0?$array@UCFBinResource@CFBin@@@@QEAA@_K@Z 000000014003c020 f i win32_crystalflask.obj
 0001:0003b0f0       ??0?$basic_string@DU?$char_traits@D@std@@V?$allocator@D@2@@std@@QEAA@QEBD@Z 000000014003c0f0 f i win32_crystalflask.obj
 0001:0003b180       ??0?$deque@V?$function@$$A6AXXZ@std@@V?$allocator@V?$function@$$A6AXXZ@std@@@2@@std@@QEAA@XZ 000000014003c180 f i win32_crystalflask.obj
 0001:0003b1e0       ??0?$function@$$A6AXXZ@std@@QEAA@XZ 000000014003c1e0 f i win32_crystalflask.obj
 0001:0003b200       ??0?$future@PEAUmesh_data@@@std@@QEAA@$$QEAV01@@Z 000000014003c200 f i win32_crystalflask.obj
 0001:0003b240       ??0?$future@PEAUmesh_data@@@std@@QEAA@AEBV?$_State_manager@PEAUmesh_data@@@1@U_Nil@1@@Z 000000014003c240 f i win32_crystalflask.obj
 0001:0003b270       ??0?$lock_guard@Vmutex@std@@@std@@QEAA@AEAVmutex@1@@Z 000000014003c270 f i win32_crystalflask.obj
 0001:0003b2b0       ??0?$mat@$02$02M$0A@@glm@@QEAA@AEBU?$mat@$03$03M$0A@@1@@Z 000000014003c2b0 f i win32_crystalflask.obj
 0001:0003b330       ??0?$mat@$02$02M$0A@@glm@@QEAA@M@Z 000000014003c330 f i win32_crystalflask.obj
 0001:0003b3a0       ??0?$mat@$03$03M$0A@@glm@@QEAA@AEBM@Z 000000014003c3a0 f i win32_crystalflask.obj
 0001:0003b460       ??0?$mat@$03$03M$0A@@glm@@QEAA@AEBU?$mat@$02$02M$0A@@1@@Z 000000014003c460 f i win32_crystalflask.obj
 0001:0003b500       ??0?$mat@$03$03M$0A@@glm@@QEAA@AEBU?$vec@$03M$0A@@1@000@Z 000000014003c500 f i win32_crystalflask.obj
 0001:0003b5e0       ??0?$qua@M$0A@@glm@@QEAA@AEBU?$vec@$02M$0A@@1@@Z 000000014003c5e0 f i win32_crystalflask.obj
 0001:0003b710       ??0?$qua@M$0A@@glm@@QEAA@MMMM@Z 000000014003c710 f i win32_crystalflask.obj
 0001:0003b770       ??0?$queue@V?$function@$$A6AXXZ@std@@V?$deque@V?$function@$$A6AXXZ@std@@V?$allocator@V?$function@$$A6AXXZ@std@@@2@@2@@std@@QEAA@XZ 000000014003c770 f i win32_crystalflask.obj
 0001:0003b790       ??0?$shared_ptr@$$CBU_EXCEPTION_RECORD@@@std@@QEAA@$$QEAV01@@Z 000000014003c790 f i libcpmtd:excptptr.obj
 0001:0003b790       ??0?$shared_ptr@V?$packaged_task@$$A6APEAUmesh_data@@XZ@std@@@std@@QEAA@$$QEAV01@@Z 000000014003c790 f i win32_crystalflask.obj
 0001:0003b7d0       ??0?$shared_ptr@$$CBU_EXCEPTION_RECORD@@@std@@QEAA@AEBV01@@Z 000000014003c7d0 f i libcpmtd:excptptr.obj
 0001:0003b7d0       ??0?$shared_ptr@V?$packaged_task@$$A6APEAUmesh_data@@XZ@std@@@std@@QEAA@AEBV01@@Z 000000014003c7d0 f i win32_crystalflask.obj
 0001:0003b810       ??0?$shared_ptr@$$CBU_EXCEPTION_RECORD@@@std@@QEAA@XZ 000000014003c810 f i libcpmtd:excptptr.obj
 0001:0003b810       ??0?$shared_ptr@V?$packaged_task@$$A6APEAUmesh_data@@XZ@std@@@std@@QEAA@XZ 000000014003c810 f i win32_crystalflask.obj
 0001:0003b830       ??0?$unique_lock@Vmutex@std@@@std@@QEAA@AEAVmutex@1@@Z 000000014003c830 f i win32_crystalflask.obj
 0001:0003b880       ??0?$vec@$01M$0A@@glm@@QEAA@M@Z 000000014003c880 f i win32_crystalflask.obj
 0001:0003b8b0       ??0?$vec@$01M$0A@@glm@@QEAA@MM@Z 000000014003c8b0 f i win32_crystalflask.obj
 0001:0003b8b0       ??0ImVec2@@QEAA@MM@Z       000000014003c8b0 f i win32_crystalflask.obj
 0001:0003b8f0       ??0?$vec@$01_N$0A@@glm@@QEAA@_N@Z 000000014003c8f0 f i win32_crystalflask.obj
 0001:0003b920       ??0?$vec@$02M$0A@@glm@@QEAA@MMM@Z 000000014003c920 f i win32_crystalflask.obj
 0001:0003b970       ??0?$vec@$03M$0A@@glm@@QEAA@M@Z 000000014003c970 f i win32_crystalflask.obj
 0001:0003b9c0       ??0ImVec4@@QEAA@MMMM@Z     000000014003c9c0 f i win32_crystalflask.obj
 0001:0003b9c0       ??0?$vec@$03M$0A@@glm@@QEAA@MMMM@Z 000000014003c9c0 f i win32_crystalflask.obj
 0001:0003ba20       ??0?$vector@Vthread@std@@V?$allocator@Vthread@std@@@2@@std@@QEAA@XZ 000000014003ca20 f i win32_crystalflask.obj
 0001:0003ba20       ??0?$vector@V?$future@X@std@@V?$allocator@V?$future@X@std@@@2@@std@@QEAA@XZ 000000014003ca20 f i win32_crystalflask.obj
 0001:0003ba70       ??0CFBinHeader@CFBin@@QEAA@XZ 000000014003ca70 f i win32_crystalflask.obj
 0001:0003bad0       ??0Executor@@QEAA@XZ       000000014003cad0 f i win32_crystalflask.obj
 0001:0003bb30       ??0ImGuiPlatformMonitor@@QEAA@XZ 000000014003cb30 f i win32_crystalflask.obj
 0001:0003bbf0       ??0ImGuiViewportDataWin32@@QEAA@XZ 000000014003cbf0 f i win32_crystalflask.obj
 0001:0003bc30       ??0ImVec2@@QEAA@XZ         000000014003cc30 f i win32_crystalflask.obj
 0001:0003bc60       ??0ImVec4@@QEAA@XZ         000000014003cc60 f i win32_crystalflask.obj
 0001:0003bca0       ??0ThreadPool@@QEAA@H@Z    000000014003cca0 f i win32_crystalflask.obj
 0001:0003bd50       ??0_Container_proxy@std@@QEAA@PEAU_Container_base12@1@@Z 000000014003cd50 f i win32_crystalflask.obj
 0001:0003bd50       ??0_Node@TokenRegistrationContainer@_CancellationTokenState@details@Concurrency@@QEAA@PEAV_CancellationTokenRegistration@34@@Z 000000014003cd50 f i libconcrtd:TaskCollection.obj
 0001:0003bd80       ??0_Future_error_category@std@@QEAA@XZ 000000014003cd80 f i win32_crystalflask.obj
 0001:0003bdc0       ??0_Generic_error_category@std@@QEAA@XZ 000000014003cdc0 f i win32_crystalflask.obj
 0001:0003be00       ??0_Mutex_base@std@@QEAA@H@Z 000000014003ce00 f i win32_crystalflask.obj
 0001:0003be40       ??0_Ref_count_base@std@@IEAA@XZ 000000014003ce40 f i win32_crystalflask.obj
 0001:0003be70       ??0bad_alloc@std@@AEAA@QEBD@Z 000000014003ce70 f i win32_crystalflask.obj
 0001:0003beb0       ??0bad_alloc@std@@QEAA@AEBV01@@Z 000000014003ceb0 f i win32_crystalflask.obj
 0001:0003bef0       ??0bad_array_new_length@std@@QEAA@AEBV01@@Z 000000014003cef0 f i win32_crystalflask.obj
 0001:0003bf30       ??0bad_array_new_length@std@@QEAA@XZ 000000014003cf30 f i win32_crystalflask.obj
 0001:0003bf70       ??0condition_variable@std@@QEAA@XZ 000000014003cf70 f i win32_crystalflask.obj
 0001:0003bfa0       ??0crystalflask_console@@QEAA@XZ 000000014003cfa0 f i win32_crystalflask.obj
 0001:0003c0f0       ??0error_category@std@@QEAA@XZ 000000014003d0f0 f i win32_crystalflask.obj
 0001:0003c110       ??0error_code@std@@QEAA@HAEBVerror_category@1@@Z 000000014003d110 f i win32_crystalflask.obj
 0001:0003c110       ??0error_condition@std@@QEAA@HAEBVerror_category@1@@Z 000000014003d110 f i win32_crystalflask.obj
 0001:0003c140       ??0exception@std@@QEAA@AEBV01@@Z 000000014003d140 f i win32_crystalflask.obj
 0001:0003c1a0       ??0exception@std@@QEAA@QEBD@Z 000000014003d1a0 f i win32_crystalflask.obj
 0001:0003c210       ??0exception@std@@QEAA@QEBDH@Z 000000014003d210 f i win32_crystalflask.obj
 0001:0003c260       ??0exception_ptr@std@@QEAA@AEBV01@@Z 000000014003d260 f i win32_crystalflask.obj
 0001:0003c290       ??0exception_ptr@std@@QEAA@XZ 000000014003d290 f i win32_crystalflask.obj
 0001:0003c2b0       ??0future_error@std@@QEAA@AEBV01@@Z 000000014003d2b0 f i win32_crystalflask.obj
 0001:0003c310       ??0future_error@std@@QEAA@Verror_code@1@@Z 000000014003d310 f i win32_crystalflask.obj
 0001:0003c370       ??0logic_error@std@@QEAA@AEBV01@@Z 000000014003d370 f i win32_crystalflask.obj
 0001:0003c3b0       ??0logic_error@std@@QEAA@PEBD@Z 000000014003d3b0 f i win32_crystalflask.obj
 0001:0003c3f0       ??0mutex@std@@QEAA@XZ      000000014003d3f0 f i win32_crystalflask.obj
 0001:0003c410       ??0thread@std@@QEAA@$$QEAV01@@Z 000000014003d410 f i win32_crystalflask.obj
 0001:0003c4a0       ??1?$CComHeapPtr@_W@ATL@@QEAA@XZ 000000014003d4a0 f i win32_crystalflask.obj
 0001:0003c4c0       ??1?$CComPtr@UIFileSaveDialog@@@ATL@@QEAA@XZ 000000014003d4c0 f i win32_crystalflask.obj
 0001:0003c4c0       ??1?$CComPtr@UIShellItem@@@ATL@@QEAA@XZ 000000014003d4c0 f i win32_crystalflask.obj
 0001:0003c4c0       ??1?$CComPtr@UIFileOpenDialog@@@ATL@@QEAA@XZ 000000014003d4c0 f i win32_crystalflask.obj
 0001:0003c4e0       ??1?$CComPtrBase@UIFileOpenDialog@@@ATL@@QEAA@XZ 000000014003d4e0 f i win32_crystalflask.obj
 0001:0003c4e0       ??1?$CComPtrBase@UIFileSaveDialog@@@ATL@@QEAA@XZ 000000014003d4e0 f i win32_crystalflask.obj
 0001:0003c4e0       ??1?$CComPtrBase@UIShellItem@@@ATL@@QEAA@XZ 000000014003d4e0 f i win32_crystalflask.obj
 0001:0003c510       ??1?$CHeapPtr@_WVCComAllocator@ATL@@@ATL@@QEAA@XZ 000000014003d510 f i win32_crystalflask.obj
 0001:0003c530       ??1?$CHeapPtrBase@_WVCComAllocator@ATL@@@ATL@@QEAA@XZ 000000014003d530 f i win32_crystalflask.obj
 0001:0003c550       ??1?$ImVector@D@@QEAA@XZ   000000014003d550 f i win32_crystalflask.obj
 0001:0003c550       ??1?$ImVector@UImGuiTextRange@ImGuiTextFilter@@@@QEAA@XZ 000000014003d550 f i win32_crystalflask.obj
 0001:0003c550       ??1?$ImVector@_W@@QEAA@XZ  000000014003d550 f i win32_crystalflask.obj
 0001:0003c550       ??1?$ImVector@PEAD@@QEAA@XZ 000000014003d550 f i win32_crystalflask.obj
 0001:0003c550       ??1?$ImVector@PEBD@@QEAA@XZ 000000014003d550 f i win32_crystalflask.obj
 0001:0003c580       ??1?$_Associated_state@PEAUmesh_data@@@std@@UEAA@XZ 000000014003d580 f i win32_crystalflask.obj
 0001:0003c610       ??1?$_Container_proxy_ptr12@V?$allocator@U_Container_proxy@std@@@std@@@std@@QEAA@XZ 000000014003d610 f i win32_crystalflask.obj
 0001:0003c640       ??1?$_Func_class@PEAUmesh_data@@$$V@std@@QEAA@XZ 000000014003d640 f i win32_crystalflask.obj
 0001:0003c640       ??1?$_Func_class@X$$V@std@@QEAA@XZ 000000014003d640 f i win32_crystalflask.obj
 0001:0003c680       ??1?$_Packaged_state@$$A6APEAUmesh_data@@XZ@std@@UEAA@XZ 000000014003d680 f i win32_crystalflask.obj
 0001:0003c6b0       ??1?$_Promise@PEAUmesh_data@@@std@@QEAA@XZ 000000014003d6b0 f i win32_crystalflask.obj
 0001:0003c6d0       ??1?$_Ref_count_obj2@V?$packaged_task@$$A6APEAUmesh_data@@XZ@std@@@std@@UEAA@XZ 000000014003d6d0 f i win32_crystalflask.obj
 0001:0003c700       ??1?$_State_manager@H@std@@QEAA@XZ 000000014003d700 f i win32_crystalflask.obj
 0001:0003c730       ??1?$_State_manager@PEAUmesh_data@@@std@@QEAA@XZ 000000014003d730 f i win32_crystalflask.obj
 0001:0003c760       ??1?$_Uninitialized_backout_al@V?$allocator@Vthread@std@@@std@@@std@@QEAA@XZ 000000014003d760 f i win32_crystalflask.obj
 0001:0003c790       ??1?$array@UCFBinResource@CFBin@@@@QEAA@XZ 000000014003d790 f i win32_crystalflask.obj
 0001:0003c7b0       ??1?$deque@V?$function@$$A6AXXZ@std@@V?$allocator@V?$function@$$A6AXXZ@std@@@2@@std@@QEAA@XZ 000000014003d7b0 f i win32_crystalflask.obj
 0001:0003c810       ??1?$function@$$A6APEAUmesh_data@@XZ@std@@QEAA@XZ 000000014003d810 f i win32_crystalflask.obj
 0001:0003c810       ??1?$function@$$A6AXXZ@std@@QEAA@XZ 000000014003d810 f i win32_crystalflask.obj
 0001:0003c830       ??1?$future@PEAUmesh_data@@@std@@QEAA@XZ 000000014003d830 f i win32_crystalflask.obj
 0001:0003c850       ??1?$future@X@std@@QEAA@XZ 000000014003d850 f i win32_crystalflask.obj
 0001:0003c870       ??1?$lock_guard@Vmutex@std@@@std@@QEAA@XZ 000000014003d870 f i win32_crystalflask.obj
 0001:0003c890       ??1?$packaged_task@$$A6APEAUmesh_data@@XZ@std@@QEAA@XZ 000000014003d890 f i win32_crystalflask.obj
 0001:0003c8c0       ??1?$queue@V?$function@$$A6AXXZ@std@@V?$deque@V?$function@$$A6AXXZ@std@@V?$allocator@V?$function@$$A6AXXZ@std@@@2@@2@@std@@QEAA@XZ 000000014003d8c0 f i win32_crystalflask.obj
 0001:0003c8e0       ??1?$shared_ptr@$$CBU_EXCEPTION_RECORD@@@std@@QEAA@XZ 000000014003d8e0 f i libcpmtd:excptptr.obj
 0001:0003c8e0       ??1?$shared_ptr@V?$packaged_task@$$A6APEAUmesh_data@@XZ@std@@@std@@QEAA@XZ 000000014003d8e0 f i win32_crystalflask.obj
 0001:0003c900       ??1?$unique_lock@Vmutex@std@@@std@@QEAA@XZ 000000014003d900 f i win32_crystalflask.obj
 0001:0003c930       ??1?$unique_ptr@V?$tuple@V<lambda_d1250b07d06cca55b178c66c87301ca1>@@@std@@U?$default_delete@V?$tuple@V<lambda_d1250b07d06cca55b178c66c87301ca1>@@@std@@@2@@std@@QEAA@XZ 000000014003d930 f i win32_crystalflask.obj
 0001:0003c970       ??1?$vector@V?$future@X@std@@V?$allocator@V?$future@X@std@@@2@@std@@QEAA@XZ 000000014003d970 f i win32_crystalflask.obj
 0001:0003c9e0       ??1?$vector@Vthread@std@@V?$allocator@Vthread@std@@@2@@std@@QEAA@XZ 000000014003d9e0 f i win32_crystalflask.obj
 0001:0003ca50       ??1Executor@@QEAA@XZ       000000014003da50 f i win32_crystalflask.obj
 0001:0003ca80       ??1ImGuiTextFilter@@QEAA@XZ 000000014003da80 f i win32_crystalflask.obj
 0001:0003cab0       ??1ImGuiViewportDataWin32@@QEAA@XZ 000000014003dab0 f i win32_crystalflask.obj
 0001:0003caf0       ??1ThreadPool@@QEAA@XZ     000000014003daf0 f i win32_crystalflask.obj
 0001:0003cbe0       ??1_Future_error_category@std@@UEAA@XZ 000000014003dbe0 f i win32_crystalflask.obj
 0001:0003cc00       ??1_Generic_error_category@std@@UEAA@XZ 000000014003dc00 f i win32_crystalflask.obj
 0001:0003cc20       ??1_Mutex_base@std@@QEAA@XZ 000000014003dc20 f i win32_crystalflask.obj
 0001:0003cc40       ??1invalid_operation@Concurrency@@UEAA@XZ 000000014003dc40 f i libconcrtd:ResourceManager.obj
 0001:0003cc40       ??1unsupported_os@Concurrency@@UEAA@XZ 000000014003dc40 f i libconcrtd:Exceptions.obj
 0001:0003cc40       ??1runtime_error@std@@UEAA@XZ 000000014003dc40 f i libcpmtd:xthrow.obj
 0001:0003cc40       ??1invalid_scheduler_policy_thread_specification@Concurrency@@UEAA@XZ 000000014003dc40 f i libconcrtd:Exceptions.obj
 0001:0003cc40       ??1_Interruption_exception@details@Concurrency@@UEAA@XZ 000000014003dc40 f i libconcrtd:TaskCollection.obj
 0001:0003cc40       ??1context_self_unblock@Concurrency@@UEAA@XZ 000000014003dc40 f i libconcrtd:Exceptions.obj
 0001:0003cc40       ??1improper_lock@Concurrency@@UEAA@XZ 000000014003dc40 f i libconcrtd:rtlocks.obj
 0001:0003cc40       ??1improper_scheduler_reference@Concurrency@@UEAA@XZ 000000014003dc40 f i libconcrtd:Exceptions.obj
 0001:0003cc40       ??1missing_wait@Concurrency@@UEAA@XZ 000000014003dc40 f i libconcrtd:Exceptions.obj
 0001:0003cc40       ??1logic_error@std@@UEAA@XZ 000000014003dc40 f i win32_crystalflask.obj
 0001:0003cc40       ??1bad_function_call@std@@UEAA@XZ 000000014003dc40 f i libcpmtd:xthrow.obj
 0001:0003cc40       ??1bad_alloc@std@@UEAA@XZ  000000014003dc40 f i win32_crystalflask.obj
 0001:0003cc40       ??1invalid_oversubscribe_operation@Concurrency@@UEAA@XZ 000000014003dc40 f i libconcrtd:Exceptions.obj
 0001:0003cc40       ??1scheduler_resource_allocation_error@Concurrency@@UEAA@XZ 000000014003dc40 f i libconcrtd:Platform.obj
 0001:0003cc40       ??1context_unblock_unbalanced@Concurrency@@UEAA@XZ 000000014003dc40 f i libconcrtd:Exceptions.obj
 0001:0003cc40       ??1invalid_scheduler_policy_key@Concurrency@@UEAA@XZ 000000014003dc40 f i libconcrtd:Exceptions.obj
 0001:0003cc40       ??1nested_scheduler_missing_detach@Concurrency@@UEAA@XZ 000000014003dc40 f i libconcrtd:Exceptions.obj
 0001:0003cc40       ??1improper_scheduler_attach@Concurrency@@UEAA@XZ 000000014003dc40 f i libconcrtd:Exceptions.obj
 0001:0003cc40       ??1bad_typeid@std@@UEAA@XZ 000000014003dc40 f i libvcruntimed:rtti.obj
 0001:0003cc40       ??1invalid_scheduler_policy_value@Concurrency@@UEAA@XZ 000000014003dc40 f i libconcrtd:Exceptions.obj
 0001:0003cc40       ??1bad_cast@std@@UEAA@XZ   000000014003dc40 f i libvcruntimed:rtti.obj
 0001:0003cc60       ??1length_error@std@@UEAA@XZ 000000014003dc60 f i libcpmtd:xthrow.obj
 0001:0003cc60       ??1invalid_argument@std@@UEAA@XZ 000000014003dc60 f i libcpmtd:xthrow.obj
 0001:0003cc60       ??1bad_array_new_length@std@@UEAA@XZ 000000014003dc60 f i win32_crystalflask.obj
 0001:0003cc60       ??1future_error@std@@UEAA@XZ 000000014003dc60 f i win32_crystalflask.obj
 0001:0003cc60       ??1__non_rtti_object@std@@UEAA@XZ 000000014003dc60 f i libvcruntimed:rtti.obj
 0001:0003cc60       ??1_System_error@std@@UEAA@XZ 000000014003dc60 f i libcpmtd:xonce.obj
 0001:0003cc60       ??1scheduler_worker_creation_error@Concurrency@@UEAA@XZ 000000014003dc60 f i libconcrtd:Exceptions.obj
 0001:0003cc80       ??1condition_variable@std@@QEAA@XZ 000000014003dc80 f i win32_crystalflask.obj
 0001:0003cca0       ??1crystalflask_console@@QEAA@XZ 000000014003dca0 f i win32_crystalflask.obj
 0001:0003cd50       ??1exception@std@@UEAA@XZ  000000014003dd50 f i win32_crystalflask.obj
 0001:0003cd80       ??1exception_ptr@std@@QEAA@XZ 000000014003dd80 f i win32_crystalflask.obj
 0001:0003cda0       ??1mutex@std@@QEAA@XZ      000000014003dda0 f i win32_crystalflask.obj
 0001:0003cdc0       ??1thread@std@@QEAA@XZ     000000014003ddc0 f i win32_crystalflask.obj
 0001:0003cdf0       ?ToInternalContext@VirtualProcessor@details@Concurrency@@MEAAPEAVInternalContextBase@23@PEAUIExecutionContext@3@@Z 000000014003ddf0 f i libconcrtd:VirtualProcessor.obj
 0001:0003cdf0       ??2@YAPEAX_KPEAX@Z         000000014003ddf0 f i win32_crystalflask.obj
 0001:0003ce00       ??2@YAPEAX_KUImNewDummy@@PEAX@Z 000000014003de00 f i win32_crystalflask.obj
 0001:0003ce20       ??4?$function@$$A6AXXZ@std@@QEAAAEAV01@$$QEAV01@@Z 000000014003de20 f i win32_crystalflask.obj
 0001:0003ce70       ??4exception_ptr@std@@QEAAAEAV01@AEBV01@@Z 000000014003de70 f i win32_crystalflask.obj
 0001:0003cea0       ??8error_category@std@@QEBA_NAEBV01@@Z 000000014003dea0 f i win32_crystalflask.obj
 0001:0003cee0       ??8std@@YA_NAEBVerror_condition@0@0@Z 000000014003dee0 f i win32_crystalflask.obj
 0001:0003cf60       ??A?$ImVector@PEBD@@QEAAAEAPEBDH@Z 000000014003df60 f i win32_crystalflask.obj
 0001:0003cf60       ??A?$ImVector@PEAD@@QEAAAEAPEADH@Z 000000014003df60 f i win32_crystalflask.obj
 0001:0003cfb0       ??A?$ImVector@UImDrawCmd@@@@QEBAAEBUImDrawCmd@@H@Z 000000014003dfb0 f i win32_crystalflask.obj
 0001:0003d000       ??A?$array@PEAE$05@std@@QEAAAEAPEAE_K@Z 000000014003e000 f i win32_crystalflask.obj
 0001:0003d0a0       ??A?$array@UCFBinResource@CFBin@@@@QEAAAEAUCFBinResource@CFBin@@_K@Z 000000014003e0a0 f i win32_crystalflask.obj
 0001:0003d0c0       ??A?$mat@$02$02M$0A@@glm@@QEAAAEAU?$vec@$02M$0A@@1@H@Z 000000014003e0c0 f i win32_crystalflask.obj
 0001:0003d110       ??A?$mat@$02$02M$0A@@glm@@QEBAAEBU?$vec@$02M$0A@@1@H@Z 000000014003e110 f i win32_crystalflask.obj
 0001:0003d160       ??A?$mat@$03$03M$0A@@glm@@QEAAAEAU?$vec@$03M$0A@@1@H@Z 000000014003e160 f i win32_crystalflask.obj
 0001:0003d1b0       ??A?$mat@$03$03M$0A@@glm@@QEBAAEBU?$vec@$03M$0A@@1@H@Z 000000014003e1b0 f i win32_crystalflask.obj
 0001:0003d200       ??A?$vec@$01M$0A@@glm@@QEAAAEAMH@Z 000000014003e200 f i win32_crystalflask.obj
 0001:0003d260       ??A?$vec@$01M$0A@@glm@@QEBAAEBMH@Z 000000014003e260 f i win32_crystalflask.obj
 0001:0003d2c0       ??A?$vec@$01_N$0A@@glm@@QEAAAEA_NH@Z 000000014003e2c0 f i win32_crystalflask.obj
 0001:0003d320       ??A?$vec@$01_N$0A@@glm@@QEBAAEB_NH@Z 000000014003e320 f i win32_crystalflask.obj
 0001:0003d380       ??A?$vec@$02M$0A@@glm@@QEAAAEAMH@Z 000000014003e380 f i win32_crystalflask.obj
 0001:0003d3f0       ??A?$vec@$02M$0A@@glm@@QEBAAEBMH@Z 000000014003e3f0 f i win32_crystalflask.obj
 0001:0003d460       ??A?$vec@$03M$0A@@glm@@QEAAAEAMH@Z 000000014003e460 f i win32_crystalflask.obj
 0001:0003d4f0       ??A?$vec@$03M$0A@@glm@@QEBAAEBMH@Z 000000014003e4f0 f i win32_crystalflask.obj
 0001:0003d580       ??AImVec2@@QEAAAEAM_K@Z    000000014003e580 f i win32_crystalflask.obj
 0001:0003d5d0       ??Bexception_ptr@std@@QEBA_NXZ 000000014003e5d0 f i win32_crystalflask.obj
 0001:0003d5f0       ??C?$CComPtrBase@UIFileSaveDialog@@@ATL@@QEBAPEAV?$_NoAddRefReleaseOnCComPtr@UIFileSaveDialog@@@1@XZ 000000014003e5f0 f i win32_crystalflask.obj
 0001:0003d5f0       ??C?$CComPtrBase@UIShellItem@@@ATL@@QEBAPEAV?$_NoAddRefReleaseOnCComPtr@UIShellItem@@@1@XZ 000000014003e5f0 f i win32_crystalflask.obj
 0001:0003d5f0       ??C?$CComPtrBase@UIFileOpenDialog@@@ATL@@QEBAPEAV?$_NoAddRefReleaseOnCComPtr@UIFileOpenDialog@@@1@XZ 000000014003e5f0 f i win32_crystalflask.obj
 0001:0003d650       ??D?$_Deque_unchecked_const_iterator@V?$_Deque_val@U?$_Deque_simple_types@V?$function@$$A6AXXZ@std@@@std@@@std@@@std@@QEBAAEBV?$function@$$A6AXXZ@1@XZ 000000014003e650 f i win32_crystalflask.obj
 0001:0003d6a0       ??D?$_Deque_unchecked_iterator@V?$_Deque_val@U?$_Deque_simple_types@V?$function@$$A6AXXZ@std@@@std@@@std@@@std@@QEBAAEAV?$function@$$A6AXXZ@1@XZ 000000014003e6a0 f i win32_crystalflask.obj
 0001:0003d6c0       ??I?$CComPtrBase@UIShellItem@@@ATL@@QEAAPEAPEAUIShellItem@@XZ 000000014003e6c0 f i win32_crystalflask.obj
 0001:0003d720       ??I?$CHeapPtrBase@_WVCComAllocator@ATL@@@ATL@@QEAAPEAPEA_WXZ 000000014003e720 f i win32_crystalflask.obj
 0001:0003d7b0       ??R<lambda_069cbd8a687ea442122c3e37bf0152c0>@@QEBA_NXZ 000000014003e7b0 f i win32_crystalflask.obj
 0001:0003d880       ??R<lambda_66f57f934f28d61049862f64df852ff0>@@QEBAXQEAD_KQEBD@Z 000000014003e880 f i win32_crystalflask.obj
 0001:0003d8e0       ??R<lambda_d1250b07d06cca55b178c66c87301ca1>@@QEBAXXZ 000000014003e8e0 f i win32_crystalflask.obj
 0001:0003da30       ??R?$_Func_class@X$$V@std@@QEBAXXZ 000000014003ea30 f i win32_crystalflask.obj
 0001:0003da30       ??R?$_Func_class@PEAUmesh_data@@$$V@std@@QEBAPEAUmesh_data@@XZ 000000014003ea30 f i win32_crystalflask.obj
 0001:0003da80       ??R?$default_delete@V?$tuple@V<lambda_d1250b07d06cca55b178c66c87301ca1>@@@std@@@std@@QEBAXPEAV?$tuple@V<lambda_d1250b07d06cca55b178c66c87301ca1>@@@1@@Z 000000014003ea80 f i win32_crystalflask.obj
 0001:0003dab0       ??R?$packaged_task@$$A6APEAUmesh_data@@XZ@std@@QEAAXXZ 000000014003eab0 f i win32_crystalflask.obj
 0001:0003db20       ??_E?$_Associated_state@PEAUmesh_data@@@std@@UEAAPEAXI@Z 000000014003eb20 f i win32_crystalflask.obj
 0001:0003db20       ??_G?$_Associated_state@PEAUmesh_data@@@std@@UEAAPEAXI@Z 000000014003eb20 f i win32_crystalflask.obj
 0001:0003dba0       ??_G?$_Packaged_state@$$A6APEAUmesh_data@@XZ@std@@UEAAPEAXI@Z 000000014003eba0 f i win32_crystalflask.obj
 0001:0003dba0       ??_E?$_Packaged_state@$$A6APEAUmesh_data@@XZ@std@@UEAAPEAXI@Z 000000014003eba0 f i win32_crystalflask.obj
 0001:0003dbe0       ??_E?$_Ref_count_obj2@V?$packaged_task@$$A6APEAUmesh_data@@XZ@std@@@std@@UEAAPEAXI@Z 000000014003ebe0 f i win32_crystalflask.obj
 0001:0003dbe0       ??_G?$_Ref_count_obj2@V?$packaged_task@$$A6APEAUmesh_data@@XZ@std@@@std@@UEAAPEAXI@Z 000000014003ebe0 f i win32_crystalflask.obj
 0001:0003dc20       ??_G?$function@$$A6AXXZ@std@@QEAAPEAXI@Z 000000014003ec20 f i win32_crystalflask.obj
 0001:0003dc60       ??_G?$future@X@std@@QEAAPEAXI@Z 000000014003ec60 f i win32_crystalflask.obj
 0001:0003dca0       ??_G?$packaged_task@$$A6APEAUmesh_data@@XZ@std@@QEAAPEAXI@Z 000000014003eca0 f i win32_crystalflask.obj
 0001:0003dce0       ??_GImGuiViewportDataWin32@@QEAAPEAXI@Z 000000014003ece0 f i win32_crystalflask.obj
 0001:0003dd20       ??_E_Future_error_category@std@@UEAAPEAXI@Z 000000014003ed20 f i win32_crystalflask.obj
 0001:0003dd20       ??_G_Future_error_category@std@@UEAAPEAXI@Z 000000014003ed20 f i win32_crystalflask.obj
 0001:0003dd60       ??_E_Generic_error_category@std@@UEAAPEAXI@Z 000000014003ed60 f i win32_crystalflask.obj
 0001:0003dd60       ??_G_Generic_error_category@std@@UEAAPEAXI@Z 000000014003ed60 f i win32_crystalflask.obj
 0001:0003dda0       ??_Ginvalid_scheduler_policy_key@Concurrency@@UEAAPEAXI@Z 000000014003eda0 f i libconcrtd:Exceptions.obj
 0001:0003dda0       ??_Gcontext_unblock_unbalanced@Concurrency@@UEAAPEAXI@Z 000000014003eda0 f i libconcrtd:Exceptions.obj
 0001:0003dda0       ??_Ginvalid_scheduler_policy_thread_specification@Concurrency@@UEAAPEAXI@Z 000000014003eda0 f i libconcrtd:Exceptions.obj
 0001:0003dda0       ??_Gruntime_error@std@@UEAAPEAXI@Z 000000014003eda0 f i libcpmtd:xthrow.obj
 0001:0003dda0       ??_Gbad_typeid@std@@UEAAPEAXI@Z 000000014003eda0 f i libvcruntimed:rtti.obj
 0001:0003dda0       ??_Emissing_wait@Concurrency@@UEAAPEAXI@Z 000000014003eda0 f i libconcrtd:Exceptions.obj
 0001:0003dda0       ??_Gbad_alloc@std@@UEAAPEAXI@Z 000000014003eda0 f i win32_crystalflask.obj
 0001:0003dda0       ??_Elogic_error@std@@UEAAPEAXI@Z 000000014003eda0 f i win32_crystalflask.obj
 0001:0003dda0       ??_Econtext_unblock_unbalanced@Concurrency@@UEAAPEAXI@Z 000000014003eda0 f i libconcrtd:Exceptions.obj
 0001:0003dda0       ??_Gimproper_lock@Concurrency@@UEAAPEAXI@Z 000000014003eda0 f i libconcrtd:rtlocks.obj
 0001:0003dda0       ??_Ebad_function_call@std@@UEAAPEAXI@Z 000000014003eda0 f i libcpmtd:xthrow.obj
 0001:0003dda0       ??_Gbad_function_call@std@@UEAAPEAXI@Z 000000014003eda0 f i libcpmtd:xthrow.obj
 0001:0003dda0       ??_Gimproper_scheduler_reference@Concurrency@@UEAAPEAXI@Z 000000014003eda0 f i libconcrtd:Exceptions.obj
 0001:0003dda0       ??_Ebad_typeid@std@@UEAAPEAXI@Z 000000014003eda0 f i libvcruntimed:rtti.obj
 0001:0003dda0       ??_Ginvalid_operation@Concurrency@@UEAAPEAXI@Z 000000014003eda0 f i libconcrtd:ResourceManager.obj
 0001:0003dda0       ??_Econtext_self_unblock@Concurrency@@UEAAPEAXI@Z 000000014003eda0 f i libconcrtd:Exceptions.obj
 0001:0003dda0       ??_Enested_scheduler_missing_detach@Concurrency@@UEAAPEAXI@Z 000000014003eda0 f i libconcrtd:Exceptions.obj
 0001:0003dda0       ??_Gunsupported_os@Concurrency@@UEAAPEAXI@Z 000000014003eda0 f i libconcrtd:Exceptions.obj
 0001:0003dda0       ??_Ginvalid_oversubscribe_operation@Concurrency@@UEAAPEAXI@Z 000000014003eda0 f i libconcrtd:Exceptions.obj
 0001:0003dda0       ??_Einvalid_scheduler_policy_value@Concurrency@@UEAAPEAXI@Z 000000014003eda0 f i libconcrtd:Exceptions.obj
 0001:0003dda0       ??_E_Interruption_exception@details@Concurrency@@UEAAPEAXI@Z 000000014003eda0 f i libconcrtd:TaskCollection.obj
 0001:0003dda0       ??_Ginvalid_scheduler_policy_value@Concurrency@@UEAAPEAXI@Z 000000014003eda0 f i libconcrtd:Exceptions.obj
 0001:0003dda0       ??_Gcontext_self_unblock@Concurrency@@UEAAPEAXI@Z 000000014003eda0 f i libconcrtd:Exceptions.obj
 0001:0003dda0       ??_Einvalid_scheduler_policy_key@Concurrency@@UEAAPEAXI@Z 000000014003eda0 f i libconcrtd:Exceptions.obj
 0001:0003dda0       ??_Gbad_cast@std@@UEAAPEAXI@Z 000000014003eda0 f i libvcruntimed:rtti.obj
 0001:0003dda0       ??_Gnested_scheduler_missing_detach@Concurrency@@UEAAPEAXI@Z 000000014003eda0 f i libconcrtd:Exceptions.obj
 0001:0003dda0       ??_Ebad_cast@std@@UEAAPEAXI@Z 000000014003eda0 f i libvcruntimed:rtti.obj
 0001:0003dda0       ??_Eimproper_scheduler_attach@Concurrency@@UEAAPEAXI@Z 000000014003eda0 f i libconcrtd:Exceptions.obj
 0001:0003dda0       ??_G_Interruption_exception@details@Concurrency@@UEAAPEAXI@Z 000000014003eda0 f i libconcrtd:TaskCollection.obj
 0001:0003dda0       ??_Eunsupported_os@Concurrency@@UEAAPEAXI@Z 000000014003eda0 f i libconcrtd:Exceptions.obj
 0001:0003dda0       ??_Eimproper_lock@Concurrency@@UEAAPEAXI@Z 000000014003eda0 f i libconcrtd:rtlocks.obj
 0001:0003dda0       ??_Einvalid_operation@Concurrency@@UEAAPEAXI@Z 000000014003eda0 f i libconcrtd:ResourceManager.obj
 0001:0003dda0       ??_Eruntime_error@std@@UEAAPEAXI@Z 000000014003eda0 f i libcpmtd:xthrow.obj
 0001:0003dda0       ??_Einvalid_scheduler_policy_thread_specification@Concurrency@@UEAAPEAXI@Z 000000014003eda0 f i libconcrtd:Exceptions.obj
 0001:0003dda0       ??_Glogic_error@std@@UEAAPEAXI@Z 000000014003eda0 f i win32_crystalflask.obj
 0001:0003dda0       ??_Gmissing_wait@Concurrency@@UEAAPEAXI@Z 000000014003eda0 f i libconcrtd:Exceptions.obj
 0001:0003dda0       ??_Ebad_alloc@std@@UEAAPEAXI@Z 000000014003eda0 f i win32_crystalflask.obj
 0001:0003dda0       ??_Eimproper_scheduler_reference@Concurrency@@UEAAPEAXI@Z 000000014003eda0 f i libconcrtd:Exceptions.obj
 0001:0003dda0       ??_Einvalid_oversubscribe_operation@Concurrency@@UEAAPEAXI@Z 000000014003eda0 f i libconcrtd:Exceptions.obj
 0001:0003dda0       ??_Gimproper_scheduler_attach@Concurrency@@UEAAPEAXI@Z 000000014003eda0 f i libconcrtd:Exceptions.obj
 0001:0003dde0       ??_Ebad_array_new_length@std@@UEAAPEAXI@Z 000000014003ede0 f i win32_crystalflask.obj
 0001:0003dde0       ??_G__non_rtti_object@std@@UEAAPEAXI@Z 000000014003ede0 f i libvcruntimed:rtti.obj
 0001:0003dde0       ??_Elength_error@std@@UEAAPEAXI@Z 000000014003ede0 f i libcpmtd:xthrow.obj
 0001:0003dde0       ??_Einvalid_argument@std@@UEAAPEAXI@Z 000000014003ede0 f i libcpmtd:xthrow.obj
 0001:0003dde0       ??_E__non_rtti_object@std@@UEAAPEAXI@Z 000000014003ede0 f i libvcruntimed:rtti.obj
 0001:0003dde0       ??_Glength_error@std@@UEAAPEAXI@Z 000000014003ede0 f i libcpmtd:xthrow.obj
 0001:0003dde0       ??_Gbad_array_new_length@std@@UEAAPEAXI@Z 000000014003ede0 f i win32_crystalflask.obj
 0001:0003dde0       ??_Ginvalid_argument@std@@UEAAPEAXI@Z 000000014003ede0 f i libcpmtd:xthrow.obj
 0001:0003de20       ??_Gexception@std@@UEAAPEAXI@Z 000000014003ee20 f i win32_crystalflask.obj
 0001:0003de20       ??_Eexception@std@@UEAAPEAXI@Z 000000014003ee20 f i win32_crystalflask.obj
 0001:0003de60       ??_Gfuture_error@std@@UEAAPEAXI@Z 000000014003ee60 f i win32_crystalflask.obj
 0001:0003de60       ??_Efuture_error@std@@UEAAPEAXI@Z 000000014003ee60 f i win32_crystalflask.obj
 0001:0003de60       ??_E_System_error@std@@UEAAPEAXI@Z 000000014003ee60 f i libcpmtd:xonce.obj
 0001:0003de60       ??_G_System_error@std@@UEAAPEAXI@Z 000000014003ee60 f i libcpmtd:xonce.obj
 0001:0003dea0       ??_Gthread@std@@QEAAPEAXI@Z 000000014003eea0 f i win32_crystalflask.obj
 0001:0003dee0       ??_H@YAXPEAX_K1P6APEAX0@Z@Z 000000014003eee0 f i win32_crystalflask.obj
 0001:0003df40       ??_I@YAXPEAX_K1P6AX0@Z@Z   000000014003ef40 f i win32_crystalflask.obj
 0001:0003dfc0       ?AddLog@crystalflask_console@@QEAAXPEBDZZ 000000014003efc0 f i win32_crystalflask.obj
 0001:0003e090       ?ClearFlags@ImGuiNextItemData@@QEAAXXZ 000000014003f090 f i win32_crystalflask.obj
 0001:0003e090       ?Reset@SafePointMarker@details@Concurrency@@QEAAXXZ 000000014003f090 f i libconcrtd:VirtualProcessor.obj
 0001:0003e0b0       ?ClearLog@crystalflask_console@@QEAAXXZ 000000014003f0b0 f i win32_crystalflask.obj
 0001:0003e120       ?CoCreateInstance@?$CComPtrBase@UIFileOpenDialog@@@ATL@@QEAAJAEBU_GUID@@PEAUIUnknown@@K@Z 000000014003f120 f i win32_crystalflask.obj
 0001:0003e1b0       ?CoCreateInstance@?$CComPtrBase@UIFileSaveDialog@@@ATL@@QEAAJAEBU_GUID@@PEAUIUnknown@@K@Z 000000014003f1b0 f i win32_crystalflask.obj
 0001:0003e240       ?Draw@crystalflask_console@@QEAAXPEBDPEA_N@Z 000000014003f240 f i win32_crystalflask.obj
 0001:0003e9c0       ?Free@?$CHeapPtrBase@_WVCComAllocator@ATL@@@ATL@@QEAAXXZ 000000014003f9c0 f i win32_crystalflask.obj
 0001:0003e9f0       ?Free@CComAllocator@ATL@@SAXPEAX@Z 000000014003f9f0 f i win32_crystalflask.obj
 0001:0003ea10       ?GetCurrentWindow@ImGui@@YAPEAUImGuiWindow@@XZ 000000014003fa10 f i win32_crystalflask.obj
 0001:0003ea50       ?GetWorkPos@ImGuiViewport@@QEAA?AUImVec2@@XZ 000000014003fa50 f i win32_crystalflask.obj
 0001:0003eaa0       ?GetWorkSize@ImGuiViewport@@QEAA?AUImVec2@@XZ 000000014003faa0 f i win32_crystalflask.obj
 0001:0003eb10       ?HasMeshes@aiScene@@QEBA_NXZ 000000014003fb10 f i win32_crystalflask.obj
 0001:0003eb50       ?HasNormals@aiMesh@@QEBA_NXZ 000000014003fb50 f i win32_crystalflask.obj
 0001:0003eb90       ?HasTangentsAndBitangents@aiMesh@@QEBA_NXZ 000000014003fb90 f i win32_crystalflask.obj
 0001:0003ebe0       ?HasTextureCoords@aiMesh@@QEBA_NI@Z 000000014003fbe0 f i win32_crystalflask.obj
 0001:0003ec30       ?IsBuilt@ImFontAtlas@@QEBA_NXZ 000000014003fc30 f i win32_crystalflask.obj
 0001:0003ec80       ?NumThreads@ThreadPool@@QEBA_KXZ 000000014003fc80 f i win32_crystalflask.obj
 0001:0003eca0       ?Pop@?$array@PEAUentity@@@@QEAAAEAPEAUentity@@XZ 000000014003fca0 f i win32_crystalflask.obj
 0001:0003ed30       ?Push@?$array@PEAUentity@@@@QEAAXPEAUentity@@@Z 000000014003fd30 f i win32_crystalflask.obj
 0001:0003ee30       ?Push@?$array@UCFBinResource@CFBin@@@@QEAAXUCFBinResource@CFBin@@@Z 000000014003fe30 f i win32_crystalflask.obj
 0001:0003ef40       ?Strdup@crystalflask_console@@SAPEADPEBD@Z 000000014003ff40 f i win32_crystalflask.obj
 0001:0003efd0       ?Stricmp@crystalflask_console@@SAHPEBD0@Z 000000014003ffd0 f i win32_crystalflask.obj
 0001:0003f050       ?Strnicmp@crystalflask_console@@SAHPEBD0H@Z 0000000140040050 f i win32_crystalflask.obj
 0001:0003f0e0       ?Strtrim@crystalflask_console@@SAXPEAD@Z 00000001400400e0 f i win32_crystalflask.obj
 0001:0003f160       ?TextEditCallback@crystalflask_console@@QEAAHPEAUImGuiInputTextCallbackData@@@Z 0000000140040160 f i win32_crystalflask.obj
 0001:0003f700       ?TextEditCallbackStub@crystalflask_console@@SAHPEAUImGuiInputTextCallbackData@@@Z 0000000140040700 f i win32_crystalflask.obj
 0001:0003f730       ?Win32GetLastWriteTime@@YA?AU_FILETIME@@PEAD@Z 0000000140040730 f i win32_crystalflask.obj
 0001:0003f7a0       ?Win32GetSecondsElapsed@@YAMT_LARGE_INTEGER@@0@Z 00000001400407a0 f i win32_crystalflask.obj
 0001:0003f7e0       ?Win32GetWallClock@@YA?AT_LARGE_INTEGER@@XZ 00000001400407e0 f i win32_crystalflask.obj
 0001:0003f800       ?ZeroOut@?$array@UCFBinResource@CFBin@@@@QEAAXXZ 0000000140040800 f i win32_crystalflask.obj
 0001:0003f8e0       ?_Abandon@?$_Associated_state@PEAUmesh_data@@@std@@QEAAXXZ 00000001400408e0 f i win32_crystalflask.obj
 0001:0003f9c0       ?_Abandon@?$_State_manager@PEAUmesh_data@@@std@@QEAAXXZ 00000001400409c0 f i win32_crystalflask.obj
 0001:0003f9f0       ?_Adjust_manually_vector_aligned@std@@YAXAEAPEAXAEA_K@Z 00000001400409f0 f i win32_crystalflask.obj
 0001:0003fb80       ?_Allocate@_Default_allocate_traits@std@@SAPEAX_K@Z 0000000140040b80 f i win32_crystalflask.obj
 0001:0003fb80       ??_U@YAPEAX_K@Z            0000000140040b80 f i LIBCMTD:new_array.obj
 0001:0003fba0       ?_Already_retrieved@?$_Associated_state@PEAUmesh_data@@@std@@QEBA_NXZ 0000000140040ba0 f i win32_crystalflask.obj
 0001:0003fbc0       ?_AtlInitializeCriticalSectionEx@ATL@@YAHPEAU_RTL_CRITICAL_SECTION@@KK@Z 0000000140040bc0 f i win32_crystalflask.obj
 0001:0003fbf0       ?_Calculate_growth@?$basic_string@DU?$char_traits@D@std@@V?$allocator@D@2@@std@@AEBA_K_K@Z 0000000140040bf0 f i win32_crystalflask.obj
 0001:0003fc30       ?_Calculate_growth@?$basic_string@DU?$char_traits@D@std@@V?$allocator@D@2@@std@@CA_K_K00@Z 0000000140040c30 f i win32_crystalflask.obj
 0001:0003fcd0       ?_Calculate_growth@?$vector@Vthread@std@@V?$allocator@Vthread@std@@@2@@std@@AEBA_K_K@Z 0000000140040cd0 f i win32_crystalflask.obj
 0001:0003fd60       ?_Call_immediate@?$_Packaged_state@$$A6APEAUmesh_data@@XZ@std@@QEAAXXZ 0000000140040d60 f i win32_crystalflask.obj
 0001:0003fda0       ?_Change_array@?$vector@Vthread@std@@V?$allocator@Vthread@std@@@2@@std@@AEAAXQEAVthread@2@_K1@Z 0000000140040da0 f i win32_crystalflask.obj
 0001:0003fea0       ?_Check_C_return@std@@YAHH@Z 0000000140040ea0 f i win32_crystalflask.obj
 0001:0003ff50       ?_Copy_exception@exception_ptr@std@@SA?AV12@PEAXPEBX@Z 0000000140040f50 f i win32_crystalflask.obj
 0001:0003ffd0       ?_Copy_from@?$_State_manager@PEAUmesh_data@@@std@@QEAAXAEBV12@@Z 0000000140040fd0 f i win32_crystalflask.obj
 0001:00040060       ?_Current_exception@exception_ptr@std@@SA?AV12@XZ 0000000140041060 f i win32_crystalflask.obj
 0001:000400a0       ?_Decref@?$_Ptr_base@$$CBU_EXCEPTION_RECORD@@@std@@IEAAXXZ 00000001400410a0 f i libcpmtd:excptptr.obj
 0001:000400a0       ?_Decref@?$_Ptr_base@V?$packaged_task@$$A6APEAUmesh_data@@XZ@std@@@std@@IEAAXXZ 00000001400410a0 f i win32_crystalflask.obj
 0001:000400d0       ?_Decref@_Ref_count_base@std@@QEAAXXZ 00000001400410d0 f i win32_crystalflask.obj
 0001:00040120       ?_Decwref@_Ref_count_base@std@@QEAAXXZ 0000000140041120 f i win32_crystalflask.obj
 0001:00040160       ?_Delete_this@?$_Associated_state@H@std@@AEAAXXZ 0000000140041160 f i win32_crystalflask.obj
 0001:000401e0       ?_Delete_this@?$_Associated_state@PEAUmesh_data@@@std@@AEAAXXZ 00000001400411e0 f i win32_crystalflask.obj
 0001:000402d0       ?_Delete_this@?$_Ref_count_obj2@V?$packaged_task@$$A6APEAUmesh_data@@XZ@std@@@std@@EEAAXXZ 00000001400412d0 f i win32_crystalflask.obj
 0001:00040320       ?_Destroy@?$_Ref_count_obj2@V?$packaged_task@$$A6APEAUmesh_data@@XZ@std@@@std@@EEAAXXZ 0000000140041320 f i win32_crystalflask.obj
 0001:00040340       ?_Destroy@?$vector@V?$future@X@std@@V?$allocator@V?$future@X@std@@@2@@std@@AEAAXPEAV?$future@X@2@0@Z 0000000140041340 f i win32_crystalflask.obj
 0001:00040380       ?_Destroy@?$vector@Vthread@std@@V?$allocator@Vthread@std@@@2@@std@@AEAAXPEAVthread@2@0@Z 0000000140041380 f i win32_crystalflask.obj
 0001:00040400       ?_Do_notify@?$_Associated_state@PEAUmesh_data@@@std@@EEAAXPEAV?$unique_lock@Vmutex@std@@@2@_N@Z 0000000140041400 f i win32_crystalflask.obj
 0001:00040470       ?_Empty@?$_Func_class@X$$V@std@@IEBA_NXZ 0000000140041470 f i win32_crystalflask.obj
 0001:00040470       ?_Empty@?$_Func_class@PEAUmesh_data@@$$V@std@@IEBA_NXZ 0000000140041470 f i win32_crystalflask.obj
 0001:000404b0       ?_Future_error_map@std@@YAPEBDH@Z 00000001400414b0 f i win32_crystalflask.obj
 0001:00040530       ?_Get_deleter@_Ref_count_base@std@@UEBAPEAXAEBVtype_info@@@Z 0000000140041530 f i win32_crystalflask.obj
 0001:00040540       ?_Get_state_for_future@?$_Promise@PEAUmesh_data@@@std@@QEAAAEAV?$_State_manager@PEAUmesh_data@@@2@XZ 0000000140041540 f i win32_crystalflask.obj
 0001:000405b0       ?_Get_state_for_set@?$_Promise@PEAUmesh_data@@@std@@QEAAAEAV?$_State_manager@PEAUmesh_data@@@2@XZ 00000001400415b0 f i win32_crystalflask.obj
 0001:000405f0       ?_Get_value@?$_Associated_state@PEAUmesh_data@@@std@@UEAAAEAPEAUmesh_data@@_N@Z 00000001400415f0 f i win32_crystalflask.obj
 0001:00040750       ?_Get_value@?$_State_manager@PEAUmesh_data@@@std@@QEBAAEAPEAUmesh_data@@XZ 0000000140041750 f i win32_crystalflask.obj
 0001:000407b0       ?_Getal@?$vector@Vthread@std@@V?$allocator@Vthread@std@@@2@@std@@AEBAAEBV?$allocator@Vthread@std@@@2@XZ 00000001400417b0 f i win32_crystalflask.obj
 0001:000407b0       ?_Getal@?$vector@Vthread@std@@V?$allocator@Vthread@std@@@2@@std@@AEAAAEAV?$allocator@Vthread@std@@@2@XZ 00000001400417b0 f i win32_crystalflask.obj
 0001:000407b0       ?_Getal@?$deque@V?$function@$$A6AXXZ@std@@V?$allocator@V?$function@$$A6AXXZ@std@@@2@@std@@AEAAAEAV?$allocator@V?$function@$$A6AXXZ@std@@@2@XZ 00000001400417b0 f i win32_crystalflask.obj
 0001:000407b0       ?_Getal@?$vector@V?$future@X@std@@V?$allocator@V?$future@X@std@@@2@@std@@AEAAAEAV?$allocator@V?$future@X@std@@@2@XZ 00000001400417b0 f i win32_crystalflask.obj
 0001:000407b0       ?_Getal@?$basic_string@DU?$char_traits@D@std@@V?$allocator@D@2@@std@@AEBAAEBV?$allocator@D@2@XZ 00000001400417b0 f i win32_crystalflask.obj
 0001:000407b0       ?_Getal@?$basic_string@DU?$char_traits@D@std@@V?$allocator@D@2@@std@@AEAAAEAV?$allocator@D@2@XZ 00000001400417b0 f i win32_crystalflask.obj
 0001:000407b0       ?_Getal@?$deque@V?$function@$$A6AXXZ@std@@V?$allocator@V?$function@$$A6AXXZ@std@@@2@@std@@AEBAAEBV?$allocator@V?$function@$$A6AXXZ@std@@@2@XZ 00000001400417b0 f i win32_crystalflask.obj
 0001:000407b0       ?get_deleter@?$unique_ptr@V?$tuple@V<lambda_d1250b07d06cca55b178c66c87301ca1>@@@std@@U?$default_delete@V?$tuple@V<lambda_d1250b07d06cca55b178c66c87301ca1>@@@std@@@2@@std@@QEAAAEAU?$default_delete@V?$tuple@V<lambda_d1250b07d06cca55b178c66c87301ca1>@@@std@@@2@XZ 00000001400417b0 f i win32_crystalflask.obj
 0001:000407d0       ?_Getblock@?$_Deque_val@U?$_Deque_simple_types@V?$function@$$A6AXXZ@std@@@std@@@std@@QEBA_K_K@Z 00000001400417d0 f i win32_crystalflask.obj
 0001:00040800       ?_Getblock@?$deque@V?$function@$$A6AXXZ@std@@V?$allocator@V?$function@$$A6AXXZ@std@@@2@@std@@AEBA_K_K@Z 0000000140041800 f i win32_crystalflask.obj
 0001:00040830       ?_Getimpl@?$_Func_class@X$$V@std@@AEBAPEAV?$_Func_base@X$$V@2@XZ 0000000140041830 f i win32_crystalflask.obj
 0001:00040830       ?_Getimpl@?$_Func_class@PEAUmesh_data@@$$V@std@@AEBAPEAV?$_Func_base@PEAUmesh_data@@$$V@2@XZ 0000000140041830 f i win32_crystalflask.obj
 0001:00040850       ?_Growmap@?$deque@V?$function@$$A6AXXZ@std@@V?$allocator@V?$function@$$A6AXXZ@std@@@2@@std@@AEAAX_K@Z 0000000140041850 f i win32_crystalflask.obj
 0001:00040c30       ?should_skip_normal_state_processing@?$standard_base@_WV?$string_output_adapter@_W@__crt_stdio_output@@@__crt_stdio_output@@IEAA_NXZ 0000000140041c30 f i libucrtd:output.obj
 0001:00040c30       ?IsUMSScheduler@SchedulerBase@details@Concurrency@@QEBA_NXZ 0000000140041c30 f i libconcrtd:ContextBase.obj
 0001:00040c30       ?_Has_deferred_function@?$_Associated_state@PEAUmesh_data@@@std@@EEBA_NXZ 0000000140041c30 f i win32_crystalflask.obj
 0001:00040c30       ?should_skip_type_state_output@?$standard_base@_WV?$string_output_adapter@_W@__crt_stdio_output@@@__crt_stdio_output@@IEBA_NXZ 0000000140041c30 f i libucrtd:output.obj
 0001:00040c30       ?should_skip_type_state_output@?$standard_base@DV?$stream_output_adapter@D@__crt_stdio_output@@@__crt_stdio_output@@IEBA_NXZ 0000000140041c30 f i libucrtd:output.obj
 0001:00040c30       ?should_skip_normal_state_processing@?$standard_base@DV?$string_output_adapter@D@__crt_stdio_output@@@__crt_stdio_output@@IEAA_NXZ 0000000140041c30 f i libucrtd:output.obj
 0001:00040c30       ?should_skip_normal_state_processing@?$standard_base@_WV?$stream_output_adapter@_W@__crt_stdio_output@@@__crt_stdio_output@@IEAA_NXZ 0000000140041c30 f i libucrtd:output.obj
 0001:00040c30       ?should_skip_type_state_output@?$standard_base@_WV?$stream_output_adapter@_W@__crt_stdio_output@@@__crt_stdio_output@@IEBA_NXZ 0000000140041c30 f i libucrtd:output.obj
 0001:00040c30       ?should_skip_normal_state_processing@?$standard_base@DV?$stream_output_adapter@D@__crt_stdio_output@@@__crt_stdio_output@@IEAA_NXZ 0000000140041c30 f i libucrtd:output.obj
 0001:00040c30       ?should_skip_type_state_output@?$standard_base@DV?$string_output_adapter@D@__crt_stdio_output@@@__crt_stdio_output@@IEBA_NXZ 0000000140041c30 f i libucrtd:output.obj
 0001:00040c40       ?_Retain@?$_Associated_state@PEAUmesh_data@@@std@@QEAAXXZ 0000000140041c40 f i win32_crystalflask.obj
 0001:00040c40       ?_Incref@_Ref_count_base@std@@QEAAXXZ 0000000140041c40 f i win32_crystalflask.obj
 0001:00040c60       ?_Is_ready@?$_Associated_state@PEAUmesh_data@@@std@@QEBA_NXZ 0000000140041c60 f i win32_crystalflask.obj
 0001:00040c90       ?_Is_ready@?$_Promise@PEAUmesh_data@@@std@@QEBA_NXZ 0000000140041c90 f i win32_crystalflask.obj
 0001:00040cb0       ?_Is_ready@?$_State_manager@PEAUmesh_data@@@std@@QEBA_NXZ 0000000140041cb0 f i win32_crystalflask.obj
 0001:00040d00       ?_Large_string_engaged@?$_String_val@U?$_Simple_types@D@std@@@std@@QEBA_NXZ 0000000140041d00 f i win32_crystalflask.obj
 0001:00040d30       ?_Local@?$_Func_class@X$$V@std@@AEBA_NXZ 0000000140041d30 f i win32_crystalflask.obj
 0001:00040d30       ?_Local@?$_Func_class@PEAUmesh_data@@$$V@std@@AEBA_NXZ 0000000140041d30 f i win32_crystalflask.obj
 0001:00040d70       ?_Map@?$deque@V?$function@$$A6AXXZ@std@@V?$allocator@V?$function@$$A6AXXZ@std@@@2@@std@@AEAAAEAPEAPEAV?$function@$$A6AXXZ@2@XZ 0000000140041d70 f i win32_crystalflask.obj
 0001:00040d90       ?_Mapsize@?$deque@V?$function@$$A6AXXZ@std@@V?$allocator@V?$function@$$A6AXXZ@std@@@2@@std@@AEAAAEA_KXZ 0000000140041d90 f i win32_crystalflask.obj
 0001:00040db0       ?_Maybe_run_deferred_function@?$_Associated_state@PEAUmesh_data@@@std@@IEAAXAEAV?$unique_lock@Vmutex@std@@@2@@Z 0000000140041db0 f i win32_crystalflask.obj
 0001:00040ea0       ?_Move_from@?$_State_manager@PEAUmesh_data@@@std@@QEAAXAEAV12@@Z 0000000140041ea0 f i win32_crystalflask.obj
 0001:00040f10       ?_Myoff@?$deque@V?$function@$$A6AXXZ@std@@V?$allocator@V?$function@$$A6AXXZ@std@@@2@@std@@AEBAAEB_KXZ 0000000140041f10 f i win32_crystalflask.obj
 0001:00040f10       ?_Myoff@?$deque@V?$function@$$A6AXXZ@std@@V?$allocator@V?$function@$$A6AXXZ@std@@@2@@std@@AEAAAEA_KXZ 0000000140041f10 f i win32_crystalflask.obj
 0001:00040f30       ?_Myptr@?$_String_val@U?$_Simple_types@D@std@@@std@@QEAAPEADXZ 0000000140041f30 f i win32_crystalflask.obj
 0001:00040f30       ?_Myptr@?$_String_val@U?$_Simple_types@D@std@@@std@@QEBAPEBDXZ 0000000140041f30 f i libcpmtd:xonce.obj
 0001:00040f80       ?_Mysize@?$deque@V?$function@$$A6AXXZ@std@@V?$allocator@V?$function@$$A6AXXZ@std@@@2@@std@@AEBAAEB_KXZ 0000000140041f80 f i win32_crystalflask.obj
 0001:00040f80       ?_Mysize@?$deque@V?$function@$$A6AXXZ@std@@V?$allocator@V?$function@$$A6AXXZ@std@@@2@@std@@AEAAAEA_KXZ 0000000140041f80 f i win32_crystalflask.obj
 0001:00040fa0       ?_Orphan_all@?$deque@V?$function@$$A6AXXZ@std@@V?$allocator@V?$function@$$A6AXXZ@std@@@2@@std@@AEAAXXZ 0000000140041fa0 f i win32_crystalflask.obj
 0001:00040fc0       ?_Orphan_all@_Container_base12@std@@QEAAXXZ 0000000140041fc0 f i win32_crystalflask.obj
 0001:00041050       ?_Orphan_off@?$deque@V?$function@$$A6AXXZ@std@@V?$allocator@V?$function@$$A6AXXZ@std@@@2@@std@@AEBAX_K@Z 0000000140042050 f i win32_crystalflask.obj
 0001:00041170       ?_Orphan_range@?$vector@Vthread@std@@V?$allocator@Vthread@std@@@2@@std@@AEBAXPEAVthread@2@0@Z 0000000140042170 f i win32_crystalflask.obj
 0001:00041220       ?_Register@condition_variable@std@@QEAAXAEAV?$unique_lock@Vmutex@std@@@2@PEAH@Z 0000000140042220 f i win32_crystalflask.obj
 0001:00041270       ?_Release@?$_Associated_state@H@std@@QEAAXXZ 0000000140042270 f i win32_crystalflask.obj
 0001:000412b0       ?_Release@?$_Associated_state@PEAUmesh_data@@@std@@QEAAXXZ 00000001400422b0 f i win32_crystalflask.obj
 0001:000412f0       ?_Release@?$_Uninitialized_backout_al@V?$allocator@Vthread@std@@@std@@@std@@QEAAPEAVthread@2@XZ 00000001400422f0 f i win32_crystalflask.obj
 0001:00041310       ?_Release@_Basic_container_proxy_ptr12@std@@QEAAXXZ 0000000140042310 f i win32_crystalflask.obj
 0001:00041330       ?_Reset_move@?$_Func_class@X$$V@std@@IEAAX$$QEAV12@@Z 0000000140042330 f i win32_crystalflask.obj
 0001:000413e0       ?_Set@?$_Func_class@X$$V@std@@AEAAXPEAV?$_Func_base@X$$V@2@@Z 00000001400423e0 f i win32_crystalflask.obj
 0001:000413e0       ?_Set@?$_Func_class@PEAUmesh_data@@$$V@std@@AEAAXPEAV?$_Func_base@PEAUmesh_data@@$$V@2@@Z 00000001400423e0 f i win32_crystalflask.obj
 0001:00041410       ?_Set_exception@?$_Associated_state@PEAUmesh_data@@@std@@QEAAXVexception_ptr@2@_N@Z 0000000140042410 f i win32_crystalflask.obj
 0001:00041490       ?_Set_exception_raw@?$_Associated_state@PEAUmesh_data@@@std@@QEAAXVexception_ptr@2@PEAV?$unique_lock@Vmutex@std@@@2@_N@Z 0000000140042490 f i win32_crystalflask.obj
 0001:00041510       ?_Set_value@?$_Associated_state@PEAUmesh_data@@@std@@QEAAX$$QEAPEAUmesh_data@@_N@Z 0000000140042510 f i win32_crystalflask.obj
 0001:00041570       ?_Set_value_raw@?$_Associated_state@PEAUmesh_data@@@std@@QEAAX$$QEAPEAUmesh_data@@PEAV?$unique_lock@Vmutex@std@@@2@_N@Z 0000000140042570 f i win32_crystalflask.obj
 0001:00041610       ?__scrt_throw_std_bad_array_new_length@@YAXXZ 0000000140042610 f i LIBCMTD:throw_bad_alloc.obj
 0001:00041610       ?_Throw_bad_array_new_length@std@@YAXXZ 0000000140042610 f i win32_crystalflask.obj
 0001:00041640       ?_Tidy@?$_Func_class@PEAUmesh_data@@$$V@std@@IEAAXXZ 0000000140042640 f i win32_crystalflask.obj
 0001:00041640       ?_Tidy@?$_Func_class@X$$V@std@@IEAAXXZ 0000000140042640 f i win32_crystalflask.obj
 0001:000416b0       ?_Tidy@?$deque@V?$function@$$A6AXXZ@std@@V?$allocator@V?$function@$$A6AXXZ@std@@@2@@std@@AEAAXXZ 00000001400426b0 f i win32_crystalflask.obj
 0001:00041800       ?_Tidy@?$vector@V?$future@X@std@@V?$allocator@V?$future@X@std@@@2@@std@@AEAAXXZ 0000000140042800 f i win32_crystalflask.obj
 0001:000418e0       ?_Tidy@?$vector@Vthread@std@@V?$allocator@Vthread@std@@@2@@std@@AEAAXXZ 00000001400428e0 f i win32_crystalflask.obj
 0001:000419c0       ?_Tidy_init@?$basic_string@DU?$char_traits@D@std@@V?$allocator@D@2@@std@@AEAAXXZ 00000001400429c0 f i win32_crystalflask.obj
 0001:00041a10       ?_Umove@?$vector@Vthread@std@@V?$allocator@Vthread@std@@@2@@std@@AEAAPEAVthread@2@PEAV32@00@Z 0000000140042a10 f i win32_crystalflask.obj
 0001:00041a10       ?_Umove_if_noexcept1@?$vector@Vthread@std@@V?$allocator@Vthread@std@@@2@@std@@AEAAXPEAVthread@2@00U?$integral_constant@_N$00@2@@Z 0000000140042a10 f i win32_crystalflask.obj
 0001:00041a50       ?_Umove_if_noexcept@?$vector@Vthread@std@@V?$allocator@Vthread@std@@@2@@std@@AEAAXPEAVthread@2@00@Z 0000000140042a50 f i win32_crystalflask.obj
 0001:00041ab0       ?_Unchecked_begin@?$deque@V?$function@$$A6AXXZ@std@@V?$allocator@V?$function@$$A6AXXZ@std@@@2@@std@@QEAA?AV?$_Deque_unchecked_iterator@V?$_Deque_val@U?$_Deque_simple_types@V?$function@$$A6AXXZ@std@@@std@@@std@@@2@XZ 0000000140042ab0 f i win32_crystalflask.obj
 0001:00041b00       ?category@error_code@std@@QEBAAEBVerror_category@2@XZ 0000000140042b00 f i win32_crystalflask.obj
 0001:00041b00       ?begin@?$ImVector@PEAD@@QEAAPEAPEADXZ 0000000140042b00 f i win32_crystalflask.obj
 0001:00041b00       ?category@error_condition@std@@QEBAAEBVerror_category@2@XZ 0000000140042b00 f i win32_crystalflask.obj
 0001:00041b00       ?begin@?$ImVector@D@@QEAAPEADXZ 0000000140042b00 f i win32_crystalflask.obj
 0001:00041b00       ?GetSchedulingRing@SchedulingNode@details@Concurrency@@QEAAPEAVSchedulingRing@23@XZ 0000000140042b00 f i libconcrtd:VirtualProcessor.obj
 0001:00041b00       ?GetScheduleGroupSegment@WorkItem@details@Concurrency@@QEBAPEAVScheduleGroupSegmentBase@23@XZ 0000000140042b00 f i libconcrtd:SearchAlgorithms.obj
 0001:00041b00       ?_Unchecked_begin@?$vector@Vthread@std@@V?$allocator@Vthread@std@@@2@@std@@QEAAPEAVthread@2@XZ 0000000140042b00 f i win32_crystalflask.obj
 0001:00041b00       ?GetScheduler@ScheduleGroupBase@details@Concurrency@@QEAAPEAVSchedulerBase@23@XZ 0000000140042b00 f i libconcrtd:ScheduleGroupBase.obj
 0001:00041b00       ?GetOwningNode@SchedulingRing@details@Concurrency@@QEBAPEAVSchedulingNode@23@XZ 0000000140042b00 f i libconcrtd:ScheduleGroupBase.obj
 0001:00041b10       ?GetAnonymousScheduleGroupSegment@SchedulingRing@details@Concurrency@@QEBAPEAVScheduleGroupSegmentBase@23@XZ 0000000140042b10 f i libconcrtd:SchedulerBase.obj
 0001:00041b10       ?GetThreadHandle@ThreadProxy@details@Concurrency@@QEAAPEAXXZ 0000000140042b10 f i libconcrtd:FreeVirtualProcessorRoot.obj
 0001:00041b10       ?data@?$__crt_win32_buffer@DU__crt_win32_buffer_no_resizing@@@@QEAAPEADXZ 0000000140042b10 f i libucrtd:getmodulefilenamea.obj
 0001:00041b10       ?_Unchecked_end@?$vector@Vthread@std@@V?$allocator@Vthread@std@@@2@@std@@QEAAPEAVthread@2@XZ 0000000140042b10 f i win32_crystalflask.obj
 0001:00041b10       ?data@?$__crt_win32_buffer@_WU__crt_win32_buffer_internal_dynamic_resizing@@@@QEAAPEA_WXZ 0000000140042b10 f i libucrtd:argv_wildcards.obj
 0001:00041b10       ??$_As@VVirtualProcessor@details@Concurrency@@@location@Concurrency@@QEBAPEAVVirtualProcessor@details@1@XZ 0000000140042b10 f i libconcrtd:SchedulingNode.obj
 0001:00041b10       ?data@?$__crt_win32_buffer@DU__crt_win32_buffer_internal_dynamic_resizing@@@@QEAAPEADXZ 0000000140042b10 f i libucrtd:argv_wildcards.obj
 0001:00041b10       ?GetSchedulingRing@ScheduleGroupSegmentBase@details@Concurrency@@QEBAPEAVSchedulingRing@23@XZ 0000000140042b10 f i libconcrtd:ScheduleGroupBase.obj
 0001:00041b10       ?Scheduler@SchedulerProxy@details@Concurrency@@QEBAPEAUIScheduler@3@XZ 0000000140042b10 f i libconcrtd:ResourceManager.obj
 0001:00041b10       ?_OwningCollection@_UnrealizedChore@details@Concurrency@@QEBAPEAV_TaskCollectionBase@23@XZ 0000000140042b10 f i libconcrtd:WorkQueue.obj
 0001:00041b10       ?save_state@?$input_adapter_character_source@V?$string_input_adapter@D@__crt_stdio_input@@@__crt_strtox@@QEBA_KXZ 0000000140042b10 f i libucrtd:input.obj
 0001:00041b10       ??$_As@VSchedulingNode@details@Concurrency@@@location@Concurrency@@QEBAPEAVSchedulingNode@details@1@XZ 0000000140042b10 f i libconcrtd:location.obj
 0001:00041b20       ?_Unregister@condition_variable@std@@QEAAXAEAVmutex@2@@Z 0000000140042b20 f i win32_crystalflask.obj
 0001:00041b50       ?_Wait@?$_Associated_state@PEAUmesh_data@@@std@@UEAAXXZ 0000000140042b50 f i win32_crystalflask.obj
 0001:00041bc0       ?_Xlen@?$deque@V?$function@$$A6AXXZ@std@@V?$allocator@V?$function@$$A6AXXZ@std@@@2@@std@@AEBAXXZ 0000000140042bc0 f i win32_crystalflask.obj
 0001:00041be0       ?_Xlen_string@std@@YAXXZ   0000000140042be0 f i win32_crystalflask.obj
 0001:00041c00       ?_Xlength@?$vector@Vthread@std@@V?$allocator@Vthread@std@@@2@@std@@CAXXZ 0000000140042c00 f i win32_crystalflask.obj
 0001:00041c20       ?_grow_capacity@?$ImVector@_W@@QEBAHH@Z 0000000140042c20 f i win32_crystalflask.obj
 0001:00041c20       ?_grow_capacity@?$ImVector@UImGuiPlatformMonitor@@@@QEBAHH@Z 0000000140042c20 f i win32_crystalflask.obj
 0001:00041c20       ?_grow_capacity@?$ImVector@PEBD@@QEBAHH@Z 0000000140042c20 f i win32_crystalflask.obj
 0001:00041c20       ?_grow_capacity@?$ImVector@D@@QEBAHH@Z 0000000140042c20 f i win32_crystalflask.obj
 0001:00041c20       ?_grow_capacity@?$ImVector@PEAD@@QEBAHH@Z 0000000140042c20 f i win32_crystalflask.obj
 0001:00041c90       ?allocate@?$allocator@D@std@@QEAAPEAD_K@Z 0000000140042c90 f i win32_crystalflask.obj
 0001:00041cc0       ?allocate@?$allocator@PEAV?$function@$$A6AXXZ@std@@@std@@QEAAPEAPEAV?$function@$$A6AXXZ@2@_K@Z 0000000140042cc0 f i win32_crystalflask.obj
 0001:00041cf0       ?allocate@?$allocator@Vthread@std@@@std@@QEAAPEAVthread@2@_K@Z 0000000140042cf0 f i win32_crystalflask.obj
 0001:00041cf0       ?allocate@?$allocator@U_Container_proxy@std@@@std@@QEAAPEAU_Container_proxy@2@_K@Z 0000000140042cf0 f i win32_crystalflask.obj
 0001:00041d20       ?allocate@?$allocator@V?$function@$$A6AXXZ@std@@@std@@QEAAPEAV?$function@$$A6AXXZ@2@_K@Z 0000000140042d20 f i win32_crystalflask.obj
 0001:00041d50       ?asin@@YAMM@Z              0000000140042d50 f i win32_crystalflask.obj
 0001:00041d70       ?assign@?$_Narrow_char_traits@DH@std@@SAXAEADAEBD@Z 0000000140042d70 f i win32_crystalflask.obj
 0001:00041d90       ?assign@?$basic_string@DU?$char_traits@D@std@@V?$allocator@D@2@@std@@QEAAAEAV12@QEBD@Z 0000000140042d90 f i win32_crystalflask.obj
 0001:00041dd0       ?assign@?$basic_string@DU?$char_traits@D@std@@V?$allocator@D@2@@std@@QEAAAEAV12@QEBD_K@Z 0000000140042dd0 f i win32_crystalflask.obj
 0001:00041e90       ?atan2@@YAMMM@Z            0000000140042e90 f i win32_crystalflask.obj
 0001:00041ec0       ?call@?$compute_abs@M$00@detail@glm@@SAMM@Z 0000000140042ec0 f i win32_crystalflask.obj
 0001:00041f10       ?call@?$compute_abs_vector@$01M$0A@$0A@@detail@glm@@SA?AU?$vec@$01M$0A@@3@AEBU43@@Z 0000000140042f10 f i win32_crystalflask.obj
 0001:00041f40       ?call@?$compute_cross@M$0A@$0A@@detail@glm@@SA?AU?$vec@$02M$0A@@3@AEBU43@0@Z 0000000140042f40 f i win32_crystalflask.obj
 0001:00042000       ?call@?$compute_dot@U?$vec@$02M$0A@@glm@@M$0A@@detail@glm@@SAMAEBU?$vec@$02M$0A@@3@0@Z 0000000140043000 f i win32_crystalflask.obj
 0001:00042040       ?call@?$compute_inverse@$03$03M$0A@$0A@@detail@glm@@SA?AU?$mat@$03$03M$0A@@3@AEBU43@@Z 0000000140043040 f i win32_crystalflask.obj
 0001:00043770       ?call@?$compute_mix_scalar@$02MM$0A@$0A@@detail@glm@@SA?AU?$vec@$02M$0A@@3@AEBU43@0AEBM@Z 0000000140044770 f i win32_crystalflask.obj
 0001:00043830       ?call@?$compute_normalize@$02M$0A@$0A@@detail@glm@@SA?AU?$vec@$02M$0A@@3@AEBU43@@Z 0000000140044830 f i win32_crystalflask.obj
 0001:00043870       ?call@?$compute_vec4_add@M$0A@$0A@@detail@glm@@SA?AU?$vec@$03M$0A@@3@AEBU43@0@Z 0000000140044870 f i win32_crystalflask.obj
 0001:00043900       ?call@?$compute_vec4_mul@M$0A@$0A@@detail@glm@@SA?AU?$vec@$03M$0A@@3@AEBU43@0@Z 0000000140044900 f i win32_crystalflask.obj
 0001:00043990       ?call@?$compute_vec4_sub@M$0A@$0A@@detail@glm@@SA?AU?$vec@$03M$0A@@3@AEBU43@0@Z 0000000140044990 f i win32_crystalflask.obj
 0001:00043a20       ?call@?$functor1@Uvec@glm@@$01MM$0A@@detail@glm@@SA?AU?$vec@$01M$0A@@3@P6AMM@ZAEBU43@@Z 0000000140044a20 f i win32_crystalflask.obj
 0001:00043a80       ?call@?$functor1@Uvec@glm@@$02MM$0A@@detail@glm@@SA?AU?$vec@$02M$0A@@3@P6AMM@ZAEBU43@@Z 0000000140044a80 f i win32_crystalflask.obj
 0001:00043b00       ?capacity@?$vector@Vthread@std@@V?$allocator@Vthread@std@@@2@@std@@QEBA_KXZ 0000000140044b00 f i win32_crystalflask.obj
 0001:00043b30       ?clear@?$ImVector@PEAD@@QEAAXXZ 0000000140044b30 f i win32_crystalflask.obj
 0001:00043b80       ?copy@?$_Narrow_char_traits@DH@std@@SAPEADQEADQEBD_K@Z 0000000140044b80 f i win32_crystalflask.obj
 0001:00043bb0       ?cos@@YAMM@Z               0000000140044bb0 f i win32_crystalflask.obj
 0001:00043bd0       ?current_exception@std@@YA?AVexception_ptr@1@XZ 0000000140044bd0 f i win32_crystalflask.obj
 0001:00043bf0       ?deallocate@?$allocator@V?$future@X@std@@@std@@QEAAXQEAV?$future@X@2@_K@Z 0000000140044bf0 f i win32_crystalflask.obj
 0001:00043bf0       ?deallocate@?$allocator@Vthread@std@@@std@@QEAAXQEAVthread@2@_K@Z 0000000140044bf0 f i win32_crystalflask.obj
 0001:00043bf0       ?deallocate@?$_Default_allocator_traits@V?$allocator@U_Container_proxy@std@@@std@@@std@@SAXAEAV?$allocator@U_Container_proxy@std@@@2@QEAU_Container_proxy@2@_K@Z 0000000140044bf0 f i win32_crystalflask.obj
 0001:00043c20       ?deallocate@?$allocator@D@std@@QEAAXQEAD_K@Z 0000000140044c20 f i win32_crystalflask.obj
 0001:00043c50       ?deallocate@?$allocator@PEAV?$function@$$A6AXXZ@std@@@std@@QEAAXQEAPEAV?$function@$$A6AXXZ@2@_K@Z 0000000140044c50 f i win32_crystalflask.obj
 0001:00043c80       ?deallocate@?$allocator@V?$function@$$A6AXXZ@std@@@std@@QEAAXQEAV?$function@$$A6AXXZ@2@_K@Z 0000000140044c80 f i win32_crystalflask.obj
 0001:00043cb0       ?default_error_condition@error_category@std@@UEBA?AVerror_condition@2@H@Z 0000000140044cb0 f i win32_crystalflask.obj
 0001:00043ce0       ?empty@?$deque@V?$function@$$A6AXXZ@std@@V?$allocator@V?$function@$$A6AXXZ@std@@@2@@std@@QEBA_NXZ 0000000140044ce0 f i win32_crystalflask.obj
 0001:00043d20       ?empty@?$queue@V?$function@$$A6AXXZ@std@@V?$deque@V?$function@$$A6AXXZ@std@@V?$allocator@V?$function@$$A6AXXZ@std@@@2@@2@@std@@QEBA_NXZ 0000000140044d20 f i win32_crystalflask.obj
 0001:00043d40       ?epsilon@?$numeric_limits@M@std@@SAMXZ 0000000140044d40 f i win32_crystalflask.obj
 0001:00043d50       ?equivalent@error_category@std@@UEBA_NAEBVerror_code@2@H@Z 0000000140044d50 f i win32_crystalflask.obj
 0001:00043db0       ?equivalent@error_category@std@@UEBA_NHAEBVerror_condition@2@@Z 0000000140044db0 f i win32_crystalflask.obj
 0001:00043df0       ?erase@?$ImVector@PEAD@@QEAAPEAPEADPEBQEAD@Z 0000000140044df0 f i win32_crystalflask.obj
 0001:00043ee0       ?front@?$deque@V?$function@$$A6AXXZ@std@@V?$allocator@V?$function@$$A6AXXZ@std@@@2@@std@@QEAAAEAV?$function@$$A6AXXZ@2@XZ 0000000140044ee0 f i win32_crystalflask.obj
 0001:00043f90       ?front@?$queue@V?$function@$$A6AXXZ@std@@V?$deque@V?$function@$$A6AXXZ@std@@V?$allocator@V?$function@$$A6AXXZ@std@@@2@@2@@std@@QEAAAEAV?$function@$$A6AXXZ@2@XZ 0000000140044f90 f i win32_crystalflask.obj
 0001:00043fb0       ?future_category@std@@YAAEBVerror_category@1@XZ 0000000140044fb0 f i win32_crystalflask.obj
 0001:00043fc0       ?get@?$future@PEAUmesh_data@@@std@@QEAAPEAUmesh_data@@XZ 0000000140044fc0 f i win32_crystalflask.obj
 0001:00044010       ?get_future@?$packaged_task@$$A6APEAUmesh_data@@XZ@std@@QEAA?AV?$future@PEAUmesh_data@@@2@XZ 0000000140045010 f i win32_crystalflask.obj
 0001:00044050       ?hardware_concurrency@thread@std@@SAIXZ 0000000140045050 f i win32_crystalflask.obj
 0001:00044060       ?insert@?$ImVector@UImGuiPlatformMonitor@@@@QEAAPEAUImGuiPlatformMonitor@@PEBU2@AEBU2@@Z 0000000140045060 f i win32_crystalflask.obj
 0001:000441c0       ?join@thread@std@@QEAAXXZ  00000001400451c0 f i win32_crystalflask.obj
 0001:00044260       ?joinable@thread@std@@QEBA_NXZ 0000000140045260 f i win32_crystalflask.obj
 0001:00044290       ?length@?$_Narrow_char_traits@DH@std@@SA_KQEBD@Z 0000000140045290 f i win32_crystalflask.obj
 0001:000442d0       ?length@?$mat@$02$02M$0A@@glm@@SAHXZ 00000001400452d0 f i win32_crystalflask.obj
 0001:000442d0       ?length@?$vec@$02M$0A@@glm@@SAHXZ 00000001400452d0 f i win32_crystalflask.obj
 0001:000442e0       ?length@?$vec@$03M$0A@@glm@@SAHXZ 00000001400452e0 f i win32_crystalflask.obj
 0001:000442e0       ?length@?$mat@$03$03M$0A@@glm@@SAHXZ 00000001400452e0 f i win32_crystalflask.obj
 0001:000442f0       ?length@?$vec@$01_N$0A@@glm@@SAHXZ 00000001400452f0 f i win32_crystalflask.obj
 0001:000442f0       ?__acrt_select_exit_lock@@YA?AW4__acrt_lock_id@@XZ 00000001400452f0 f i libucrtd:exit.obj
 0001:000442f0       ?_None@_CancellationTokenState@details@Concurrency@@SAPEAV123@XZ 00000001400452f0 f i libconcrtd:ContextBase.obj
 0001:000442f0       ?length@?$vec@$01M$0A@@glm@@SAHXZ 00000001400452f0 f i win32_crystalflask.obj
 0001:00044300       ?lock@_Mutex_base@std@@QEAAXXZ 0000000140045300 f i win32_crystalflask.obj
 0001:00044330       ?make_error_code@std@@YA?AVerror_code@1@W4future_errc@1@@Z 0000000140045330 f i win32_crystalflask.obj
 0001:00044360       ?max@?$numeric_limits@_J@std@@SA_JXZ 0000000140045360 f i win32_crystalflask.obj
 0001:00044370       ?max_size@?$_Default_allocator_traits@V?$allocator@D@std@@@std@@SA_KAEBV?$allocator@D@2@@Z 0000000140045370 f i win32_crystalflask.obj
 0001:00044380       ?max_size@?$_Default_allocator_traits@V?$allocator@V?$function@$$A6AXXZ@std@@@std@@@std@@SA_KAEBV?$allocator@V?$function@$$A6AXXZ@std@@@2@@Z 0000000140045380 f i win32_crystalflask.obj
 0001:00044390       ?max_size@?$_Default_allocator_traits@V?$allocator@Vthread@std@@@std@@@std@@SA_KAEBV?$allocator@Vthread@std@@@2@@Z 0000000140045390 f i win32_crystalflask.obj
 0001:000443a0       ?max_size@?$basic_string@DU?$char_traits@D@std@@V?$allocator@D@2@@std@@QEBA_KXZ 00000001400453a0 f i win32_crystalflask.obj
 0001:00044410       ?max_size@?$deque@V?$function@$$A6AXXZ@std@@V?$allocator@V?$function@$$A6AXXZ@std@@@2@@std@@QEBA_KXZ 0000000140045410 f i win32_crystalflask.obj
 0001:00044460       ?max_size@?$vector@Vthread@std@@V?$allocator@Vthread@std@@@2@@std@@QEBA_KXZ 0000000140045460 f i win32_crystalflask.obj
 0001:000444b0       ?message@_Future_error_category@std@@UEBA?AV?$basic_string@DU?$char_traits@D@std@@V?$allocator@D@2@@2@H@Z 00000001400454b0 f i win32_crystalflask.obj
 0001:00044510       ?message@_Generic_error_category@std@@UEBA?AV?$basic_string@DU?$char_traits@D@std@@V?$allocator@D@2@@2@H@Z 0000000140045510 f i win32_crystalflask.obj
 0001:00044550       ?move@?$_Narrow_char_traits@DH@std@@SAPEADQEADQEBD_K@Z 0000000140045550 f i win32_crystalflask.obj
 0001:00044580       ?name@_Future_error_category@std@@UEBAPEBDXZ 0000000140045580 f i win32_crystalflask.obj
 0001:00044590       ?name@_Generic_error_category@std@@UEBAPEBDXZ 0000000140045590 f i win32_crystalflask.obj
 0001:000445a0       ?notify_all@condition_variable@std@@QEAAXXZ 00000001400455a0 f i win32_crystalflask.obj
 0001:000445d0       ?notify_one@condition_variable@std@@QEAAXXZ 00000001400455d0 f i win32_crystalflask.obj
 0001:00044600       ?pop@?$queue@V?$function@$$A6AXXZ@std@@V?$deque@V?$function@$$A6AXXZ@std@@V?$allocator@V?$function@$$A6AXXZ@std@@@2@@2@@std@@QEAAXXZ 0000000140045600 f i win32_crystalflask.obj
 0001:00044620       ?pop_back@?$deque@V?$function@$$A6AXXZ@std@@V?$allocator@V?$function@$$A6AXXZ@std@@@2@@std@@QEAAXXZ 0000000140045620 f i win32_crystalflask.obj
 0001:00044790       ?pop_front@?$deque@V?$function@$$A6AXXZ@std@@V?$allocator@V?$function@$$A6AXXZ@std@@@2@@std@@QEAAXXZ 0000000140045790 f i win32_crystalflask.obj
 0001:00044910       ?push_back@?$ImVector@PEAD@@QEAAXAEBQEAD@Z 0000000140045910 f i win32_crystalflask.obj
 0001:00044910       ?push_back@?$ImVector@PEBD@@QEAAXAEBQEBD@Z 0000000140045910 f i win32_crystalflask.obj
 0001:00044990       ?push_back@?$ImVector@UImGuiPlatformMonitor@@@@QEAAXAEBUImGuiPlatformMonitor@@@Z 0000000140045990 f i win32_crystalflask.obj
 0001:00044a10       ?push_front@?$ImVector@UImGuiPlatformMonitor@@@@QEAAXAEBUImGuiPlatformMonitor@@@Z 0000000140045a10 f i win32_crystalflask.obj
 0001:00044a60       ?release@?$unique_lock@Vmutex@std@@@std@@QEAAPEAVmutex@2@XZ 0000000140045a60 f i win32_crystalflask.obj
 0001:00044aa0       ?release@?$unique_ptr@V?$tuple@V<lambda_d1250b07d06cca55b178c66c87301ca1>@@@std@@U?$default_delete@V?$tuple@V<lambda_d1250b07d06cca55b178c66c87301ca1>@@@std@@@2@@std@@QEAAPEAV?$tuple@V<lambda_d1250b07d06cca55b178c66c87301ca1>@@@2@XZ 0000000140045aa0 f i win32_crystalflask.obj
 0001:00044ad0       ?reserve@?$ImVector@D@@QEAAXH@Z 0000000140045ad0 f i win32_crystalflask.obj
 0001:00044b60       ?reserve@?$ImVector@PEBD@@QEAAXH@Z 0000000140045b60 f i win32_crystalflask.obj
 0001:00044b60       ?reserve@?$ImVector@PEAD@@QEAAXH@Z 0000000140045b60 f i win32_crystalflask.obj
 0001:00044bf0       ?reserve@?$ImVector@UImGuiPlatformMonitor@@@@QEAAXH@Z 0000000140045bf0 f i win32_crystalflask.obj
 0001:00044c80       ?reserve@?$ImVector@_W@@QEAAXH@Z 0000000140045c80 f i win32_crystalflask.obj
 0001:00044d10       ?resize@?$ImVector@D@@QEAAXH@Z 0000000140045d10 f i win32_crystalflask.obj
 0001:00044d60       ?resize@?$ImVector@UImGuiPlatformMonitor@@@@QEAAXH@Z 0000000140045d60 f i win32_crystalflask.obj
 0001:00044db0       ?resize@?$ImVector@_W@@QEAAXH@Z 0000000140045db0 f i win32_crystalflask.obj
 0001:00044e00       ?sin@@YAMM@Z               0000000140045e00 f i win32_crystalflask.obj
 0001:00044e20       ?size@?$array@PEAE$05@std@@QEBA_KXZ 0000000140045e20 f i win32_crystalflask.obj
 0001:00044e30       ?size@?$vector@Vthread@std@@V?$allocator@Vthread@std@@@2@@std@@QEBA_KXZ 0000000140045e30 f i win32_crystalflask.obj
 0001:00044e60       ?sqrt@@YAMM@Z              0000000140045e60 f i win32_crystalflask.obj
 0001:00044e80       ?unlock@_Mutex_base@std@@QEAAXXZ 0000000140045e80 f i win32_crystalflask.obj
 0001:00044eb0       ?valid@?$_State_manager@PEAUmesh_data@@@std@@QEBA_NXZ 0000000140045eb0 f i win32_crystalflask.obj
 0001:00044f10       ?value@error_condition@std@@QEBAHXZ 0000000140045f10 f i win32_crystalflask.obj
 0001:00044f10       ?value@error_code@std@@QEBAHXZ 0000000140045f10 f i win32_crystalflask.obj
 0001:00044f10       ?getNumTryBlocks@TryBlockMap4@FH4@@QEAAIXZ 0000000140045f10 f i libvcruntimed:frame.obj
 0001:00044f10       ?BeaconCount@CancellationBeaconStack@ContextBase@details@Concurrency@@QEBAJXZ 0000000140045f10 f i libconcrtd:ContextBase.obj
 0001:00044f10       ?Value@Count@CollectionTypes@details@Concurrency@@QEBAHXZ 0000000140045f10 f i libconcrtd:ResourceManager.obj
 0001:00044f10       ??$_Atomic_reinterpret_as@JJ@std@@YAJAEBJ@Z 0000000140045f10 f i libconcrtd:TaskCollection.obj
 0001:00044f10       ?GetType@WorkItem@details@Concurrency@@QEBA?AW4WorkItemType@123@XZ 0000000140045f10 f i libconcrtd:InternalContextBase.obj
 0001:00044f20       ?wait@condition_variable@std@@QEAAXAEAV?$unique_lock@Vmutex@std@@@2@@Z 0000000140045f20 f i win32_crystalflask.obj
 0001:00044f70       ?what@exception@std@@UEBAPEBDXZ 0000000140045f70 f i win32_crystalflask.obj
 0001:00044fb0       ?what@future_error@std@@UEBAPEBDXZ 0000000140045fb0 f i win32_crystalflask.obj
 0001:00044fe0       GetController              0000000140045fe0 f i win32_crystalflask.obj
 0001:00045010       HRESULT_FROM_WIN32         0000000140046010 f i win32_crystalflask.obj
 0001:00045050       IsEndOfLine                0000000140046050 f i win32_crystalflask.obj
 0001:00045090       IsWhitespace               0000000140046090 f i win32_crystalflask.obj
 0001:00045100       SafeTruncateUInt64         0000000140046100 f i win32_crystalflask.obj
 0001:00045120       StringCMP                  0000000140046120 f i win32_crystalflask.obj
 0001:000451a0       StringsAreEqual            00000001400461a0 f i win32_crystalflask.obj
 0001:00045290       __local_stdio_printf_options 0000000140046290 f i win32_crystalflask.obj
 0001:000452a0       __local_stdio_scanf_options 00000001400462a0 f i win32_crystalflask.obj
 0001:000452b0       _vfprintf_l                00000001400462b0 f i win32_crystalflask.obj
 0001:00045300       _vfwprintf_l               0000000140046300 f i win32_crystalflask.obj
 0001:00045350       _vsnprintf_l               0000000140046350 f i win32_crystalflask.obj
 0001:000453d0       _vsnprintf_s               00000001400463d0 f i win32_crystalflask.obj
 0001:00045420       _vsnprintf_s_l             0000000140046420 f i win32_crystalflask.obj
 0001:000454a0       _vsprintf_l                00000001400464a0 f i win32_crystalflask.obj
 0001:000454f0       _vsprintf_s_l              00000001400464f0 f i win32_crystalflask.obj
 0001:00045560       _vsscanf_l                 0000000140046560 f i win32_crystalflask.obj
 0001:000455b0       fprintf                    00000001400465b0 f i win32_crystalflask.obj
 0001:00045600       sprintf                    0000000140046600 f i win32_crystalflask.obj
 0001:00045650       sprintf_s                  0000000140046650 f i win32_crystalflask.obj
 0001:000456b0       sscanf                     00000001400466b0 f i win32_crystalflask.obj
 0001:00045700       vsnprintf                  0000000140046700 f i win32_crystalflask.obj
 0001:00045780       wprintf                    0000000140046780 f i win32_crystalflask.obj
 0001:000457e0       gl3wInit                   00000001400467e0 f   gl3w.obj
 0001:00045820       gl3wInit2                  0000000140046820 f   gl3w.obj
 0001:00045850       gl3wIsSupported            0000000140046850 f   gl3w.obj
 0001:000458d0       gl3wGetProcAddress         00000001400468d0 f   gl3w.obj
 0001:00045a80       ?CreateContext@ImGui@@YAPEAUImGuiContext@@PEAUImFontAtlas@@@Z 0000000140046a80 f   imgui.obj
 0001:00045b10       ?DestroyContext@ImGui@@YAXPEAUImGuiContext@@@Z 0000000140046b10 f   imgui.obj
 0001:00045b70       ?GetCurrentContext@ImGui@@YAPEAUImGuiContext@@XZ 0000000140046b70 f   imgui.obj
 0001:00045b80       ?SetCurrentContext@ImGui@@YAXPEAUImGuiContext@@@Z 0000000140046b80 f   imgui.obj
 0001:00045ba0       ?GetIO@ImGui@@YAAEAUImGuiIO@@XZ 0000000140046ba0 f   imgui.obj
 0001:00045bf0       ?GetStyle@ImGui@@YAAEAUImGuiStyle@@XZ 0000000140046bf0 f   imgui.obj
 0001:00045c40       ?NewFrame@ImGui@@YAXXZ     0000000140046c40 f   imgui.obj
 0001:00046820       ?EndFrame@ImGui@@YAXXZ     0000000140047820 f   imgui.obj
 0001:00046c90       ?Render@ImGui@@YAXXZ       0000000140047c90 f   imgui.obj
 0001:00047300       ?GetDrawData@ImGui@@YAPEAUImDrawData@@XZ 0000000140048300 f   imgui.obj
 0001:00047380       ?ShowMetricsWindow@ImGui@@YAXPEA_N@Z 0000000140048380 f   imgui.obj
 0001:00048f10       ?GetVersion@ImGui@@YAPEBDXZ 0000000140049f10 f   imgui.obj
 0001:00048f20       ?Begin@ImGui@@YA_NPEBDPEA_NH@Z 0000000140049f20 f   imgui.obj
 0001:0004ccf0       ?End@ImGui@@YAXXZ          000000014004dcf0 f   imgui.obj
 0001:0004cfa0       ?BeginChild@ImGui@@YA_NPEBDAEBUImVec2@@_NH@Z 000000014004dfa0 f   imgui.obj
 0001:0004d000       ?BeginChild@ImGui@@YA_NIAEBUImVec2@@_NH@Z 000000014004e000 f   imgui.obj
 0001:0004d070       ?EndChild@ImGui@@YAXXZ     000000014004e070 f   imgui.obj
 0001:0004d330       ?IsWindowAppearing@ImGui@@YA_NXZ 000000014004e330 f   imgui.obj
 0001:0004d360       ?IsWindowCollapsed@ImGui@@YA_NXZ 000000014004e360 f   imgui.obj
 0001:0004d390       ?IsWindowFocused@ImGui@@YA_NH@Z 000000014004e390 f   imgui.obj
 0001:0004d550       ?IsWindowHovered@ImGui@@YA_NH@Z 000000014004e550 f   imgui.obj
 0001:0004d720       ?GetWindowDrawList@ImGui@@YAPEAUImDrawList@@XZ 000000014004e720 f   imgui.obj
 0001:0004d750       ?GetWindowDpiScale@ImGui@@YAMXZ 000000014004e750 f   imgui.obj
 0001:0004d780       ?GetWindowViewport@ImGui@@YAPEAUImGuiViewport@@XZ 000000014004e780 f   imgui.obj
 0001:0004d7f0       ?GetWindowPos@ImGui@@YA?AUImVec2@@XZ 000000014004e7f0 f   imgui.obj
 0001:0004d840       ?GetWindowSize@ImGui@@YA?AUImVec2@@XZ 000000014004e840 f   imgui.obj
 0001:0004d880       ?GetWindowWidth@ImGui@@YAMXZ 000000014004e880 f   imgui.obj
 0001:0004d8b0       ?GetWindowHeight@ImGui@@YAMXZ 000000014004e8b0 f   imgui.obj
 0001:0004d8e0       ?SetNextWindowPos@ImGui@@YAXAEBUImVec2@@H0@Z 000000014004e8e0 f   imgui.obj
 0001:0004d9b0       ?SetNextWindowSize@ImGui@@YAXAEBUImVec2@@H@Z 000000014004e9b0 f   imgui.obj
 0001:0004da60       ?SetNextWindowSizeConstraints@ImGui@@YAXAEBUImVec2@@0P6AXPEAUImGuiSizeCallbackData@@@ZPEAX@Z 000000014004ea60 f   imgui.obj
 0001:0004db00       ?SetNextWindowContentSize@ImGui@@YAXAEBUImVec2@@@Z 000000014004eb00 f   imgui.obj
 0001:0004db50       ?SetNextWindowCollapsed@ImGui@@YAX_NH@Z 000000014004eb50 f   imgui.obj
 0001:0004dc00       ?SetNextWindowFocus@ImGui@@YAXXZ 000000014004ec00 f   imgui.obj
 0001:0004dc40       ?SetNextWindowBgAlpha@ImGui@@YAXM@Z 000000014004ec40 f   imgui.obj
 0001:0004dc90       ?SetNextWindowViewport@ImGui@@YAXI@Z 000000014004ec90 f   imgui.obj
 0001:0004dce0       ?SetWindowPos@ImGui@@YAXAEBUImVec2@@H@Z 000000014004ece0 f   imgui.obj
 0001:0004dd20       ?SetWindowSize@ImGui@@YAXAEBUImVec2@@H@Z 000000014004ed20 f   imgui.obj
 0001:0004dd60       ?SetWindowCollapsed@ImGui@@YAX_NH@Z 000000014004ed60 f   imgui.obj
 0001:0004dda0       ?SetWindowFocus@ImGui@@YAXXZ 000000014004eda0 f   imgui.obj
 0001:0004ddd0       ?SetWindowFontScale@ImGui@@YAXM@Z 000000014004edd0 f   imgui.obj
 0001:0004de50       ?SetWindowPos@ImGui@@YAXPEBDAEBUImVec2@@H@Z 000000014004ee50 f   imgui.obj
 0001:0004dea0       ?SetWindowSize@ImGui@@YAXPEBDAEBUImVec2@@H@Z 000000014004eea0 f   imgui.obj
 0001:0004def0       ?SetWindowCollapsed@ImGui@@YAXPEBD_NH@Z 000000014004eef0 f   imgui.obj
 0001:0004df40       ?SetWindowFocus@ImGui@@YAXPEBD@Z 000000014004ef40 f   imgui.obj
 0001:0004df90       ?GetContentRegionMax@ImGui@@YA?AUImVec2@@XZ 000000014004ef90 f   imgui.obj
 0001:0004e030       ?GetContentRegionAvail@ImGui@@YA?AUImVec2@@XZ 000000014004f030 f   imgui.obj
 0001:0004e090       ?GetWindowContentRegionMin@ImGui@@YA?AUImVec2@@XZ 000000014004f090 f   imgui.obj
 0001:0004e0f0       ?GetWindowContentRegionMax@ImGui@@YA?AUImVec2@@XZ 000000014004f0f0 f   imgui.obj
 0001:0004e150       ?GetWindowContentRegionWidth@ImGui@@YAMXZ 000000014004f150 f   imgui.obj
 0001:0004e190       ?GetScrollX@ImGui@@YAMXZ   000000014004f190 f   imgui.obj
 0001:0004e1c0       ?GetScrollY@ImGui@@YAMXZ   000000014004f1c0 f   imgui.obj
 0001:0004e1f0       ?GetScrollMaxX@ImGui@@YAMXZ 000000014004f1f0 f   imgui.obj
 0001:0004e220       ?GetScrollMaxY@ImGui@@YAMXZ 000000014004f220 f   imgui.obj
 0001:0004e250       ?SetScrollX@ImGui@@YAXM@Z  000000014004f250 f   imgui.obj
 0001:0004e2a0       ?SetScrollY@ImGui@@YAXM@Z  000000014004f2a0 f   imgui.obj
 0001:0004e2f0       ?SetScrollHereX@ImGui@@YAXM@Z 000000014004f2f0 f   imgui.obj
 0001:0004e3c0       ?SetScrollHereY@ImGui@@YAXM@Z 000000014004f3c0 f   imgui.obj
 0001:0004e480       ?SetScrollFromPosX@ImGui@@YAXMM@Z 000000014004f480 f   imgui.obj
 0001:0004e4d0       ?SetScrollFromPosY@ImGui@@YAXMM@Z 000000014004f4d0 f   imgui.obj
 0001:0004e520       ?PushFont@ImGui@@YAXPEAUImFont@@@Z 000000014004f520 f   imgui.obj
 0001:0004e5a0       ?PopFont@ImGui@@YAXXZ      000000014004f5a0 f   imgui.obj
 0001:0004e640       ?PushStyleColor@ImGui@@YAXHI@Z 000000014004f640 f   imgui.obj
 0001:0004e6f0       ?PushStyleColor@ImGui@@YAXHAEBUImVec4@@@Z 000000014004f6f0 f   imgui.obj
 0001:0004e790       ?PopStyleColor@ImGui@@YAXH@Z 000000014004f790 f   imgui.obj
 0001:0004e820       ?PushStyleVar@ImGui@@YAXHM@Z 000000014004f820 f   imgui.obj
 0001:0004e8f0       ?PushStyleVar@ImGui@@YAXHAEBUImVec2@@@Z 000000014004f8f0 f   imgui.obj
 0001:0004e9c0       ?PopStyleVar@ImGui@@YAXH@Z 000000014004f9c0 f   imgui.obj
 0001:0004eb00       ?GetStyleColorVec4@ImGui@@YAAEBUImVec4@@H@Z 000000014004fb00 f   imgui.obj
 0001:0004eb40       ?GetFont@ImGui@@YAPEAUImFont@@XZ 000000014004fb40 f   imgui.obj
 0001:0004eb60       ?GetFontSize@ImGui@@YAMXZ  000000014004fb60 f   imgui.obj
 0001:0004eb80       ?GetFontTexUvWhitePixel@ImGui@@YA?AUImVec2@@XZ 000000014004fb80 f   imgui.obj
 0001:0004ebb0       ?GetColorU32@ImGui@@YAIHM@Z 000000014004fbb0 f   imgui.obj
 0001:0004ec30       ?GetColorU32@ImGui@@YAIAEBUImVec4@@@Z 000000014004fc30 f   imgui.obj
 0001:0004ec90       ?GetColorU32@ImGui@@YAII@Z 000000014004fc90 f   imgui.obj
 0001:0004ed10       ?PushItemWidth@ImGui@@YAXM@Z 000000014004fd10 f   imgui.obj
 0001:0004edc0       ?PopItemWidth@ImGui@@YAXXZ 000000014004fdc0 f   imgui.obj
 0001:0004ee50       ?SetNextItemWidth@ImGui@@YAXM@Z 000000014004fe50 f   imgui.obj
 0001:0004eea0       ?CalcItemWidth@ImGui@@YAMXZ 000000014004fea0 f   imgui.obj
 0001:0004ef70       ?PushTextWrapPos@ImGui@@YAXM@Z 000000014004ff70 f   imgui.obj
 0001:0004efc0       ?PopTextWrapPos@ImGui@@YAXXZ 000000014004ffc0 f   imgui.obj
 0001:0004f050       ?PushAllowKeyboardFocus@ImGui@@YAX_N@Z 0000000140050050 f   imgui.obj
 0001:0004f090       ?PopAllowKeyboardFocus@ImGui@@YAXXZ 0000000140050090 f   imgui.obj
 0001:0004f0b0       ?PushButtonRepeat@ImGui@@YAX_N@Z 00000001400500b0 f   imgui.obj
 0001:0004f0e0       ?PopButtonRepeat@ImGui@@YAXXZ 00000001400500e0 f   imgui.obj
 0001:0004f100       ?SameLine@ImGui@@YAXMM@Z   0000000140050100 f   imgui.obj
 0001:0004f270       ?Indent@ImGui@@YAXM@Z      0000000140050270 f   imgui.obj
 0001:0004f320       ?Unindent@ImGui@@YAXM@Z    0000000140050320 f   imgui.obj
 0001:0004f3d0       ?BeginGroup@ImGui@@YAXXZ   00000001400503d0 f   imgui.obj
 0001:0004f580       ?EndGroup@ImGui@@YAXXZ     0000000140050580 f   imgui.obj
 0001:0004f8e0       ?GetCursorPos@ImGui@@YA?AUImVec2@@XZ 00000001400508e0 f   imgui.obj
 0001:0004f950       ?GetCursorPosX@ImGui@@YAMXZ 0000000140050950 f   imgui.obj
 0001:0004f990       ?GetCursorPosY@ImGui@@YAMXZ 0000000140050990 f   imgui.obj
 0001:0004f9d0       ?SetCursorPos@ImGui@@YAXAEBUImVec2@@@Z 00000001400509d0 f   imgui.obj
 0001:0004fa70       ?SetCursorPosX@ImGui@@YAXM@Z 0000000140050a70 f   imgui.obj
 0001:0004faf0       ?SetCursorPosY@ImGui@@YAXM@Z 0000000140050af0 f   imgui.obj
 0001:0004fb70       ?GetCursorStartPos@ImGui@@YA?AUImVec2@@XZ 0000000140050b70 f   imgui.obj
 0001:0004fbc0       ?GetCursorScreenPos@ImGui@@YA?AUImVec2@@XZ 0000000140050bc0 f   imgui.obj
 0001:0004fc00       ?SetCursorScreenPos@ImGui@@YAXAEBUImVec2@@@Z 0000000140050c00 f   imgui.obj
 0001:0004fc70       ?GetTextLineHeight@ImGui@@YAMXZ 0000000140050c70 f   imgui.obj
 0001:0004fca0       ?GetTextLineHeightWithSpacing@ImGui@@YAMXZ 0000000140050ca0 f   imgui.obj
 0001:0004fce0       ?GetFrameHeight@ImGui@@YAMXZ 0000000140050ce0 f   imgui.obj
 0001:0004fd30       ?GetFrameHeightWithSpacing@ImGui@@YAMXZ 0000000140050d30 f   imgui.obj
 0001:0004fd80       ?PushID@ImGui@@YAXPEBD@Z   0000000140050d80 f   imgui.obj
 0001:0004fde0       ?PushID@ImGui@@YAXPEBD0@Z  0000000140050de0 f   imgui.obj
 0001:0004fe50       ?PushID@ImGui@@YAXPEBX@Z   0000000140050e50 f   imgui.obj
 0001:0004feb0       ?PushID@ImGui@@YAXH@Z      0000000140050eb0 f   imgui.obj
 0001:0004ff10       ?PopID@ImGui@@YAXXZ        0000000140050f10 f   imgui.obj
 0001:0004ff50       ?GetID@ImGui@@YAIPEBD@Z    0000000140050f50 f   imgui.obj
 0001:0004ff90       ?GetID@ImGui@@YAIPEBD0@Z   0000000140050f90 f   imgui.obj
 0001:0004ffd0       ?GetID@ImGui@@YAIPEBX@Z    0000000140050fd0 f   imgui.obj
 0001:00050010       ?BeginTooltip@ImGui@@YAXXZ 0000000140051010 f   imgui.obj
 0001:00050030       ?EndTooltip@ImGui@@YAXXZ   0000000140051030 f   imgui.obj
 0001:00050070       ?SetTooltip@ImGui@@YAXPEBDZZ 0000000140051070 f   imgui.obj
 0001:000500c0       ?SetTooltipV@ImGui@@YAXPEBDPEAD@Z 00000001400510c0 f   imgui.obj
 0001:00050100       ?OpenPopup@ImGui@@YAXPEBD@Z 0000000140051100 f   imgui.obj
 0001:00050140       ?BeginPopup@ImGui@@YA_NPEBDH@Z 0000000140051140 f   imgui.obj
 0001:000501d0       ?BeginPopupContextItem@ImGui@@YA_NPEBDH@Z 00000001400511d0 f   imgui.obj
 0001:000502b0       ?BeginPopupContextWindow@ImGui@@YA_NPEBDH_N@Z 00000001400512b0 f   imgui.obj
 0001:00050350       ?BeginPopupContextVoid@ImGui@@YA_NPEBDH@Z 0000000140051350 f   imgui.obj
 0001:000503e0       ?BeginPopupModal@ImGui@@YA_NPEBDPEA_NH@Z 00000001400513e0 f   imgui.obj
 0001:00050580       ?EndPopup@ImGui@@YAXXZ     0000000140051580 f   imgui.obj
 0001:00050670       ?OpenPopupOnItemClick@ImGui@@YA_NPEBDH@Z 0000000140051670 f   imgui.obj
 0001:00050730       ?IsPopupOpen@ImGui@@YA_NPEBD@Z 0000000140051730 f   imgui.obj
 0001:000507d0       ?CloseCurrentPopup@ImGui@@YAXXZ 00000001400517d0 f   imgui.obj
 0001:00050930       ?DockSpace@ImGui@@YAXIAEBUImVec2@@HPEBUImGuiWindowClass@@@Z 0000000140051930 f   imgui.obj
 0001:00050e30       ?DockSpaceOverViewport@ImGui@@YAIPEAUImGuiViewport@@HPEBUImGuiWindowClass@@@Z 0000000140051e30 f   imgui.obj
 0001:00050fe0       ?SetNextWindowDockID@ImGui@@YAXIH@Z 0000000140051fe0 f   imgui.obj
 0001:00051060       ?SetNextWindowClass@ImGui@@YAXPEBUImGuiWindowClass@@@Z 0000000140052060 f   imgui.obj
 0001:000510f0       ?GetWindowDockID@ImGui@@YAIXZ 00000001400520f0 f   imgui.obj
 0001:00051120       ?IsWindowDocked@ImGui@@YA_NXZ 0000000140052120 f   imgui.obj
 0001:00051150       ?LogToTTY@ImGui@@YAXH@Z    0000000140052150 f   imgui.obj
 0001:000511b0       ?LogToFile@ImGui@@YAXHPEBD@Z 00000001400521b0 f   imgui.obj
 0001:00051280       ?LogToClipboard@ImGui@@YAXH@Z 0000000140052280 f   imgui.obj
 0001:000512c0       ?LogFinish@ImGui@@YAXXZ    00000001400522c0 f   imgui.obj
 0001:000513f0       ?LogButtons@ImGui@@YAXXZ   00000001400523f0 f   imgui.obj
 0001:00051540       ?LogText@ImGui@@YAXPEBDZZ  0000000140052540 f   imgui.obj
 0001:00051650       ?BeginDragDropSource@ImGui@@YA_NH@Z 0000000140052650 f   imgui.obj
 0001:00051a10       ?SetDragDropPayload@ImGui@@YA_NPEBDPEBX_KH@Z 0000000140052a10 f   imgui.obj
 0001:00051ce0       ?EndDragDropSource@ImGui@@YAXXZ 0000000140052ce0 f   imgui.obj
 0001:00051da0       ?BeginDragDropTarget@ImGui@@YA_NXZ 0000000140052da0 f   imgui.obj
 0001:00051f20       ?AcceptDragDropPayload@ImGui@@YAPEBUImGuiPayload@@PEBDH@Z 0000000140052f20 f   imgui.obj
 0001:000522e0       ?EndDragDropTarget@ImGui@@YAXXZ 00000001400532e0 f   imgui.obj
 0001:00052360       ?GetDragDropPayload@ImGui@@YAPEBUImGuiPayload@@XZ 0000000140053360 f   imgui.obj
 0001:000523b0       ?PushClipRect@ImGui@@YAXAEBUImVec2@@0_N@Z 00000001400533b0 f   imgui.obj
 0001:00052450       ?PopClipRect@ImGui@@YAXXZ  0000000140053450 f   imgui.obj
 0001:000524c0       ?SetItemDefaultFocus@ImGui@@YAXXZ 00000001400534c0 f   imgui.obj
 0001:00052650       ?SetKeyboardFocusHere@ImGui@@YAXH@Z 0000000140053650 f   imgui.obj
 0001:000526e0       ?IsItemHovered@ImGui@@YA_NH@Z 00000001400536e0 f   imgui.obj
 0001:00052890       ?IsItemActive@ImGui@@YA_NXZ 0000000140053890 f   imgui.obj
 0001:00052900       ?IsItemFocused@ImGui@@YA_NXZ 0000000140053900 f   imgui.obj
 0001:00052990       ?IsItemClicked@ImGui@@YA_NH@Z 0000000140053990 f   imgui.obj
 0001:000529e0       ?IsItemVisible@ImGui@@YA_NXZ 00000001400539e0 f   imgui.obj
 0001:00052a20       ?IsItemEdited@ImGui@@YA_NXZ 0000000140053a20 f   imgui.obj
 0001:00052a70       ?IsItemActivated@ImGui@@YA_NXZ 0000000140053a70 f   imgui.obj
 0001:00052ae0       ?IsItemDeactivated@ImGui@@YA_NXZ 0000000140053ae0 f   imgui.obj
 0001:00052ba0       ?IsItemDeactivatedAfterEdit@ImGui@@YA_NXZ 0000000140053ba0 f   imgui.obj
 0001:00052c10       ?IsItemToggledOpen@ImGui@@YA_NXZ 0000000140053c10 f   imgui.obj
 0001:00052c60       ?IsAnyItemHovered@ImGui@@YA_NXZ 0000000140053c60 f   imgui.obj
 0001:00052cb0       ?IsAnyItemActive@ImGui@@YA_NXZ 0000000140053cb0 f   imgui.obj
 0001:00052cf0       ?IsAnyItemFocused@ImGui@@YA_NXZ 0000000140053cf0 f   imgui.obj
 0001:00052d40       ?GetItemRectMin@ImGui@@YA?AUImVec2@@XZ 0000000140053d40 f   imgui.obj
 0001:00052d80       ?GetItemRectMax@ImGui@@YA?AUImVec2@@XZ 0000000140053d80 f   imgui.obj
 0001:00052dc0       ?GetItemRectSize@ImGui@@YA?AUImVec2@@XZ 0000000140053dc0 f   imgui.obj
 0001:00052e00       ?SetItemAllowOverlap@ImGui@@YAXXZ 0000000140053e00 f   imgui.obj
 0001:00052e70       ?IsRectVisible@ImGui@@YA_NAEBUImVec2@@@Z 0000000140053e70 f   imgui.obj
 0001:00052ef0       ?IsRectVisible@ImGui@@YA_NAEBUImVec2@@0@Z 0000000140053ef0 f   imgui.obj
 0001:00052f50       ?GetTime@ImGui@@YANXZ      0000000140053f50 f   imgui.obj
 0001:00052f70       ?GetFrameCount@ImGui@@YAHXZ 0000000140053f70 f   imgui.obj
 0001:00052f90       ?GetBackgroundDrawList@ImGui@@YAPEAUImDrawList@@XZ 0000000140053f90 f   imgui.obj
 0001:00052fc0       ?GetForegroundDrawList@ImGui@@YAPEAUImDrawList@@XZ 0000000140053fc0 f   imgui.obj
 0001:00052ff0       ?GetBackgroundDrawList@ImGui@@YAPEAUImDrawList@@PEAUImGuiViewport@@@Z 0000000140053ff0 f   imgui.obj
 0001:00053020       ?GetForegroundDrawList@ImGui@@YAPEAUImDrawList@@PEAUImGuiViewport@@@Z 0000000140054020 f   imgui.obj
 0001:00053050       ?GetDrawListSharedData@ImGui@@YAPEAUImDrawListSharedData@@XZ 0000000140054050 f   imgui.obj
 0001:00053070       ?GetStyleColorName@ImGui@@YAPEBDH@Z 0000000140054070 f   imgui.obj
 0001:000533e0       ?SetStateStorage@ImGui@@YAXPEAUImGuiStorage@@@Z 00000001400543e0 f   imgui.obj
 0001:00053440       ?GetStateStorage@ImGui@@YAPEAUImGuiStorage@@XZ 0000000140054440 f   imgui.obj
 0001:00053470       ?CalcListClipping@ImGui@@YAXHMPEAH0@Z 0000000140054470 f   imgui.obj
 0001:00053710       ?BeginChildFrame@ImGui@@YA_NIAEBUImVec2@@H@Z 0000000140054710 f   imgui.obj
 0001:000537f0       ?EndChildFrame@ImGui@@YAXXZ 00000001400547f0 f   imgui.obj
 0001:00053810       ?CalcTextSize@ImGui@@YA?AUImVec2@@PEBD0_NM@Z 0000000140054810 f   imgui.obj
 0001:00053950       ?ColorConvertU32ToFloat4@ImGui@@YA?AUImVec4@@I@Z 0000000140054950 f   imgui.obj
 0001:00053a00       ?ColorConvertFloat4ToU32@ImGui@@YAIAEBUImVec4@@@Z 0000000140054a00 f   imgui.obj
 0001:00053ae0       ?ColorConvertRGBtoHSV@ImGui@@YAXMMMAEAM00@Z 0000000140054ae0 f   imgui.obj
 0001:00053c20       ?ColorConvertHSVtoRGB@ImGui@@YAXMMMAEAM00@Z 0000000140054c20 f   imgui.obj
 0001:00053eb0       ?GetKeyIndex@ImGui@@YAHH@Z 0000000140054eb0 f   imgui.obj
 0001:00053f10       ?IsKeyDown@ImGui@@YA_NH@Z  0000000140054f10 f   imgui.obj
 0001:00053f80       ?IsKeyPressed@ImGui@@YA_NH_N@Z 0000000140054f80 f   imgui.obj
 0001:00054070       ?IsKeyReleased@ImGui@@YA_NH@Z 0000000140055070 f   imgui.obj
 0001:00054110       ?GetKeyPressedAmount@ImGui@@YAHHMM@Z 0000000140055110 f   imgui.obj
 0001:000541c0       ?CaptureKeyboardFromApp@ImGui@@YAX_N@Z 00000001400551c0 f   imgui.obj
 0001:00054200       ?IsMouseDown@ImGui@@YA_NH@Z 0000000140055200 f   imgui.obj
 0001:00054260       ?IsMouseClicked@ImGui@@YA_NH_N@Z 0000000140055260 f   imgui.obj
 0001:00054360       ?IsMouseReleased@ImGui@@YA_NH@Z 0000000140055360 f   imgui.obj
 0001:000543c0       ?IsMouseDoubleClicked@ImGui@@YA_NH@Z 00000001400553c0 f   imgui.obj
 0001:00054420       ?IsMouseHoveringRect@ImGui@@YA_NAEBUImVec2@@0_N@Z 0000000140055420 f   imgui.obj
 0001:00054540       ?IsMousePosValid@ImGui@@YA_NPEBUImVec2@@@Z 0000000140055540 f   imgui.obj
 0001:00054600       ?IsAnyMouseDown@ImGui@@YA_NXZ 0000000140055600 f   imgui.obj
 0001:00054650       ?GetMousePos@ImGui@@YA?AUImVec2@@XZ 0000000140055650 f   imgui.obj
 0001:00054690       ?GetMousePosOnOpeningCurrentPopup@ImGui@@YA?AUImVec2@@XZ 0000000140055690 f   imgui.obj
 0001:00054710       ?IsMouseDragging@ImGui@@YA_NHM@Z 0000000140055710 f   imgui.obj
 0001:00054790       ?GetMouseDragDelta@ImGui@@YA?AUImVec2@@HM@Z 0000000140055790 f   imgui.obj
 0001:000548e0       ?ResetMouseDragDelta@ImGui@@YAXH@Z 00000001400558e0 f   imgui.obj
 0001:00054950       ?GetMouseCursor@ImGui@@YAHXZ 0000000140055950 f   imgui.obj
 0001:00054970       ?SetMouseCursor@ImGui@@YAXH@Z 0000000140055970 f   imgui.obj
 0001:00054990       ?CaptureMouseFromApp@ImGui@@YAX_N@Z 0000000140055990 f   imgui.obj
 0001:000549d0       ?GetClipboardText@ImGui@@YAPEBDXZ 00000001400559d0 f   imgui.obj
 0001:00054a30       ?SetClipboardText@ImGui@@YAXPEBD@Z 0000000140055a30 f   imgui.obj
 0001:00054a80       ?LoadIniSettingsFromDisk@ImGui@@YAXPEBD@Z 0000000140055a80 f   imgui.obj
 0001:00054ae0       ?LoadIniSettingsFromMemory@ImGui@@YAXPEBD_K@Z 0000000140055ae0 f   imgui.obj
 0001:00054e90       ?SaveIniSettingsToDisk@ImGui@@YAXPEBD@Z 0000000140055e90 f   imgui.obj
 0001:00054f30       ?SaveIniSettingsToMemory@ImGui@@YAPEBDPEA_K@Z 0000000140055f30 f   imgui.obj
 0001:00055030       ?DebugCheckVersionAndDataLayout@ImGui@@YA_NPEBD_K11111@Z 0000000140056030 f   imgui.obj
 0001:00055270       ?SetAllocatorFunctions@ImGui@@YAXP6APEAX_KPEAX@ZP6AX11@Z1@Z 0000000140056270 f   imgui.obj
 0001:000552b0       ?MemAlloc@ImGui@@YAPEAX_K@Z 00000001400562b0 f   imgui.obj
 0001:00055310       ?MemFree@ImGui@@YAXPEAX@Z  0000000140056310 f   imgui.obj
 0001:00055370       ?GetPlatformIO@ImGui@@YAAEAUImGuiPlatformIO@@XZ 0000000140056370 f   imgui.obj
 0001:000553c0       ?GetMainViewport@ImGui@@YAPEAUImGuiViewport@@XZ 00000001400563c0 f   imgui.obj
 0001:00055400       ?UpdatePlatformWindows@ImGui@@YAXXZ 0000000140056400 f   imgui.obj
 0001:00055ad0       ?RenderPlatformWindowsDefault@ImGui@@YAXPEAX0@Z 0000000140056ad0 f   imgui.obj
 0001:00055c30       ?DestroyPlatformWindows@ImGui@@YAXXZ 0000000140056c30 f   imgui.obj
 0001:00055ca0       ?FindViewportByID@ImGui@@YAPEAUImGuiViewport@@I@Z 0000000140056ca0 f   imgui.obj
 0001:00055d30       ?FindViewportByPlatformHandle@ImGui@@YAPEAUImGuiViewport@@PEAX@Z 0000000140056d30 f   imgui.obj
 0001:00055dc0       ??0ImGuiStyle@@QEAA@XZ     0000000140056dc0 f   imgui.obj
 0001:00056280       ?ScaleAllSizes@ImGuiStyle@@QEAAXM@Z 0000000140057280 f   imgui.obj
 0001:00056690       ?AddInputCharacter@ImGuiIO@@QEAAXI@Z 0000000140057690 f   imgui.obj
 0001:000566f0       ?AddInputCharacterUTF16@ImGuiIO@@QEAAXG@Z 00000001400576f0 f   imgui.obj
 0001:00056810       ?AddInputCharactersUTF8@ImGuiIO@@QEAAXPEBD@Z 0000000140057810 f   imgui.obj
 0001:00056890       ?ClearInputCharacters@ImGuiIO@@QEAAXXZ 0000000140057890 f   imgui.obj
 0001:000568c0       ??0ImGuiIO@@QEAA@XZ        00000001400578c0 f   imgui.obj
 0001:00056db0       ??0ImGuiTextFilter@@QEAA@PEBD@Z 0000000140057db0 f   imgui.obj
 0001:00056e30       ?Draw@ImGuiTextFilter@@QEAA_NPEBDM@Z 0000000140057e30 f   imgui.obj
 0001:00056ec0       ?PassFilter@ImGuiTextFilter@@QEBA_NPEBD0@Z 0000000140057ec0 f   imgui.obj
 0001:00057000       ?Build@ImGuiTextFilter@@QEAAXXZ 0000000140058000 f   imgui.obj
 0001:000571e0       ?split@ImGuiTextRange@ImGuiTextFilter@@QEBAXDPEAU?$ImVector@UImGuiTextRange@ImGuiTextFilter@@@@@Z 00000001400581e0 f   imgui.obj
 0001:000572b0       ?append@ImGuiTextBuffer@@QEAAXPEBD0@Z 00000001400582b0 f   imgui.obj
 0001:00057440       ?appendf@ImGuiTextBuffer@@QEAAXPEBDZZ 0000000140058440 f   imgui.obj
 0001:00057490       ?appendfv@ImGuiTextBuffer@@QEAAXPEBDPEAD@Z 0000000140058490 f   imgui.obj
 0001:000575d0       ?GetInt@ImGuiStorage@@QEBAHIH@Z 00000001400585d0 f   imgui.obj
 0001:00057640       ?SetInt@ImGuiStorage@@QEAAXIH@Z 0000000140058640 f   imgui.obj
 0001:000576d0       ?GetBool@ImGuiStorage@@QEBA_NI_N@Z 00000001400586d0 f   imgui.obj
 0001:00057740       ?SetBool@ImGuiStorage@@QEAAXI_N@Z 0000000140058740 f   imgui.obj
 0001:00057790       ?GetFloat@ImGuiStorage@@QEBAMIM@Z 0000000140058790 f   imgui.obj
 0001:00057800       ?SetFloat@ImGuiStorage@@QEAAXIM@Z 0000000140058800 f   imgui.obj
 0001:00057890       ?GetVoidPtr@ImGuiStorage@@QEBAPEAXI@Z 0000000140058890 f   imgui.obj
 0001:000578f0       ?SetVoidPtr@ImGuiStorage@@QEAAXIPEAX@Z 00000001400588f0 f   imgui.obj
 0001:00057980       ?GetIntRef@ImGuiStorage@@QEAAPEAHIH@Z 0000000140058980 f   imgui.obj
 0001:00057a10       ?GetBoolRef@ImGuiStorage@@QEAAPEA_NI_N@Z 0000000140058a10 f   imgui.obj
 0001:00057a60       ?GetFloatRef@ImGuiStorage@@QEAAPEAMIM@Z 0000000140058a60 f   imgui.obj
 0001:00057af0       ?GetVoidPtrRef@ImGuiStorage@@QEAAPEAPEAXIPEAX@Z 0000000140058af0 f   imgui.obj
 0001:00057b80       ?SetAllInt@ImGuiStorage@@QEAAXH@Z 0000000140058b80 f   imgui.obj
 0001:00057be0       ?BuildSortByKey@ImGuiStorage@@QEAAXXZ 0000000140058be0 f   imgui.obj
 0001:00057c30       ?Step@ImGuiListClipper@@QEAA_NXZ 0000000140058c30 f   imgui.obj
 0001:00057e00       ?Begin@ImGuiListClipper@@QEAAXHM@Z 0000000140058e00 f   imgui.obj
 0001:00057f20       ?End@ImGuiListClipper@@QEAAXXZ 0000000140058f20 f   imgui.obj
 0001:00057fa0       ?ImHashData@@YAIPEBX_KI@Z  0000000140058fa0 f   imgui.obj
 0001:00058040       ?ImHashStr@@YAIPEBD_KI@Z   0000000140059040 f   imgui.obj
 0001:000581e0       ?ImAlphaBlendColors@@YAIII@Z 00000001400591e0 f   imgui.obj
 0001:000582f0       ?ImStricmp@@YAHPEBD0@Z     00000001400592f0 f   imgui.obj
 0001:00058370       ?ImStrnicmp@@YAHPEBD0_K@Z  0000000140059370 f   imgui.obj
 0001:00058410       ?ImStrncpy@@YAXPEADPEBD_K@Z 0000000140059410 f   imgui.obj
 0001:00058470       ?ImStrdup@@YAPEADPEBD@Z    0000000140059470 f   imgui.obj
 0001:000584f0       ?ImStrdupcpy@@YAPEADPEADPEA_KPEBD@Z 00000001400594f0 f   imgui.obj
 0001:00058610       ?ImStrchrRange@@YAPEBDPEBD0D@Z 0000000140059610 f   imgui.obj
 0001:00058660       ?ImStrlenW@@YAHPEBG@Z      0000000140059660 f   imgui.obj
 0001:000586b0       ?ImStreolRange@@YAPEBDPEBD0@Z 00000001400596b0 f   imgui.obj
 0001:00058720       ?ImStrbolW@@YAPEBGPEBG0@Z  0000000140059720 f   imgui.obj
 0001:00058770       ?ImStristr@@YAPEBDPEBD000@Z 0000000140059770 f   imgui.obj
 0001:000588d0       ?ImStrTrimBlanks@@YAXPEAD@Z 00000001400598d0 f   imgui.obj
 0001:000589e0       ?ImStrSkipBlank@@YAPEBDPEBD@Z 00000001400599e0 f   imgui.obj
 0001:00058a30       ?ImFormatString@@YAHPEAD_KPEBDZZ 0000000140059a30 f   imgui.obj
 0001:00058ac0       ?ImFormatStringV@@YAHPEAD_KPEBD0@Z 0000000140059ac0 f   imgui.obj
 0001:00058b80       ?ImTextStrToUtf8@@YAHPEADHPEBG1@Z 0000000140059b80 f   imgui.obj
 0001:00058c90       ?ImTextCharFromUtf8@@YAHPEAIPEBD1@Z 0000000140059c90 f   imgui.obj
 0001:00059160       ?ImTextStrFromUtf8@@YAHPEAGHPEBD1PEAPEBD@Z 000000014005a160 f   imgui.obj
 0001:00059250       ?ImTextCountCharsFromUtf8@@YAHPEBD0@Z 000000014005a250 f   imgui.obj
 0001:000592d0       ?ImTextCountUtf8BytesFromChar@@YAHPEBD0@Z 000000014005a2d0 f   imgui.obj
 0001:00059310       ?ImTextCountUtf8BytesFromStr@@YAHPEBG0@Z 000000014005a310 f   imgui.obj
 0001:00059750       ?ImFileOpen@@YAPEAU_iobuf@@PEBD0@Z 000000014005a750 f   imgui.obj
 0001:00059890       ?ImFileClose@@YA_NPEAU_iobuf@@@Z 000000014005a890 f   imgui.obj
 0001:000598d0       ?ImFileGetSize@@YA_KPEAU_iobuf@@@Z 000000014005a8d0 f   imgui.obj
 0001:00059970       ?ImFileRead@@YA_KPEAX_K1PEAU_iobuf@@@Z 000000014005a970 f   imgui.obj
 0001:000599b0       ?ImFileWrite@@YA_KPEBX_K1PEAU_iobuf@@@Z 000000014005a9b0 f   imgui.obj
 0001:000599f0       ?ImFileLoadToMemory@@YAPEAXPEBD0PEA_KH@Z 000000014005a9f0 f   imgui.obj
 0001:0005a040       ?ImBezierClosestPoint@@YA?AUImVec2@@AEBU1@0000H@Z 000000014005b040 f   imgui.obj
 0001:0005a1d0       ?ImBezierClosestPointCasteljau@@YA?AUImVec2@@AEBU1@0000M@Z 000000014005b1d0 f   imgui.obj
 0001:0005a340       ?ImLineClosestPoint@@YA?AUImVec2@@AEBU1@00@Z 000000014005b340 f   imgui.obj
 0001:0005a460       ?ImTriangleContainsPoint@@YA_NAEBUImVec2@@000@Z 000000014005b460 f   imgui.obj
 0001:0005a630       ?ImTriangleClosestPoint@@YA?AUImVec2@@AEBU1@000@Z 000000014005b630 f   imgui.obj
 0001:0005a7a0       ?ImTriangleBarycentricCoords@@YAXAEBUImVec2@@000AEAM11@Z 000000014005b7a0 f   imgui.obj
 0001:0005a8a0       ?ImGetDirQuadrantFromDelta@@YAHMM@Z 000000014005b8a0 f   imgui.obj
 0001:0005a970       ?FlattenIntoSingleLayer@ImDrawDataBuilder@@QEAAXXZ 000000014005b970 f   imgui.obj
 0001:0005aad0       ??0ImGuiDockNode@@QEAA@I@Z 000000014005bad0 f   imgui.obj
 0001:0005add0       ??1ImGuiDockNode@@QEAA@XZ  000000014005bdd0 f   imgui.obj
 0001:0005ae40       ??0ImGuiWindow@@QEAA@PEAUImGuiContext@@PEBD@Z 000000014005be40 f   imgui.obj
 0001:0005b900       ??1ImGuiWindow@@QEAA@XZ    000000014005c900 f   imgui.obj
 0001:0005ba00       ?GetID@ImGuiWindow@@QEAAIPEBD0@Z 000000014005ca00 f   imgui.obj
 0001:0005ba90       ?GetID@ImGuiWindow@@QEAAIPEBX@Z 000000014005ca90 f   imgui.obj
 0001:0005baf0       ?GetID@ImGuiWindow@@QEAAIH@Z 000000014005caf0 f   imgui.obj
 0001:0005bb50       ?GetIDNoKeepAlive@ImGuiWindow@@QEAAIPEBD0@Z 000000014005cb50 f   imgui.obj
 0001:0005bbd0       ?GetIDNoKeepAlive@ImGuiWindow@@QEAAIPEBX@Z 000000014005cbd0 f   imgui.obj
 0001:0005bc20       ?GetIDNoKeepAlive@ImGuiWindow@@QEAAIH@Z 000000014005cc20 f   imgui.obj
 0001:0005bc70       ?GetIDFromRectangle@ImGuiWindow@@QEAAIAEBUImRect@@@Z 000000014005cc70 f   imgui.obj
 0001:0005bd60       ?FindWindowByID@ImGui@@YAPEAUImGuiWindow@@I@Z 000000014005cd60 f   imgui.obj
 0001:0005bda0       ?FindWindowByName@ImGui@@YAPEAUImGuiWindow@@PEBD@Z 000000014005cda0 f   imgui.obj
 0001:0005bdd0       ?UpdateWindowParentAndRootLinks@ImGui@@YAXPEAUImGuiWindow@@H0@Z 000000014005cdd0 f   imgui.obj
 0001:0005bf60       ?CalcWindowExpectedSize@ImGui@@YA?AUImVec2@@PEAUImGuiWindow@@@Z 000000014005cf60 f   imgui.obj
 0001:0005bfd0       ?IsWindowChildOf@ImGui@@YA_NPEAUImGuiWindow@@0@Z 000000014005cfd0 f   imgui.obj
 0001:0005c030       ?IsWindowNavFocusable@ImGui@@YA_NPEAUImGuiWindow@@@Z 000000014005d030 f   imgui.obj
 0001:0005c090       ?GetWindowAllowedExtentRect@ImGui@@YA?AUImRect@@PEAUImGuiWindow@@@Z 000000014005d090 f   imgui.obj
 0001:0005c250       ?SetWindowPos@ImGui@@YAXPEAUImGuiWindow@@AEBUImVec2@@H@Z 000000014005d250 f   imgui.obj
 0001:0005c390       ?SetWindowSize@ImGui@@YAXPEAUImGuiWindow@@AEBUImVec2@@H@Z 000000014005d390 f   imgui.obj
 0001:0005c4b0       ?SetWindowCollapsed@ImGui@@YAXPEAUImGuiWindow@@_NH@Z 000000014005d4b0 f   imgui.obj
 0001:0005c510       ?FocusWindow@ImGui@@YAXPEAUImGuiWindow@@@Z 000000014005d510 f   imgui.obj
 0001:0005c750       ?FocusTopMostWindowUnderOne@ImGui@@YAXPEAUImGuiWindow@@0@Z 000000014005d750 f   imgui.obj
 0001:0005c860       ?BringWindowToFocusFront@ImGui@@YAXPEAUImGuiWindow@@@Z 000000014005d860 f   imgui.obj
 0001:0005c9a0       ?BringWindowToDisplayFront@ImGui@@YAXPEAUImGuiWindow@@@Z 000000014005d9a0 f   imgui.obj
 0001:0005caf0       ?BringWindowToDisplayBack@ImGui@@YAXPEAUImGuiWindow@@@Z 000000014005daf0 f   imgui.obj
 0001:0005cc00       ?SetCurrentFont@ImGui@@YAXPEAUImFont@@@Z 000000014005dc00 f   imgui.obj
 0001:0005cd80       ?Initialize@ImGui@@YAXPEAUImGuiContext@@@Z 000000014005dd80 f   imgui.obj
 0001:0005cf70       ?Shutdown@ImGui@@YAXPEAUImGuiContext@@@Z 000000014005df70 f   imgui.obj
 0001:0005d3a0       ?UpdateHoveredWindowAndCaptureFlags@ImGui@@YAXXZ 000000014005e3a0 f   imgui.obj
 0001:0005d820       ?StartMouseMovingWindow@ImGui@@YAXPEAUImGuiWindow@@@Z 000000014005e820 f   imgui.obj
 0001:0005d940       ?StartMouseMovingWindowOrNode@ImGui@@YAXPEAUImGuiWindow@@PEAUImGuiDockNode@@_N@Z 000000014005e940 f   imgui.obj
 0001:0005db00       ?UpdateMouseMovingWindowNewFrame@ImGui@@YAXXZ 000000014005eb00 f   imgui.obj
 0001:0005dd50       ?UpdateMouseMovingWindowEndFrame@ImGui@@YAXXZ 000000014005ed50 f   imgui.obj
 0001:0005dfc0       ?TranslateWindowsInViewport@ImGui@@YAXPEAUImGuiViewportP@@AEBUImVec2@@1@Z 000000014005efc0 f   imgui.obj
 0001:0005e160       ?ScaleWindowsInViewport@ImGui@@YAXPEAUImGuiViewportP@@M@Z 000000014005f160 f   imgui.obj
 0001:0005e220       ?DestroyPlatformWindow@ImGui@@YAXPEAUImGuiViewportP@@@Z 000000014005f220 f   imgui.obj
 0001:0005e350       ?ShowViewportThumbnails@ImGui@@YAXXZ 000000014005f350 f   imgui.obj
 0001:0005e570       ?MarkIniSettingsDirty@ImGui@@YAXXZ 000000014005f570 f   imgui.obj
 0001:0005e5b0       ?MarkIniSettingsDirty@ImGui@@YAXPEAUImGuiWindow@@@Z 000000014005f5b0 f   imgui.obj
 0001:0005e610       ?CreateNewWindowSettings@ImGui@@YAPEAUImGuiWindowSettings@@PEBD@Z 000000014005f610 f   imgui.obj
 0001:0005e750       ?FindWindowSettings@ImGui@@YAPEAUImGuiWindowSettings@@I@Z 000000014005f750 f   imgui.obj
 0001:0005e7d0       ?FindOrCreateWindowSettings@ImGui@@YAPEAUImGuiWindowSettings@@PEBD@Z 000000014005f7d0 f   imgui.obj
 0001:0005e820       ?FindSettingsHandler@ImGui@@YAPEAUImGuiSettingsHandler@@PEBD@Z 000000014005f820 f   imgui.obj
 0001:0005e8c0       ?SetNextWindowScroll@ImGui@@YAXAEBUImVec2@@@Z 000000014005f8c0 f   imgui.obj
 0001:0005e910       ?SetScrollX@ImGui@@YAXPEAUImGuiWindow@@M@Z 000000014005f910 f   imgui.obj
 0001:0005e950       ?SetScrollY@ImGui@@YAXPEAUImGuiWindow@@M@Z 000000014005f950 f   imgui.obj
 0001:0005e990       ?SetScrollFromPosX@ImGui@@YAXPEAUImGuiWindow@@MM@Z 000000014005f990 f   imgui.obj
 0001:0005ea30       ?SetScrollFromPosY@ImGui@@YAXPEAUImGuiWindow@@MM@Z 000000014005fa30 f   imgui.obj
 0001:0005eb10       ?ScrollToBringRectIntoView@ImGui@@YA?AUImVec2@@PEAUImGuiWindow@@AEBUImRect@@@Z 000000014005fb10 f   imgui.obj
 0001:0005ee60       ?SetActiveID@ImGui@@YAXIPEAUImGuiWindow@@@Z 000000014005fe60 f   imgui.obj
 0001:0005f000       ?SetFocusID@ImGui@@YAXIPEAUImGuiWindow@@@Z 0000000140060000 f   imgui.obj
 0001:0005f1c0       ?ClearActiveID@ImGui@@YAXXZ 00000001400601c0 f   imgui.obj
 0001:0005f1e0       ?GetHoveredID@ImGui@@YAIXZ 00000001400601e0 f   imgui.obj
 0001:0005f230       ?SetHoveredID@ImGui@@YAXI@Z 0000000140060230 f   imgui.obj
 0001:0005f2a0       ?KeepAliveID@ImGui@@YAXI@Z 00000001400602a0 f   imgui.obj
 0001:0005f300       ?MarkItemEdited@ImGui@@YAXI@Z 0000000140060300 f   imgui.obj
 0001:0005f3b0       ?PushOverrideID@ImGui@@YAXI@Z 00000001400603b0 f   imgui.obj
 0001:0005f400       ?ItemSize@ImGui@@YAXAEBUImVec2@@M@Z 0000000140060400 f   imgui.obj
 0001:0005f650       ?ItemSize@ImGui@@YAXAEBUImRect@@M@Z 0000000140060650 f   imgui.obj
 0001:0005f690       ?ItemAdd@ImGui@@YA_NAEBUImRect@@IPEBU2@@Z 0000000140060690 f   imgui.obj
 0001:0005f860       ?ItemHoverable@ImGui@@YA_NAEBUImRect@@I@Z 0000000140060860 f   imgui.obj
 0001:0005fa20       ?IsClippedEx@ImGui@@YA_NAEBUImRect@@I_N@Z 0000000140060a20 f   imgui.obj
 0001:0005fad0       ?FocusableItemRegister@ImGui@@YA_NPEAUImGuiWindow@@I@Z 0000000140060ad0 f   imgui.obj
 0001:0005fc80       ?FocusableItemUnregister@ImGui@@YAXPEAUImGuiWindow@@@Z 0000000140060c80 f   imgui.obj
 0001:0005fcc0       ?CalcItemSize@ImGui@@YA?AUImVec2@@U2@MM@Z 0000000140060cc0 f   imgui.obj
 0001:0005fe00       ?CalcWrapWidthForPos@ImGui@@YAMAEBUImVec2@@M@Z 0000000140060e00 f   imgui.obj
 0001:0005fec0       ?PushMultiItemsWidths@ImGui@@YAXHM@Z 0000000140060ec0 f   imgui.obj
 0001:00060030       ?PushItemFlag@ImGui@@YAXH_N@Z 0000000140061030 f   imgui.obj
 0001:000600c0       ?PopItemFlag@ImGui@@YAXXZ  00000001400610c0 f   imgui.obj
 0001:00060140       ?IsItemToggledSelection@ImGui@@YA_NXZ 0000000140061140 f   imgui.obj
 0001:00060190       ?GetContentRegionMaxAbs@ImGui@@YA?AUImVec2@@XZ 0000000140061190 f   imgui.obj
 0001:00060210       ?LogBegin@ImGui@@YAXW4ImGuiLogType@@H@Z 0000000140061210 f   imgui.obj
 0001:00060350       ?LogToBuffer@ImGui@@YAXH@Z 0000000140061350 f   imgui.obj
 0001:00060390       ?BeginChildEx@ImGui@@YA_NPEBDIAEBUImVec2@@_NH@Z 0000000140061390 f   imgui.obj
 0001:000606a0       ?OpenPopupEx@ImGui@@YAXI@Z 00000001400616a0 f   imgui.obj
 0001:00060880       ?ClosePopupToLevel@ImGui@@YAXH_N@Z 0000000140061880 f   imgui.obj
 0001:000609a0       ?ClosePopupsOverWindow@ImGui@@YAXPEAUImGuiWindow@@_N@Z 00000001400619a0 f   imgui.obj
 0001:00060b40       ?IsPopupOpen@ImGui@@YA_NI@Z 0000000140061b40 f   imgui.obj
 0001:00060bc0       ?BeginPopupEx@ImGui@@YA_NIH@Z 0000000140061bc0 f   imgui.obj
 0001:00060cb0       ?BeginTooltipEx@ImGui@@YAXHH@Z 0000000140061cb0 f   imgui.obj
 0001:00060e90       ?GetTopMostPopupModal@ImGui@@YAPEAUImGuiWindow@@XZ 0000000140061e90 f   imgui.obj
 0001:00060f10       ?FindBestWindowPosForPopup@ImGui@@YA?AUImVec2@@PEAUImGuiWindow@@@Z 0000000140061f10 f   imgui.obj
 0001:00061470       ?FindBestWindowPosForPopupEx@ImGui@@YA?AUImVec2@@AEBU2@0PEAHAEBUImRect@@2W4ImGuiPopupPositionPolicy@@@Z 0000000140062470 f   imgui.obj
 0001:00061af0       ?NavInitWindow@ImGui@@YAXPEAUImGuiWindow@@_N@Z 0000000140062af0 f   imgui.obj
 0001:00061c40       ?NavMoveRequestButNoResultYet@ImGui@@YA_NXZ 0000000140062c40 f   imgui.obj
 0001:00061ca0       ?NavMoveRequestCancel@ImGui@@YAXXZ 0000000140062ca0 f   imgui.obj
 0001:00061cd0       ?NavMoveRequestForward@ImGui@@YAXHHAEBUImRect@@H@Z 0000000140062cd0 f   imgui.obj
 0001:00061da0       ?NavMoveRequestTryWrapping@ImGui@@YAXPEAUImGuiWindow@@H@Z 0000000140062da0 f   imgui.obj
 0001:00062100       ?GetNavInputAmount@ImGui@@YAMHW4ImGuiInputReadMode@@@Z 0000000140063100 f   imgui.obj
 0001:00062330       ?GetNavInputAmount2d@ImGui@@YA?AUImVec2@@HW4ImGuiInputReadMode@@MM@Z 0000000140063330 f   imgui.obj
 0001:000625e0       ?CalcTypematicRepeatAmount@ImGui@@YAHMMMM@Z 00000001400635e0 f   imgui.obj
 0001:00062700       ?ActivateItem@ImGui@@YAXI@Z 0000000140063700 f   imgui.obj
 0001:00062730       ?SetNavID@ImGui@@YAXIHI@Z  0000000140063730 f   imgui.obj
 0001:000627f0       ?SetNavIDWithRectRel@ImGui@@YAXIHIAEBUImRect@@@Z 00000001400637f0 f   imgui.obj
 0001:00062880       ?PushFocusScope@ImGui@@YAXI@Z 0000000140063880 f   imgui.obj
 0001:000628e0       ?PopFocusScope@ImGui@@YAXXZ 00000001400638e0 f   imgui.obj
 0001:00062940       ?IsMouseDragPastThreshold@ImGui@@YA_NHM@Z 0000000140063940 f   imgui.obj
 0001:000629f0       ?GetMergedKeyModFlags@ImGui@@YAHXZ 00000001400639f0 f   imgui.obj
 0001:00062a80       ?DockContextInitialize@ImGui@@YAXPEAUImGuiContext@@@Z 0000000140063a80 f   imgui.obj
 0001:00062b90       ?DockContextShutdown@ImGui@@YAXPEAUImGuiContext@@@Z 0000000140063b90 f   imgui.obj
 0001:00062c30       ?DockContextOnLoadSettings@ImGui@@YAXPEAUImGuiContext@@@Z 0000000140063c30 f   imgui.obj
 0001:00062c80       ?DockContextRebuildNodes@ImGui@@YAXPEAUImGuiContext@@@Z 0000000140063c80 f   imgui.obj
 0001:00062cf0       ?DockContextUpdateUndocking@ImGui@@YAXPEAUImGuiContext@@@Z 0000000140063cf0 f   imgui.obj
 0001:00062ea0       ?DockContextUpdateDocking@ImGui@@YAXPEAUImGuiContext@@@Z 0000000140063ea0 f   imgui.obj
 0001:00062fc0       ?DockContextGenNodeID@ImGui@@YAIPEAUImGuiContext@@@Z 0000000140063fc0 f   imgui.obj
 0001:00063000       ?DockContextQueueDock@ImGui@@YAXPEAUImGuiContext@@PEAUImGuiWindow@@PEAUImGuiDockNode@@1HM_N@Z 0000000140064000 f   imgui.obj
 0001:000630d0       ?DockContextQueueUndockWindow@ImGui@@YAXPEAUImGuiContext@@PEAUImGuiWindow@@@Z 00000001400640d0 f   imgui.obj
 0001:00063130       ?DockContextQueueUndockNode@ImGui@@YAXPEAUImGuiContext@@PEAUImGuiDockNode@@@Z 0000000140064130 f   imgui.obj
 0001:00063190       ?DockContextCalcDropPosForDocking@ImGui@@YA_NPEAUImGuiWindow@@PEAUImGuiDockNode@@0H_NPEAUImVec2@@@Z 0000000140064190 f   imgui.obj
 0001:000632d0       ?GetWindowAlwaysWantOwnTabBar@ImGui@@YA_NPEAUImGuiWindow@@@Z 00000001400642d0 f   imgui.obj
 0001:00063340       ?BeginDocked@ImGui@@YAXPEAUImGuiWindow@@PEA_N@Z 0000000140064340 f   imgui.obj
 0001:00063940       ?BeginDockableDragDropSource@ImGui@@YAXPEAUImGuiWindow@@@Z 0000000140064940 f   imgui.obj
 0001:00063ad0       ?BeginDockableDragDropTarget@ImGui@@YAXPEAUImGuiWindow@@@Z 0000000140064ad0 f   imgui.obj
 0001:00064000       ?SetWindowDock@ImGui@@YAXPEAUImGuiWindow@@IH@Z 0000000140065000 f   imgui.obj
 0001:00064170       ?DockBuilderDockWindow@ImGui@@YAXPEBDI@Z 0000000140065170 f   imgui.obj
 0001:00064220       ?DockBuilderGetNode@ImGui@@YAPEAUImGuiDockNode@@I@Z 0000000140065220 f   imgui.obj
 0001:00064250       ?DockBuilderAddNode@ImGui@@YAIIH@Z 0000000140065250 f   imgui.obj
 0001:00064340       ?DockBuilderRemoveNode@ImGui@@YAXI@Z 0000000140065340 f   imgui.obj
 0001:000643e0       ?DockBuilderRemoveNodeDockedWindows@ImGui@@YAXI_N@Z 00000001400653e0 f   imgui.obj
 0001:00064610       ?DockBuilderRemoveNodeChildNodes@ImGui@@YAXI@Z 0000000140065610 f   imgui.obj
 0001:000649d0       ?DockBuilderSetNodePos@ImGui@@YAXIUImVec2@@@Z 00000001400659d0 f   imgui.obj
 0001:00064a40       ?DockBuilderSetNodeSize@ImGui@@YAXIUImVec2@@@Z 0000000140065a40 f   imgui.obj
 0001:00064b00       ?DockBuilderSplitNode@ImGui@@YAIIHMPEAI0@Z 0000000140065b00 f   imgui.obj
 0001:00064d20       ?DockBuilderCopyDockSpace@ImGui@@YAXIIPEAU?$ImVector@PEBD@@@Z 0000000140065d20 f   imgui.obj
 0001:00065070       ?DockBuilderCopyNode@ImGui@@YAXIIPEAU?$ImVector@I@@@Z 0000000140066070 f   imgui.obj
 0001:00065190       ?DockBuilderCopyWindowSettings@ImGui@@YAXPEBD0@Z 0000000140066190 f   imgui.obj
 0001:000652f0       ?DockBuilderFinish@ImGui@@YAXI@Z 00000001400662f0 f   imgui.obj
 0001:00065320       ?BeginDragDropTargetCustom@ImGui@@YA_NAEBUImRect@@I@Z 0000000140066320 f   imgui.obj
 0001:00065480       ?ClearDragDrop@ImGui@@YAXXZ 0000000140066480 f   imgui.obj
 0001:00065540       ?IsDragDropPayloadBeingAccepted@ImGui@@YA_NXZ 0000000140066540 f   imgui.obj
 0001:00065590       ?RenderText@ImGui@@YAXUImVec2@@PEBD1_N@Z 0000000140066590 f   imgui.obj
 0001:00065710       ?RenderTextWrapped@ImGui@@YAXUImVec2@@PEBD1M@Z 0000000140066710 f   imgui.obj
 0001:00065860       ?RenderTextClipped@ImGui@@YAXAEBUImVec2@@0PEBD1PEBU2@0PEBUImRect@@@Z 0000000140066860 f   imgui.obj
 0001:00065960       ?RenderTextClippedEx@ImGui@@YAXPEAUImDrawList@@AEBUImVec2@@1PEBD2PEBU3@1PEBUImRect@@@Z 0000000140066960 f   imgui.obj
 0001:00065cd0       ?RenderTextEllipsis@ImGui@@YAXPEAUImDrawList@@AEBUImVec2@@1MMPEBD2PEBU3@@Z 0000000140066cd0 f   imgui.obj
 0001:000662e0       ?RenderFrame@ImGui@@YAXUImVec2@@0I_NM@Z 00000001400672e0 f   imgui.obj
 0001:000664c0       ?RenderFrameBorder@ImGui@@YAXUImVec2@@0M@Z 00000001400674c0 f   imgui.obj
 0001:00066640       ?RenderNavHighlight@ImGui@@YAXAEBUImRect@@IH@Z 0000000140067640 f   imgui.obj
 0001:00066920       ?FindRenderedTextEnd@ImGui@@YAPEBDPEBD0@Z 0000000140067920 f   imgui.obj
 0001:000669b0       ?LogRenderedText@ImGui@@YAXPEBUImVec2@@PEBD1@Z 00000001400679b0 f   imgui.obj
 0001:00066c50       ?GetWindowResizeID@ImGui@@YAIPEAUImGuiWindow@@H@Z 0000000140067c50 f   imgui.obj
 0001:00066d10       ?GcCompactTransientWindowBuffers@ImGui@@YAXPEAUImGuiWindow@@@Z 0000000140067d10 f   imgui.obj
 0001:00066df0       ?GcAwakeTransientWindowBuffers@ImGui@@YAXPEAUImGuiWindow@@@Z 0000000140067df0 f   imgui.obj
 0001:00080710       ??$IM_DELETE@D@@YAXPEAD@Z  0000000140081710 f i imgui.obj
 0001:00080730       ??$IM_DELETE@UImDrawList@@@@YAXPEAUImDrawList@@@Z 0000000140081730 f i imgui.obj
 0001:00080760       ??$IM_DELETE@UImFontAtlas@@@@YAXPEAUImFontAtlas@@@Z 0000000140081760 f i imgui.obj
 0001:00080790       ??$IM_DELETE@UImGuiContext@@@@YAXPEAUImGuiContext@@@Z 0000000140081790 f i imgui.obj
 0001:000807c0       ??$IM_DELETE@UImGuiDockContext@@@@YAXPEAUImGuiDockContext@@@Z 00000001400817c0 f i imgui.obj
 0001:000807f0       ??$IM_DELETE@UImGuiDockNode@@@@YAXPEAUImGuiDockNode@@@Z 00000001400817f0 f i imgui.obj
 0001:00080820       ??$IM_DELETE@UImGuiTabBar@@@@YAXPEAUImGuiTabBar@@@Z 0000000140081820 f i imgui.obj
 0001:00080850       ??$IM_DELETE@UImGuiViewportP@@@@YAXPEAUImGuiViewportP@@@Z 0000000140081850 f i imgui.obj
 0001:00080880       ??$IM_DELETE@UImGuiWindow@@@@YAXPEAUImGuiWindow@@@Z 0000000140081880 f i imgui.obj
 0001:000808b0       ??0?$ImChunkStream@UImGuiWindowSettings@@@@QEAA@XZ 00000001400818b0 f i imgui.obj
 0001:000808b0       ??0ImGuiTextBuffer@@QEAA@XZ 00000001400818b0 f i imgui.obj
 0001:000808d0       ??0?$ImPool@UImGuiTabBar@@@@QEAA@XZ 00000001400818d0 f i imgui.obj
 0001:000808d0       ??0?$ImPool@UImGuiDockContextPruneNodeData@@@@QEAA@XZ 00000001400818d0 f i imgui.obj
 0001:00080910       ??0?$ImVector@UImGuiTextRange@ImGuiTextFilter@@@@QEAA@XZ 0000000140081910 f i imgui.obj
 0001:00080910       ??0?$ImVector@PEAUMyDocument@@@@QEAA@XZ 0000000140081910 f i imgui_demo.obj
 0001:00080910       ??0?$ImVector@UImGuiStoragePair@ImGuiStorage@@@@QEAA@XZ 0000000140081910 f i imgui.obj
 0001:00080910       ??0?$ImVector@PEAUImFont@@@@QEAA@XZ 0000000140081910 f i imgui.obj
 0001:00080910       ??0?$ImVector@UImDrawChannel@@@@QEAA@XZ 0000000140081910 f i imgui.obj
 0001:00080910       ??0?$ImVector@UImGuiStyleMod@@@@QEAA@XZ 0000000140081910 f i imgui.obj
 0001:00080910       ??0?$ImVector@PEAX@@QEAA@XZ 0000000140081910 f i imgui.obj
 0001:00080910       ??0?$ImVector@UMyDocument@@@@QEAA@XZ 0000000140081910 f i imgui_demo.obj
 0001:00080910       ??0?$ImVector@PEAUImDrawList@@@@QEAA@XZ 0000000140081910 f i imgui.obj
 0001:00080910       ??0?$ImVector@UImFontBuildSrcData@@@@QEAA@XZ 0000000140081910 f i imgui_draw.obj
 0001:00080910       ??0?$ImVector@UImGuiPtrOrIndex@@@@QEAA@XZ 0000000140081910 f i imgui.obj
 0001:00080910       ??0?$ImVector@Ustbtt_packedchar@@@@QEAA@XZ 0000000140081910 f i imgui_draw.obj
 0001:00080910       ??0?$ImVector@UImGuiGroupData@@@@QEAA@XZ 0000000140081910 f i imgui.obj
 0001:00080910       ??0?$ImVector@UImFontAtlasCustomRect@@@@QEAA@XZ 0000000140081910 f i imgui_draw.obj
 0001:00080910       ??0?$ImVector@UImFontConfig@@@@QEAA@XZ 0000000140081910 f i imgui_draw.obj
 0001:00080910       ??0?$ImVector@UImDrawCmd@@@@QEAA@XZ 0000000140081910 f i imgui.obj
 0001:00080910       ??0?$ImVector@Ustbrp_rect@@@@QEAA@XZ 0000000140081910 f i imgui_draw.obj
 0001:00080910       ??0?$ImVector@PEAUImGuiWindow@@@@QEAA@XZ 0000000140081910 f i imgui.obj
 0001:00080910       ??0?$ImVector@UImGuiColumns@@@@QEAA@XZ 0000000140081910 f i imgui.obj
 0001:00080910       ??0?$ImVector@UImGuiTabBar@@@@QEAA@XZ 0000000140081910 f i imgui.obj
 0001:00080910       ??0?$ImVector@I@@QEAA@XZ   0000000140081910 f i imgui.obj
 0001:00080910       ??0?$ImVector@PEAUImGuiViewport@@@@QEAA@XZ 0000000140081910 f i imgui.obj
 0001:00080910       ??0?$ImVector@UImGuiPlatformMonitor@@@@QEAA@XZ 0000000140081910 f i imgui.obj
 0001:00080910       ??0?$ImVector@UImVec2@@@@QEAA@XZ 0000000140081910 f i imgui.obj
 0001:00080910       ??0?$ImVector@UImGuiShrinkWidthItem@@@@QEAA@XZ 0000000140081910 f i imgui.obj
 0001:00080910       ??0?$ImVector@H@@QEAA@XZ   0000000140081910 f i imgui.obj
 0001:00080910       ??0?$ImVector@E@@QEAA@XZ   0000000140081910 f i imgui.obj
 0001:00080910       ??0?$ImVector@PEAUImGuiDockNode@@@@QEAA@XZ 0000000140081910 f i imgui.obj
 0001:00080910       ??0?$ImVector@UImGuiDockContextPruneNodeData@@@@QEAA@XZ 0000000140081910 f i imgui.obj
 0001:00080910       ??0?$ImVector@UImDrawVert@@@@QEAA@XZ 0000000140081910 f i imgui.obj
 0001:00080910       ??0?$ImVector@UImGuiDockNodeSettings@@@@QEAA@XZ 0000000140081910 f i imgui.obj
 0001:00080910       ??0?$ImVector@UImGuiTabItem@@@@QEAA@XZ 0000000140081910 f i imgui_widgets.obj
 0001:00080910       ??0?$ImVector@UImGuiPopupData@@@@QEAA@XZ 0000000140081910 f i imgui.obj
 0001:00080910       ??0?$ImVector@UImFontGlyph@@@@QEAA@XZ 0000000140081910 f i imgui_draw.obj
 0001:00080910       ??0?$ImVector@UImFontBuildDstData@@@@QEAA@XZ 0000000140081910 f i imgui_draw.obj
 0001:00080910       ??0?$ImVector@UImGuiColumnData@@@@QEAA@XZ 0000000140081910 f i imgui_widgets.obj
 0001:00080910       ??0?$ImVector@UImGuiColorMod@@@@QEAA@XZ 0000000140081910 f i imgui.obj
 0001:00080910       ??0?$ImVector@G@@QEAA@XZ   0000000140081910 f i imgui.obj
 0001:00080910       ??0?$ImVector@UImGuiDockRequest@@@@QEAA@XZ 0000000140081910 f i imgui.obj
 0001:00080910       ??0?$ImVector@UImGuiSettingsHandler@@@@QEAA@XZ 0000000140081910 f i imgui.obj
 0001:00080910       ??0?$ImVector@UImVec4@@@@QEAA@XZ 0000000140081910 f i imgui.obj
 0001:00080910       ??0?$ImVector@M@@QEAA@XZ   0000000140081910 f i imgui.obj
 0001:00080910       ??0?$ImVector@PEAUImGuiViewportP@@@@QEAA@XZ 0000000140081910 f i imgui.obj
 0001:00080940       ??0ImDrawData@@QEAA@XZ     0000000140081940 f i imgui.obj
 0001:000809a0       ??0ImDrawDataBuilder@@QEAA@XZ 00000001400819a0 f i imgui.obj
 0001:000809d0       ??0ImDrawList@@QEAA@PEBUImDrawListSharedData@@@Z 00000001400819d0 f i imgui.obj
 0001:00080a90       ??0ImDrawListSplitter@@QEAA@XZ 0000000140081a90 f i imgui.obj
 0001:00080ac0       ??0ImGuiColorMod@@QEAA@XZ  0000000140081ac0 f i imgui.obj
 0001:00080af0       ??0ImGuiContext@@QEAA@PEAUImFontAtlas@@@Z 0000000140081af0 f i imgui.obj
 0001:00081ac0       ??0ImGuiDockContext@@QEAA@XZ 0000000140082ac0 f i imgui.obj
 0001:00081b10       ??0ImGuiDockContextPruneNodeData@@QEAA@XZ 0000000140082b10 f i imgui.obj
 0001:00081b50       ??0ImGuiDockNodeFindInfoResults@@QEAA@XZ 0000000140082b50 f i imgui.obj
 0001:00081b80       ??0ImGuiDockNodeSettings@@QEAA@XZ 0000000140082b80 f i imgui.obj
 0001:00081c20       ??0ImGuiDockPreviewData@@QEAA@XZ 0000000140082c20 f i imgui.obj
 0001:00081cd0       ??0ImGuiDockRequest@@QEAA@XZ 0000000140082cd0 f i imgui.obj
 0001:00081d50       ??0ImGuiInputTextState@@QEAA@XZ 0000000140082d50 f i imgui.obj
 0001:00081db0       ??0ImGuiListClipper@@QEAA@HM@Z 0000000140082db0 f i imgui.obj
 0001:00081df0       ??0ImGuiNavMoveResult@@QEAA@XZ 0000000140082df0 f i imgui.obj
 0001:00081e20       ??0ImGuiNextItemData@@QEAA@XZ 0000000140082e20 f i imgui.obj
 0001:00081e40       ??0ImGuiNextWindowData@@QEAA@XZ 0000000140082e40 f i imgui.obj
 0001:00081ef0       ??0ImGuiPayload@@QEAA@XZ   0000000140082ef0 f i imgui.obj
 0001:00081f10       ??0ImGuiPlatformIO@@QEAA@XZ 0000000140082f10 f i imgui.obj
 0001:00081f60       ??0ImGuiPopupData@@QEAA@XZ 0000000140082f60 f i imgui.obj
 0001:00081fe0       ??0ImGuiSettingsHandler@@QEAA@XZ 0000000140082fe0 f i imgui.obj
 0001:00082000       ??0ImGuiSizeCallbackData@@QEAA@XZ 0000000140083000 f i imgui.obj
 0001:00082050       ??0ImGuiStorage@@QEAA@XZ   0000000140083050 f i imgui.obj
 0001:00082070       ??0ImGuiStoragePair@ImGuiStorage@@QEAA@IH@Z 0000000140083070 f i imgui.obj
 0001:000820a0       ??0ImGuiStoragePair@ImGuiStorage@@QEAA@IM@Z 00000001400830a0 f i imgui.obj
 0001:000820d0       ??0ImGuiStoragePair@ImGuiStorage@@QEAA@IPEAX@Z 00000001400830d0 f i imgui.obj
 0001:00082100       ??0ImGuiStyleMod@@QEAA@HM@Z 0000000140083100 f i imgui.obj
 0001:00082140       ??0ImGuiStyleMod@@QEAA@HUImVec2@@@Z 0000000140083140 f i imgui.obj
 0001:000821a0       ??0ImGuiTextRange@ImGuiTextFilter@@QEAA@PEBD0@Z 00000001400831a0 f i imgui.obj
 0001:000821d0       ??0ImGuiViewport@@QEAA@XZ  00000001400831d0 f i imgui.obj
 0001:000822c0       ??0ImGuiViewportP@@QEAA@XZ 00000001400832c0 f i imgui.obj
 0001:000824c0       ??0ImGuiWindowClass@@QEAA@XZ 00000001400834c0 f i imgui.obj
 0001:00082530       ??0ImGuiWindowSettings@@QEAA@XZ 0000000140083530 f i imgui.obj
 0001:00082600       ??0ImGuiWindowTempData@@QEAA@XZ 0000000140083600 f i imgui.obj
 0001:00082a80       ??0ImRect@@QEAA@AEBUImVec2@@0@Z 0000000140083a80 f i imgui.obj
 0001:00082ac0       ??0ImRect@@QEAA@AEBUImVec4@@@Z 0000000140083ac0 f i imgui.obj
 0001:00082b20       ??0ImRect@@QEAA@MMMM@Z     0000000140083b20 f i imgui.obj
 0001:00082b80       ??0ImRect@@QEAA@XZ         0000000140083b80 f i imgui.obj
 0001:00082bc0       ??0ImVec1@@QEAA@M@Z        0000000140083bc0 f i imgui.obj
 0001:00082be0       ??0ImVec1@@QEAA@XZ         0000000140083be0 f i imgui.obj
 0001:00082c00       ??0ImVec2ih@@QEAA@AEBUImVec2@@@Z 0000000140083c00 f i imgui.obj
 0001:00082c40       ??0ImVec2ih@@QEAA@FF@Z     0000000140083c40 f i imgui.obj
 0001:00082c80       ??0ImVec2ih@@QEAA@XZ       0000000140083c80 f i imgui.obj
 0001:00082ca0       ??1ImGuiTextBuffer@@QEAA@XZ 0000000140083ca0 f i imgui.obj
 0001:00082ca0       ??1?$ImChunkStream@UImGuiWindowSettings@@@@QEAA@XZ 0000000140083ca0 f i imgui.obj
 0001:00082cc0       ??1?$ImPool@UImGuiDockContextPruneNodeData@@@@QEAA@XZ 0000000140083cc0 f i imgui.obj
 0001:00082d00       ??1?$ImPool@UImGuiTabBar@@@@QEAA@XZ 0000000140083d00 f i imgui.obj
 0001:00082d40       ??1?$ImVector@UImGuiStoragePair@ImGuiStorage@@@@QEAA@XZ 0000000140083d40 f i imgui.obj
 0001:00082d40       ??1?$ImVector@PEAUImGuiDockNode@@@@QEAA@XZ 0000000140083d40 f i imgui.obj
 0001:00082d40       ??1?$ImVector@H@@QEAA@XZ   0000000140083d40 f i imgui.obj
 0001:00082d40       ??1?$ImVector@UImGuiColorMod@@@@QEAA@XZ 0000000140083d40 f i imgui.obj
 0001:00082d40       ??1?$ImVector@UImGuiDockRequest@@@@QEAA@XZ 0000000140083d40 f i imgui.obj
 0001:00082d40       ??1?$ImVector@UImGuiStyleMod@@@@QEAA@XZ 0000000140083d40 f i imgui.obj
 0001:00082d40       ??1?$ImVector@E@@QEAA@XZ   0000000140083d40 f i imgui.obj
 0001:00082d40       ??1?$ImVector@UImGuiColumnData@@@@QEAA@XZ 0000000140083d40 f i imgui.obj
 0001:00082d40       ??1?$ImVector@UImGuiShrinkWidthItem@@@@QEAA@XZ 0000000140083d40 f i imgui.obj
 0001:00082d40       ??1?$ImVector@UImFontBuildSrcData@@@@QEAA@XZ 0000000140083d40 f i imgui_draw.obj
 0001:00082d40       ??1?$ImVector@Ustbrp_rect@@@@QEAA@XZ 0000000140083d40 f i imgui_draw.obj
 0001:00082d40       ??1?$ImVector@UImGuiPtrOrIndex@@@@QEAA@XZ 0000000140083d40 f i imgui.obj
 0001:00082d40       ??1?$ImVector@UImVec4@@@@QEAA@XZ 0000000140083d40 f i imgui.obj
 0001:00082d40       ??1?$ImVector@UImFontConfig@@@@QEAA@XZ 0000000140083d40 f i imgui_draw.obj
 0001:00082d40       ??1?$ImVector@PEAUImFont@@@@QEAA@XZ 0000000140083d40 f i imgui.obj
 0001:00082d40       ??1?$ImVector@UImGuiTabItem@@@@QEAA@XZ 0000000140083d40 f i imgui.obj
 0001:00082d40       ??1?$ImVector@UImFontGlyph@@@@QEAA@XZ 0000000140083d40 f i imgui_draw.obj
 0001:00082d40       ??1?$ImVector@PEAUImGuiWindow@@@@QEAA@XZ 0000000140083d40 f i imgui.obj
 0001:00082d40       ??1?$ImVector@PEAX@@QEAA@XZ 0000000140083d40 f i imgui.obj
 0001:00082d40       ??1?$ImVector@UImFontBuildDstData@@@@QEAA@XZ 0000000140083d40 f i imgui_draw.obj
 0001:00082d40       ??1?$ImVector@UImVec2@@@@QEAA@XZ 0000000140083d40 f i imgui.obj
 0001:00082d40       ??1?$ImVector@UImGuiPopupData@@@@QEAA@XZ 0000000140083d40 f i imgui.obj
 0001:00082d40       ??1?$ImVector@UImDrawCmd@@@@QEAA@XZ 0000000140083d40 f i imgui.obj
 0001:00082d40       ??1?$ImVector@UImGuiColumns@@@@QEAA@XZ 0000000140083d40 f i imgui.obj
 0001:00082d40       ??1?$ImVector@UImDrawChannel@@@@QEAA@XZ 0000000140083d40 f i imgui.obj
 0001:00082d40       ??1?$ImVector@M@@QEAA@XZ   0000000140083d40 f i imgui.obj
 0001:00082d40       ??1?$ImVector@Ustbtt_packedchar@@@@QEAA@XZ 0000000140083d40 f i imgui_draw.obj
 0001:00082d40       ??1?$ImVector@UImGuiGroupData@@@@QEAA@XZ 0000000140083d40 f i imgui.obj
 0001:00082d40       ??1?$ImVector@UImDrawVert@@@@QEAA@XZ 0000000140083d40 f i imgui.obj
 0001:00082d40       ??1?$ImVector@PEAUImGuiViewport@@@@QEAA@XZ 0000000140083d40 f i imgui.obj
 0001:00082d40       ??1?$ImVector@PEAUImGuiViewportP@@@@QEAA@XZ 0000000140083d40 f i imgui.obj
 0001:00082d40       ??1?$ImVector@PEAUMyDocument@@@@QEAA@XZ 0000000140083d40 f i imgui_demo.obj
 0001:00082d40       ??1?$ImVector@I@@QEAA@XZ   0000000140083d40 f i imgui.obj
 0001:00082d40       ??1?$ImVector@UImGuiDockContextPruneNodeData@@@@QEAA@XZ 0000000140083d40 f i imgui.obj
 0001:00082d40       ??1?$ImVector@UMyDocument@@@@QEAA@XZ 0000000140083d40 f i imgui_demo.obj
 0001:00082d40       ??1?$ImVector@G@@QEAA@XZ   0000000140083d40 f i imgui.obj
 0001:00082d40       ??1?$ImVector@UImFontAtlasCustomRect@@@@QEAA@XZ 0000000140083d40 f i imgui_draw.obj
 0001:00082d40       ??1?$ImVector@PEAUImDrawList@@@@QEAA@XZ 0000000140083d40 f i imgui.obj
 0001:00082d40       ??1?$ImVector@UImGuiDockNodeSettings@@@@QEAA@XZ 0000000140083d40 f i imgui.obj
 0001:00082d40       ??1?$ImVector@UImGuiSettingsHandler@@@@QEAA@XZ 0000000140083d40 f i imgui.obj
 0001:00082d40       ??1?$ImVector@UImGuiPlatformMonitor@@@@QEAA@XZ 0000000140083d40 f i imgui.obj
 0001:00082d40       ??1?$ImVector@UImGuiTabBar@@@@QEAA@XZ 0000000140083d40 f i imgui.obj
 0001:00082d70       ??1ImDrawData@@QEAA@XZ     0000000140083d70 f i imgui.obj
 0001:00082d90       ??1ImDrawDataBuilder@@QEAA@XZ 0000000140083d90 f i imgui.obj
 0001:00082dc0       ??1ImDrawList@@QEAA@XZ     0000000140083dc0 f i imgui.obj
 0001:00082e50       ??1ImDrawListSplitter@@QEAA@XZ 0000000140083e50 f i imgui.obj
 0001:00082e80       ??1ImGuiColumns@@QEAA@XZ   0000000140083e80 f i imgui.obj
 0001:00082eb0       ??1ImGuiContext@@QEAA@XZ   0000000140083eb0 f i imgui.obj
 0001:000830a0       ??1ImGuiDockContext@@QEAA@XZ 00000001400840a0 f i imgui.obj
 0001:000830e0       ??1ImGuiDockPreviewData@@QEAA@XZ 00000001400840e0 f i imgui.obj
 0001:00083100       ??1ImGuiIO@@QEAA@XZ        0000000140084100 f i imgui.obj
 0001:00083130       ??1ImGuiInputTextState@@QEAA@XZ 0000000140084130 f i imgui.obj
 0001:00083180       ??1ImGuiListClipper@@QEAA@XZ 0000000140084180 f i imgui.obj
 0001:000831c0       ??1ImGuiPlatformIO@@QEAA@XZ 00000001400841c0 f i imgui.obj
 0001:00083200       ??1ImGuiStorage@@QEAA@XZ   0000000140084200 f i imgui.obj
 0001:00083200       ??1ImBitVector@@QEAA@XZ    0000000140084200 f i imgui_draw.obj
 0001:00083200       ??1ExampleAppDocuments@@QEAA@XZ 0000000140084200 f i imgui_demo.obj
 0001:00083220       ??1ImGuiTabBar@@QEAA@XZ    0000000140084220 f i imgui.obj
 0001:00083250       ??1ImGuiViewport@@QEAA@XZ  0000000140084250 f i imgui.obj
 0001:000832a0       ??1ImGuiViewportP@@QEAA@XZ 00000001400842a0 f i imgui.obj
 0001:00083350       ??1ImGuiWindowTempData@@QEAA@XZ 0000000140084350 f i imgui.obj
 0001:000833c0       ??A?$ImVector@D@@QEAAAEADH@Z 00000001400843c0 f i imgui.obj
 0001:00083410       ??A?$ImVector@G@@QEAAAEAGH@Z 0000000140084410 f i imgui.obj
 0001:00083460       ??A?$ImVector@M@@QEAAAEAMH@Z 0000000140084460 f i imgui_draw.obj
 0001:00083460       ??A?$ImVector@H@@QEAAAEAHH@Z 0000000140084460 f i imgui_demo.obj
 0001:00083460       ??A?$ImVector@I@@QEAAAEAIH@Z 0000000140084460 f i imgui.obj
 0001:000834b0       ??A?$ImVector@PEAUImDrawList@@@@QEAAAEAPEAUImDrawList@@H@Z 00000001400844b0 f i imgui.obj
 0001:000834b0       ??A?$ImVector@PEAUImGuiWindow@@@@QEAAAEAPEAUImGuiWindow@@H@Z 00000001400844b0 f i imgui.obj
 0001:000834b0       ??A?$ImVector@UImGuiShrinkWidthItem@@@@QEAAAEAUImGuiShrinkWidthItem@@H@Z 00000001400844b0 f i imgui_widgets.obj
 0001:000834b0       ??A?$ImVector@PEAUMyDocument@@@@QEAAAEAPEAUMyDocument@@H@Z 00000001400844b0 f i imgui_demo.obj
 0001:000834b0       ??A?$ImVector@PEAUImGuiViewport@@@@QEAAAEAPEAUImGuiViewport@@H@Z 00000001400844b0 f i imgui.obj
 0001:000834b0       ??A?$ImVector@PEAUImFont@@@@QEAAAEAPEAUImFont@@H@Z 00000001400844b0 f i imgui.obj
 0001:000834b0       ??A?$ImVector@UImVec2@@@@QEAAAEAUImVec2@@H@Z 00000001400844b0 f i imgui_demo.obj
 0001:000834b0       ??A?$ImVector@PEAUImGuiDockNode@@@@QEAAAEAPEAUImGuiDockNode@@H@Z 00000001400844b0 f i imgui.obj
 0001:000834b0       ??A?$ImVector@PEAUImGuiViewportP@@@@QEAAAEAPEAUImGuiViewportP@@H@Z 00000001400844b0 f i imgui.obj
 0001:00083500       ??A?$ImVector@UImDrawVert@@@@QEAAAEAUImDrawVert@@H@Z 0000000140084500 f i imgui.obj
 0001:00083550       ??A?$ImVector@UImDrawVert@@@@QEBAAEBUImDrawVert@@H@Z 0000000140084550 f i imgui.obj
 0001:000835a0       ??A?$ImVector@UImGuiColumnData@@@@QEBAAEBUImGuiColumnData@@H@Z 00000001400845a0 f i imgui.obj
 0001:000835f0       ??A?$ImVector@UImGuiColumns@@@@QEAAAEAUImGuiColumns@@H@Z 00000001400845f0 f i imgui.obj
 0001:00083640       ??A?$ImVector@UImGuiDockContextPruneNodeData@@@@QEAAAEAUImGuiDockContextPruneNodeData@@H@Z 0000000140084640 f i imgui.obj
 0001:00083640       ??A?$ImVector@Ustbrp_rect@@@@QEAAAEAUstbrp_rect@@H@Z 0000000140084640 f i imgui_draw.obj
 0001:00083640       ??A?$ImVector@UImGuiTextRange@ImGuiTextFilter@@@@QEAAAEAUImGuiTextRange@ImGuiTextFilter@@H@Z 0000000140084640 f i imgui.obj
 0001:00083640       ??A?$ImVector@UImGuiStoragePair@ImGuiStorage@@@@QEAAAEAUImGuiStoragePair@ImGuiStorage@@H@Z 0000000140084640 f i imgui.obj
 0001:00083690       ??A?$ImVector@UImGuiPlatformMonitor@@@@QEAAAEAUImGuiPlatformMonitor@@H@Z 0000000140084690 f i imgui.obj
 0001:00083690       ??A?$ImVector@UImGuiDockNodeSettings@@@@QEAAAEAUImGuiDockNodeSettings@@H@Z 0000000140084690 f i imgui.obj
 0001:000836e0       ??A?$ImVector@UImGuiDockRequest@@@@QEAAAEAUImGuiDockRequest@@H@Z 00000001400846e0 f i imgui.obj
 0001:00083730       ??A?$ImVector@UImGuiPopupData@@@@QEAAAEAUImGuiPopupData@@H@Z 0000000140084730 f i imgui.obj
 0001:00083730       ??A?$ImVector@UImGuiSettingsHandler@@@@QEAAAEAUImGuiSettingsHandler@@H@Z 0000000140084730 f i imgui.obj
 0001:00083780       ??A?$ImVector@UImGuiTabBar@@@@QEAAAEAUImGuiTabBar@@H@Z 0000000140084780 f i imgui.obj
 0001:000837d0       ??A?$ImVector@UImFontGlyph@@@@QEAAAEAUImFontGlyph@@H@Z 00000001400847d0 f i imgui_draw.obj
 0001:000837d0       ??A?$ImVector@UImGuiTabItem@@@@QEAAAEAUImGuiTabItem@@H@Z 00000001400847d0 f i imgui.obj
 0001:00083820       ??A?$ImVector@UImGuiTextRange@ImGuiTextFilter@@@@QEBAAEBUImGuiTextRange@ImGuiTextFilter@@H@Z 0000000140084820 f i imgui.obj
 0001:00083870       ??_GImDrawList@@QEAAPEAXI@Z 0000000140084870 f i imgui.obj
 0001:000838b0       ??_GImFontAtlas@@QEAAPEAXI@Z 00000001400848b0 f i imgui.obj
 0001:000838f0       ??_GImGuiColumns@@QEAAPEAXI@Z 00000001400848f0 f i imgui.obj
 0001:00083930       ??_GImGuiContext@@QEAAPEAXI@Z 0000000140084930 f i imgui.obj
 0001:00083970       ??_GImGuiDockContext@@QEAAPEAXI@Z 0000000140084970 f i imgui.obj
 0001:000839b0       ??_GImGuiDockNode@@QEAAPEAXI@Z 00000001400849b0 f i imgui.obj
 0001:000839f0       ??_GImGuiTabBar@@QEAAPEAXI@Z 00000001400849f0 f i imgui.obj
 0001:00083a30       ??_GImGuiViewportP@@QEAAPEAXI@Z 0000000140084a30 f i imgui.obj
 0001:00083a70       ??_GImGuiWindow@@QEAAPEAXI@Z 0000000140084a70 f i imgui.obj
 0001:00083ab0       ?Add@?$ImPool@UImGuiDockContextPruneNodeData@@@@QEAAPEAUImGuiDockContextPruneNodeData@@XZ 0000000140084ab0 f i imgui.obj
 0001:00083b80       ?Add@ImRect@@QEAAXAEBU1@@Z 0000000140084b80 f i imgui.obj
 0001:00083c30       ?Add@ImRect@@QEAAXAEBUImVec2@@@Z 0000000140084c30 f i imgui.obj
 0001:00083ce0       ?CalcFontSize@ImGuiWindow@@QEBAMXZ 0000000140084ce0 f i imgui.obj
 0001:00083d60       ?ChannelsMerge@ImDrawList@@QEAAXXZ 0000000140084d60 f i imgui.obj
 0001:00083d90       ?ChannelsSetCurrent@ImDrawList@@QEAAXH@Z 0000000140084d90 f i imgui.obj
 0001:00083dc0       ?ChannelsSplit@ImDrawList@@QEAAXH@Z 0000000140084dc0 f i imgui.obj
 0001:00083df0       ?Clear@?$ImPool@UImGuiDockContextPruneNodeData@@@@QEAAXXZ 0000000140084df0 f i imgui.obj
 0001:00083e80       ?Clear@?$ImPool@UImGuiTabBar@@@@QEAAXXZ 0000000140084e80 f i imgui.obj
 0001:00083f20       ?Clear@ImDrawData@@QEAAXXZ 0000000140084f20 f i imgui.obj
 0001:00083fc0       ?Clear@ImDrawDataBuilder@@QEAAXXZ 0000000140084fc0 f i imgui.obj
 0001:00084010       ?Clear@ImDrawListSplitter@@QEAAXXZ 0000000140085010 f i imgui.obj
 0001:00084030       ?Clear@ImGuiNavMoveResult@@QEAAXXZ 0000000140085030 f i imgui.obj
 0001:000840c0       ?Clear@ImGuiPayload@@QEAAXXZ 00000001400850c0 f i imgui.obj
 0001:00084130       ?clear@ImGuiTextBuffer@@QEAAXXZ 0000000140085130 f i imgui.obj
 0001:00084130       ?clear@?$ImChunkStream@UImGuiWindowSettings@@@@QEAAXXZ 0000000140085130 f i imgui.obj
 0001:00084130       ?Clear@ImGuiStorage@@QEAAXXZ 0000000140085130 f i imgui.obj
 0001:00084130       ?Clear@ImBitVector@@QEAAXXZ 0000000140085130 f i imgui_draw.obj
 0001:00084150       ?ClearFlags@ImGuiNextWindowData@@QEAAXXZ 0000000140085150 f i imgui.obj
 0001:00084170       ?ClearFreeMemory@ImGuiInputTextState@@QEAAXXZ 0000000140085170 f i imgui.obj
 0001:000841c0       ?ClearRequestFlags@ImGuiViewportP@@QEAAXXZ 00000001400851c0 f i imgui.obj
 0001:000841f0       ?ClipWith@ImRect@@QEAAXAEBU1@@Z 00000001400851f0 f i imgui.obj
 0001:00084260       ?ClipWithFull@ImRect@@QEAAXAEBU1@@Z 0000000140085260 f i imgui.obj
 0001:000842e0       ?Contains@ImRect@@QEBA_NAEBU1@@Z 00000001400852e0 f i imgui.obj
 0001:00084360       ?Contains@ImRect@@QEBA_NAEBUImVec2@@@Z 0000000140085360 f i imgui.obj
 0001:000843e0       ?DebugStartItemPicker@ImGui@@YAXXZ 00000001400853e0 f i imgui.obj
 0001:00084400       ?DockNodeGetRootNode@ImGui@@YAPEAUImGuiDockNode@@PEAU2@@Z 0000000140085400 f i imgui.obj
 0001:00084430       ?Expand@ImRect@@QEAAXAEBUImVec2@@@Z 0000000140085430 f i imgui.obj
 0001:000844b0       ?Expand@ImRect@@QEAAXM@Z   00000001400854b0 f i imgui.obj
 0001:00084530       ?GetBL@ImRect@@QEBA?AUImVec2@@XZ 0000000140085530 f i imgui.obj
 0001:00084570       ?GetBR@ImRect@@QEBA?AUImVec2@@XZ 0000000140085570 f i imgui.obj
 0001:000845a0       ?GetByIndex@?$ImPool@UImGuiTabBar@@@@QEAAPEAUImGuiTabBar@@H@Z 00000001400855a0 f i imgui.obj
 0001:000845d0       ?GetByKey@?$ImPool@UImGuiDockContextPruneNodeData@@@@QEAAPEAUImGuiDockContextPruneNodeData@@I@Z 00000001400855d0 f i imgui.obj
 0001:00084630       ?GetCenter@ImRect@@QEBA?AUImVec2@@XZ 0000000140085630 f i imgui.obj
 0001:00084690       ?GetCurrentWindowRead@ImGui@@YAPEAUImGuiWindow@@XZ 0000000140085690 f i imgui.obj
 0001:000846b0       ?GetDefaultFont@ImGui@@YAPEAUImFont@@XZ 00000001400856b0 f i imgui.obj
 0001:00084710       ?GetForegroundDrawList@ImGui@@YAPEAUImDrawList@@PEAUImGuiWindow@@@Z 0000000140085710 f i imgui.obj
 0001:00084730       ?GetHeight@ImRect@@QEBAMXZ 0000000140085730 f i imgui.obj
 0001:00084750       ?GetMainRect@ImGuiViewportP@@QEBA?AUImRect@@XZ 0000000140085750 f i imgui.obj
 0001:000847c0       ?GetMergedFlags@ImGuiDockNode@@QEBAHXZ 00000001400857c0 f i imgui.obj
 0001:000847e0       ?GetName@ImGuiWindowSettings@@QEAAPEADXZ 00000001400857e0 f i imgui.obj
 0001:000847f0       ?GetOrAddByKey@?$ImPool@UImGuiDockContextPruneNodeData@@@@QEAAPEAUImGuiDockContextPruneNodeData@@I@Z 00000001400857f0 f i imgui.obj
 0001:00084860       ?size@?$ImVector@PEAUImFont@@@@QEBAHXZ 0000000140085860 f i imgui_draw.obj
 0001:00084860       ?GetSize@?$ImPool@UImGuiTabBar@@@@QEBAHXZ 0000000140085860 f i imgui.obj
 0001:00084860       ?size@?$ImVector@D@@QEBAHXZ 0000000140085860 f i imgui_demo.obj
 0001:00084860       ?size@?$ImChunkStream@UImGuiWindowSettings@@@@QEBAHXZ 0000000140085860 f i imgui.obj
 0001:00084870       ?GetSize@ImRect@@QEBA?AUImVec2@@XZ 0000000140085870 f i imgui.obj
 0001:000848c0       ?GetTR@ImRect@@QEBA?AUImVec2@@XZ 00000001400858c0 f i imgui.obj
 0001:00084900       ?GetTabName@ImGuiTabBar@@QEBAPEBDPEBUImGuiTabItem@@@Z 0000000140085900 f i imgui.obj
 0001:00084980       ?GetTabOrder@ImGuiTabBar@@QEBAHPEBUImGuiTabItem@@@Z 0000000140085980 f i imgui.obj
 0001:000849b0       ?GetVarPtr@ImGuiStyleVarInfo@@QEBAPEAXPEAUImGuiStyle@@@Z 00000001400859b0 f i imgui.obj
 0001:000849d0       ?GetWidth@ImRect@@QEBAMXZ  00000001400859d0 f i imgui.obj
 0001:00084bd0       ?GetWorkRect@ImGuiViewportP@@QEBA?AUImRect@@XZ 0000000140085bd0 f i imgui.obj
 0001:00084c70       ?ImTriangleArea@@YAMAEBUImVec2@@00@Z 0000000140085c70 f i imgui.obj
 0001:00084d10       ?IsActiveIdUsingKey@ImGui@@YA_NH@Z 0000000140085d10 f i imgui.obj
 0001:00084da0       ?IsActiveIdUsingNavDir@ImGui@@YA_NH@Z 0000000140085da0 f i imgui.obj
 0001:00084e00       ?IsActiveIdUsingNavInput@ImGui@@YA_NH@Z 0000000140085e00 f i imgui.obj
 0001:00084e60       ?IsCentralNode@ImGuiDockNode@@QEBA_NXZ 0000000140085e60 f i imgui.obj
 0001:00084ea0       ?IsDataType@ImGuiPayload@@QEBA_NPEBD@Z 0000000140085ea0 f i imgui.obj
 0001:00084f00       ?IsDelivery@ImGuiPayload@@QEBA_NXZ 0000000140085f00 f i imgui.obj
 0001:00084f10       ?IsDockSpace@ImGuiDockNode@@QEBA_NXZ 0000000140085f10 f i imgui.obj
 0001:00084f50       ?IsEmpty@ImGuiDockNode@@QEBA_NXZ 0000000140085f50 f i imgui.obj
 0001:00084fa0       ?IsFloatingNode@ImGuiDockNode@@QEBA_NXZ 0000000140085fa0 f i imgui.obj
 0001:00084fe0       ?IsHiddenTabBar@ImGuiDockNode@@QEBA_NXZ 0000000140085fe0 f i imgui.obj
 0001:00085020       ?IsInverted@ImRect@@QEBA_NXZ 0000000140086020 f i imgui.obj
 0001:00085070       ?IsKeyPressedMap@ImGui@@YA_NH_N@Z 0000000140086070 f i imgui.obj
 0001:000850d0       ?IsLeafNode@ImGuiDockNode@@QEBA_NXZ 00000001400860d0 f i imgui.obj
 0001:00085110       ?IsLoaded@ImFont@@QEBA_NXZ 0000000140086110 f i imgui.obj
 0001:00085140       ?IsNavInputDown@ImGui@@YA_NH@Z 0000000140086140 f i imgui.obj
 0001:00085190       ?IsNavInputTest@ImGui@@YA_NHW4ImGuiInputReadMode@@@Z 0000000140086190 f i imgui.obj
 0001:000851d0       ?IsNoTabBar@ImGuiDockNode@@QEBA_NXZ 00000001400861d0 f i imgui.obj
 0001:00085210       ?IsPreview@ImGuiPayload@@QEBA_NXZ 0000000140086210 f i imgui.obj
 0001:00085220       ?IsRootNode@ImGuiDockNode@@QEBA_NXZ 0000000140086220 f i imgui.obj
 0001:00085250       ?IsSplitNode@ImGuiDockNode@@QEBA_NXZ 0000000140086250 f i imgui.obj
 0001:00085290       ?MenuBarHeight@ImGuiWindow@@QEBAMXZ 0000000140086290 f i imgui.obj
 0001:00085310       ?MenuBarRect@ImGuiWindow@@QEBA?AUImRect@@XZ 0000000140086310 f i imgui.obj
 0001:00087d30       ?Overlaps@ImRect@@QEBA_NAEBU1@@Z 0000000140088d30 f i imgui.obj
 0001:00087df0       ?PathFillConvex@ImDrawList@@QEAAXI@Z 0000000140088df0 f i imgui.obj
 0001:00087e40       ?PathLineTo@ImDrawList@@QEAAXAEBUImVec2@@@Z 0000000140088e40 f i imgui.obj
 0001:00087e70       ?PathStroke@ImDrawList@@QEAAXI_NM@Z 0000000140088e70 f i imgui.obj
 0001:00087ee0       ?Rect@ImGuiDockNode@@QEBA?AUImRect@@XZ 0000000140088ee0 f i imgui.obj
 0001:00087f50       ?Rect@ImGuiWindow@@QEBA?AUImRect@@XZ 0000000140088f50 f i imgui.obj
 0001:00087fc0       ?Reserve@?$ImPool@UImGuiDockContextPruneNodeData@@@@QEAAXH@Z 0000000140088fc0 f i imgui.obj
 0001:00088000       ?TitleBarHeight@ImGuiWindow@@QEBAMXZ 0000000140089000 f i imgui.obj
 0001:00088070       ?TitleBarRect@ImGuiWindow@@QEBA?AUImRect@@XZ 0000000140089070 f i imgui.obj
 0001:000880e0       ?Translate@ImRect@@QEAAXAEBUImVec2@@@Z 00000001400890e0 f i imgui.obj
 0001:00088160       ?TranslateX@ImRect@@QEAAXM@Z 0000000140089160 f i imgui.obj
 0001:000881a0       ?TranslateY@ImRect@@QEAAXM@Z 00000001400891a0 f i imgui.obj
 0001:000881e0       ?_grow_capacity@?$ImVector@UImDrawVert@@@@QEBAHH@Z 00000001400891e0 f i imgui_draw.obj
 0001:000881e0       ?_grow_capacity@?$ImVector@PEAX@@QEBAHH@Z 00000001400891e0 f i imgui_draw.obj
 0001:000881e0       ?_grow_capacity@?$ImVector@PEAUImGuiDockNode@@@@QEBAHH@Z 00000001400891e0 f i imgui.obj
 0001:000881e0       ?_grow_capacity@?$ImVector@UImGuiShrinkWidthItem@@@@QEBAHH@Z 00000001400891e0 f i imgui_widgets.obj
 0001:000881e0       ?_grow_capacity@?$ImVector@PEAUImGuiViewportP@@@@QEBAHH@Z 00000001400891e0 f i imgui.obj
 0001:000881e0       ?_grow_capacity@?$ImVector@H@@QEBAHH@Z 00000001400891e0 f i imgui.obj
 0001:000881e0       ?_grow_capacity@?$ImVector@UImFontAtlasCustomRect@@@@QEBAHH@Z 00000001400891e0 f i imgui_draw.obj
 0001:000881e0       ?_grow_capacity@?$ImVector@UImGuiDockNodeSettings@@@@QEBAHH@Z 00000001400891e0 f i imgui.obj
 0001:000881e0       ?_grow_capacity@?$ImVector@UImVec4@@@@QEBAHH@Z 00000001400891e0 f i imgui_draw.obj
 0001:000881e0       ?_grow_capacity@?$ImVector@UImFontGlyph@@@@QEBAHH@Z 00000001400891e0 f i imgui_draw.obj
 0001:000881e0       ?_grow_capacity@?$ImVector@UImGuiPtrOrIndex@@@@QEBAHH@Z 00000001400891e0 f i imgui_widgets.obj
 0001:000881e0       ?_grow_capacity@?$ImVector@UImGuiDockContextPruneNodeData@@@@QEBAHH@Z 00000001400891e0 f i imgui.obj
 0001:000881e0       ?_grow_capacity@?$ImVector@PEAUImGuiViewport@@@@QEBAHH@Z 00000001400891e0 f i imgui.obj
 0001:000881e0       ?_grow_capacity@?$ImVector@I@@QEBAHH@Z 00000001400891e0 f i imgui.obj
 0001:000881e0       ?_grow_capacity@?$ImVector@PEAUImFont@@@@QEBAHH@Z 00000001400891e0 f i imgui.obj
 0001:000881e0       ?_grow_capacity@?$ImVector@PEAUImDrawList@@@@QEBAHH@Z 00000001400891e0 f i imgui.obj
 0001:000881e0       ?_grow_capacity@?$ImVector@UImFontBuildSrcData@@@@QEBAHH@Z 00000001400891e0 f i imgui_draw.obj
 0001:000881e0       ?_grow_capacity@?$ImVector@UImGuiGroupData@@@@QEBAHH@Z 00000001400891e0 f i imgui.obj
 0001:000881e0       ?_grow_capacity@?$ImVector@UImFontBuildDstData@@@@QEBAHH@Z 00000001400891e0 f i imgui_draw.obj
 0001:000881e0       ?_grow_capacity@?$ImVector@Ustbtt_packedchar@@@@QEBAHH@Z 00000001400891e0 f i imgui_draw.obj
 0001:000881e0       ?_grow_capacity@?$ImVector@UImGuiPopupData@@@@QEBAHH@Z 00000001400891e0 f i imgui.obj
 0001:000881e0       ?_grow_capacity@?$ImVector@UMyDocument@@@@QEBAHH@Z 00000001400891e0 f i imgui_demo.obj
 0001:000881e0       ?_grow_capacity@?$ImVector@UImGuiTabBar@@@@QEBAHH@Z 00000001400891e0 f i imgui_widgets.obj
 0001:000881e0       ?_grow_capacity@?$ImVector@UImDrawCmd@@@@QEBAHH@Z 00000001400891e0 f i imgui_draw.obj
 0001:000881e0       ?_grow_capacity@?$ImVector@UImGuiStoragePair@ImGuiStorage@@@@QEBAHH@Z 00000001400891e0 f i imgui.obj
 0001:000881e0       ?_grow_capacity@?$ImVector@UImGuiDockRequest@@@@QEBAHH@Z 00000001400891e0 f i imgui.obj
 0001:000881e0       ?_grow_capacity@?$ImVector@E@@QEBAHH@Z 00000001400891e0 f i imgui.obj
 0001:000881e0       ?_grow_capacity@?$ImVector@UImVec2@@@@QEBAHH@Z 00000001400891e0 f i imgui.obj
 0001:000881e0       ?_grow_capacity@?$ImVector@PEAUMyDocument@@@@QEBAHH@Z 00000001400891e0 f i imgui_demo.obj
 0001:000881e0       ?_grow_capacity@?$ImVector@UImDrawChannel@@@@QEBAHH@Z 00000001400891e0 f i imgui_draw.obj
 0001:000881e0       ?_grow_capacity@?$ImVector@PEAUImGuiWindow@@@@QEBAHH@Z 00000001400891e0 f i imgui.obj
 0001:000881e0       ?_grow_capacity@?$ImVector@UImGuiColorMod@@@@QEBAHH@Z 00000001400891e0 f i imgui.obj
 0001:000881e0       ?_grow_capacity@?$ImVector@M@@QEBAHH@Z 00000001400891e0 f i imgui.obj
 0001:000881e0       ?_grow_capacity@?$ImVector@UImGuiTabItem@@@@QEBAHH@Z 00000001400891e0 f i imgui_widgets.obj
 0001:000881e0       ?_grow_capacity@?$ImVector@Ustbrp_rect@@@@QEBAHH@Z 00000001400891e0 f i imgui_draw.obj
 0001:000881e0       ?_grow_capacity@?$ImVector@G@@QEBAHH@Z 00000001400891e0 f i imgui.obj
 0001:000881e0       ?_grow_capacity@?$ImVector@UImFontConfig@@@@QEBAHH@Z 00000001400891e0 f i imgui_draw.obj
 0001:000881e0       ?_grow_capacity@?$ImVector@UImGuiColumnData@@@@QEBAHH@Z 00000001400891e0 f i imgui_widgets.obj
 0001:000881e0       ?_grow_capacity@?$ImVector@UImGuiSettingsHandler@@@@QEBAHH@Z 00000001400891e0 f i imgui.obj
 0001:000881e0       ?_grow_capacity@?$ImVector@UImGuiTextRange@ImGuiTextFilter@@@@QEBAHH@Z 00000001400891e0 f i imgui.obj
 0001:000881e0       ?_grow_capacity@?$ImVector@UImGuiColumns@@@@QEBAHH@Z 00000001400891e0 f i imgui_widgets.obj
 0001:000881e0       ?_grow_capacity@?$ImVector@UImGuiStyleMod@@@@QEBAHH@Z 00000001400891e0 f i imgui.obj
 0001:00088250       ?alloc_chunk@?$ImChunkStream@UImGuiWindowSettings@@@@QEAAPEAUImGuiWindowSettings@@_K@Z 0000000140089250 f i imgui.obj
 0001:000882f0       ?back@?$ImVector@I@@QEAAAEAIXZ 00000001400892f0 f i imgui.obj
 0001:000882f0       ?back@?$ImVector@M@@QEAAAEAMXZ 00000001400892f0 f i imgui.obj
 0001:000882f0       ?back@?$ImVector@H@@QEAAAEAHXZ 00000001400892f0 f i imgui.obj
 0001:00088340       ?back@?$ImVector@PEAUImGuiWindow@@@@QEAAAEAPEAUImGuiWindow@@XZ 0000000140089340 f i imgui.obj
 0001:00088340       ?back@?$ImVector@PEAUImFont@@@@QEAAAEAPEAUImFont@@XZ 0000000140089340 f i imgui.obj
 0001:00088340       ?back@?$ImVector@PEAX@@QEAAAEAPEAXXZ 0000000140089340 f i imgui_draw.obj
 0001:00088340       ?back@?$ImVector@UImVec2@@@@QEAAAEAUImVec2@@XZ 0000000140089340 f i imgui_draw.obj
 0001:00088390       ?back@?$ImVector@UImDrawCmd@@@@QEAAAEAUImDrawCmd@@XZ 0000000140089390 f i imgui.obj
 0001:000883e0       ?back@?$ImVector@UImGuiColorMod@@@@QEAAAEAUImGuiColorMod@@XZ 00000001400893e0 f i imgui.obj
 0001:00088430       ?back@?$ImVector@UImGuiGroupData@@@@QEAAAEAUImGuiGroupData@@XZ 0000000140089430 f i imgui.obj
 0001:00088480       ?back@?$ImVector@UImGuiPopupData@@@@QEAAAEAUImGuiPopupData@@XZ 0000000140089480 f i imgui.obj
 0001:000884d0       ?back@?$ImVector@UImGuiStyleMod@@@@QEAAAEAUImGuiStyleMod@@XZ 00000001400894d0 f i imgui.obj
 0001:00088520       ?back@?$ImVector@UImGuiTabItem@@@@QEAAAEAUImGuiTabItem@@XZ 0000000140089520 f i imgui.obj
 0001:00088520       ?back@?$ImVector@UImFontGlyph@@@@QEAAAEAUImFontGlyph@@XZ 0000000140089520 f i imgui_draw.obj
 0001:00088570       ?back@?$ImVector@UImGuiPtrOrIndex@@@@QEAAAEAUImGuiPtrOrIndex@@XZ 0000000140089570 f i imgui_widgets.obj
 0001:00088570       ?back@?$ImVector@UImVec4@@@@QEAAAEAUImVec4@@XZ 0000000140089570 f i imgui.obj
 0001:000885c0       ?begin@?$ImChunkStream@UImGuiWindowSettings@@@@QEAAPEAUImGuiWindowSettings@@XZ 00000001400895c0 f i imgui.obj
 0001:00088600       ?begin@?$ImVector@UImDrawCmd@@@@QEAAPEAUImDrawCmd@@XZ 0000000140089600 f i imgui.obj
 0001:00088600       ?begin@?$ImVector@I@@QEBAPEBIXZ 0000000140089600 f i imgui_draw.obj
 0001:00088610       ?begin@ImGuiTextBuffer@@QEBAPEBDXZ 0000000140089610 f i imgui.obj
 0001:00088650       ?c_str@ImGuiTextBuffer@@QEBAPEBDXZ 0000000140089650 f i imgui.obj
 0001:00088690       ?chunk_size@?$ImChunkStream@UImGuiWindowSettings@@@@QEAAHPEBUImGuiWindowSettings@@@Z 0000000140089690 f i imgui.obj
 0001:000886b0       ?clear@?$ImVector@UImGuiColumnData@@@@QEAAXXZ 00000001400896b0 f i imgui_widgets.obj
 0001:000886b0       ?clear@?$ImVector@UImVec2@@@@QEAAXXZ 00000001400896b0 f i imgui_demo.obj
 0001:000886b0       ?clear@?$ImVector@M@@QEAAXXZ 00000001400896b0 f i imgui.obj
 0001:000886b0       ?clear@?$ImVector@PEAUImGuiViewportP@@@@QEAAXXZ 00000001400896b0 f i imgui.obj
 0001:000886b0       ?clear@?$ImVector@E@@QEAAXXZ 00000001400896b0 f i imgui.obj
 0001:000886b0       ?clear@?$ImVector@UImFontAtlasCustomRect@@@@QEAAXXZ 00000001400896b0 f i imgui_draw.obj
 0001:000886b0       ?clear@?$ImVector@H@@QEAAXXZ 00000001400896b0 f i imgui.obj
 0001:000886b0       ?clear@?$ImVector@D@@QEAAXXZ 00000001400896b0 f i imgui.obj
 0001:000886b0       ?clear@?$ImVector@UImGuiPopupData@@@@QEAAXXZ 00000001400896b0 f i imgui.obj
 0001:000886b0       ?clear@?$ImVector@UImGuiPtrOrIndex@@@@QEAAXXZ 00000001400896b0 f i imgui.obj
 0001:000886b0       ?clear@?$ImVector@UImDrawChannel@@@@QEAAXXZ 00000001400896b0 f i imgui_draw.obj
 0001:000886b0       ?clear@?$ImVector@UImGuiStyleMod@@@@QEAAXXZ 00000001400896b0 f i imgui.obj
 0001:000886b0       ?clear@?$ImVector@UImGuiTabBar@@@@QEAAXXZ 00000001400896b0 f i imgui.obj
 0001:000886b0       ?clear@?$ImVector@PEAUImFont@@@@QEAAXXZ 00000001400896b0 f i imgui.obj
 0001:000886b0       ?clear@?$ImVector@UImGuiStoragePair@ImGuiStorage@@@@QEAAXXZ 00000001400896b0 f i imgui.obj
 0001:000886b0       ?clear@?$ImVector@UImGuiShrinkWidthItem@@@@QEAAXXZ 00000001400896b0 f i imgui.obj
 0001:000886b0       ?clear@?$ImVector@UImGuiGroupData@@@@QEAAXXZ 00000001400896b0 f i imgui.obj
 0001:000886b0       ?clear@?$ImVector@PEAUImGuiWindow@@@@QEAAXXZ 00000001400896b0 f i imgui.obj
 0001:000886b0       ?clear@?$ImVector@UImFontGlyph@@@@QEAAXXZ 00000001400896b0 f i imgui_draw.obj
 0001:000886b0       ?clear@?$ImVector@UImGuiDockRequest@@@@QEAAXXZ 00000001400896b0 f i imgui.obj
 0001:000886b0       ?clear@?$ImVector@UImDrawCmd@@@@QEAAXXZ 00000001400896b0 f i imgui_draw.obj
 0001:000886b0       ?clear@?$ImVector@I@@QEAAXXZ 00000001400896b0 f i imgui.obj
 0001:000886b0       ?clear@?$ImVector@Ustbrp_rect@@@@QEAAXXZ 00000001400896b0 f i imgui_draw.obj
 0001:000886b0       ?clear@?$ImVector@G@@QEAAXXZ 00000001400896b0 f i imgui.obj
 0001:000886b0       ?clear@?$ImVector@UImGuiSettingsHandler@@@@QEAAXXZ 00000001400896b0 f i imgui.obj
 0001:000886b0       ?clear@?$ImVector@UImFontBuildDstData@@@@QEAAXXZ 00000001400896b0 f i imgui_draw.obj
 0001:000886b0       ?clear@?$ImVector@PEAUMyDocument@@@@QEAAXXZ 00000001400896b0 f i imgui_demo.obj
 0001:000886b0       ?clear@?$ImVector@UImGuiColorMod@@@@QEAAXXZ 00000001400896b0 f i imgui.obj
 0001:000886b0       ?clear@?$ImVector@PEAX@@QEAAXXZ 00000001400896b0 f i imgui_draw.obj
 0001:000886b0       ?clear@?$ImVector@UImVec4@@@@QEAAXXZ 00000001400896b0 f i imgui_draw.obj
 0001:000886b0       ?clear@?$ImVector@UImGuiDockContextPruneNodeData@@@@QEAAXXZ 00000001400896b0 f i imgui.obj
 0001:000886b0       ?clear@?$ImVector@UImFontConfig@@@@QEAAXXZ 00000001400896b0 f i imgui_draw.obj
 0001:000886b0       ?clear@?$ImVector@UImDrawVert@@@@QEAAXXZ 00000001400896b0 f i imgui_draw.obj
 0001:00088700       ?contains@?$ImVector@I@@QEBA_NAEBI@Z 0000000140089700 f i imgui.obj
 0001:00088780       ?contains@?$ImVector@PEAUImGuiViewport@@@@QEBA_NAEBQEAUImGuiViewport@@@Z 0000000140089780 f i imgui.obj
 0001:00088800       ?empty@?$ImVector@G@@QEBA_NXZ 0000000140089800 f i imgui_draw.obj
 0001:00088800       ?empty@?$ImVector@PEAUImGuiWindow@@@@QEBA_NXZ 0000000140089800 f i imgui.obj
 0001:00088800       ?empty@?$ImVector@UImGuiPopupData@@@@QEBA_NXZ 0000000140089800 f i imgui.obj
 0001:00088800       ?empty@?$ImVector@PEAUImFont@@@@QEBA_NXZ 0000000140089800 f i imgui.obj
 0001:00088800       ?empty@?$ImVector@UImFontConfig@@@@QEBA_NXZ 0000000140089800 f i imgui_draw.obj
 0001:00088800       ?empty@?$ImVector@UImVec2@@@@QEBA_NXZ 0000000140089800 f i imgui_demo.obj
 0001:00088800       ?empty@?$ImVector@PEAUMyDocument@@@@QEBA_NXZ 0000000140089800 f i imgui_demo.obj
 0001:00088800       ?empty@?$ImVector@PEAUImDrawList@@@@QEBA_NXZ 0000000140089800 f i imgui.obj
 0001:00088800       ?empty@?$ImVector@UImFontGlyph@@@@QEBA_NXZ 0000000140089800 f i imgui_widgets.obj
 0001:00088800       ?empty@?$ImVector@UImDrawCmd@@@@QEBA_NXZ 0000000140089800 f i imgui.obj
 0001:00088800       ?empty@?$ImVector@UImGuiTextRange@ImGuiTextFilter@@@@QEBA_NXZ 0000000140089800 f i imgui.obj
 0001:00088800       ?empty@?$ImVector@M@@QEBA_NXZ 0000000140089800 f i imgui.obj
 0001:00088800       ?empty@?$ImVector@I@@QEBA_NXZ 0000000140089800 f i imgui_draw.obj
 0001:00088800       ?empty@?$ImVector@UImGuiPtrOrIndex@@@@QEBA_NXZ 0000000140089800 f i imgui_widgets.obj
 0001:00088800       ?empty@?$ImVector@UImGuiGroupData@@@@QEBA_NXZ 0000000140089800 f i imgui.obj
 0001:00088800       ?empty@?$ImChunkStream@UImGuiWindowSettings@@@@QEBA_NXZ 0000000140089800 f i imgui.obj
 0001:00088800       ?empty@?$ImVector@H@@QEBA_NXZ 0000000140089800 f i imgui.obj
 0001:00088800       ?empty@?$ImVector@PEAX@@QEBA_NXZ 0000000140089800 f i imgui_draw.obj
 0001:00088800       ?empty@?$ImVector@D@@QEBA_NXZ 0000000140089800 f i imgui_demo.obj
 0001:00088830       ?empty@ImGuiTextBuffer@@QEBA_NXZ 0000000140089830 f i imgui.obj
 0001:00088860       ?empty@ImGuiTextRange@ImGuiTextFilter@@QEBA_NXZ 0000000140089860 f i imgui.obj
 0001:000888a0       ?end@?$ImChunkStream@UImGuiWindowSettings@@@@QEAAPEAUImGuiWindowSettings@@XZ 00000001400898a0 f i imgui.obj
 0001:000888c0       ?end@?$ImVector@UImDrawCmd@@@@QEAAPEAUImDrawCmd@@XZ 00000001400898c0 f i imgui.obj
 0001:000888e0       ?end@?$ImVector@UImGuiStoragePair@ImGuiStorage@@@@QEBAPEBUImGuiStoragePair@ImGuiStorage@@XZ 00000001400898e0 f i imgui.obj
 0001:000888e0       ?end@?$ImVector@UImGuiStoragePair@ImGuiStorage@@@@QEAAPEAUImGuiStoragePair@ImGuiStorage@@XZ 00000001400898e0 f i imgui.obj
 0001:00088900       ?erase@?$ImVector@PEAUImGuiWindow@@@@QEAAPEAPEAUImGuiWindow@@PEBQEAU2@@Z 0000000140089900 f i imgui.obj
 0001:00088900       ?erase@?$ImVector@PEAUImGuiViewportP@@@@QEAAPEAPEAUImGuiViewportP@@PEBQEAU2@@Z 0000000140089900 f i imgui.obj
 0001:000889f0       ?front@?$ImVector@D@@QEBAAEBDXZ 00000001400899f0 f i imgui.obj
 0001:00088a40       ?index_from_ptr@?$ImVector@UImGuiTabItem@@@@QEBAHPEBUImGuiTabItem@@@Z 0000000140089a40 f i imgui.obj
 0001:00088ad0       ?insert@?$ImVector@PEAUImGuiWindow@@@@QEAAPEAPEAUImGuiWindow@@PEBQEAU2@AEBQEAU2@@Z 0000000140089ad0 f i imgui.obj
 0001:00088c20       ?insert@?$ImVector@UImGuiStoragePair@ImGuiStorage@@@@QEAAPEAUImGuiStoragePair@ImGuiStorage@@PEBU23@AEBU23@@Z 0000000140089c20 f i imgui.obj
 0001:00088d70       ?next_chunk@?$ImChunkStream@UImGuiWindowSettings@@@@QEAAPEAUImGuiWindowSettings@@PEAU2@@Z 0000000140089d70 f i imgui.obj
 0001:00088e40       ?offset_from_ptr@?$ImChunkStream@UImGuiWindowSettings@@@@QEAAHPEBUImGuiWindowSettings@@@Z 0000000140089e40 f i imgui.obj
 0001:00088eb0       ?pop_back@?$ImVector@H@@QEAAXXZ 0000000140089eb0 f i imgui.obj
 0001:00088eb0       ?pop_back@?$ImVector@PEAX@@QEAAXXZ 0000000140089eb0 f i imgui_draw.obj
 0001:00088eb0       ?pop_back@?$ImVector@I@@QEAAXXZ 0000000140089eb0 f i imgui.obj
 0001:00088eb0       ?pop_back@?$ImVector@UImVec2@@@@QEAAXXZ 0000000140089eb0 f i imgui_demo.obj
 0001:00088eb0       ?pop_back@?$ImVector@UImDrawCmd@@@@QEAAXXZ 0000000140089eb0 f i imgui.obj
 0001:00088eb0       ?pop_back@?$ImVector@PEAUImFont@@@@QEAAXXZ 0000000140089eb0 f i imgui.obj
 0001:00088eb0       ?pop_back@?$ImVector@UImGuiPopupData@@@@QEAAXXZ 0000000140089eb0 f i imgui.obj
 0001:00088eb0       ?pop_back@?$ImVector@UImGuiGroupData@@@@QEAAXXZ 0000000140089eb0 f i imgui.obj
 0001:00088eb0       ?pop_back@?$ImVector@PEAUImGuiWindow@@@@QEAAXXZ 0000000140089eb0 f i imgui.obj
 0001:00088eb0       ?pop_back@?$ImVector@UImGuiStyleMod@@@@QEAAXXZ 0000000140089eb0 f i imgui.obj
 0001:00088eb0       ?pop_back@?$ImVector@UImGuiPtrOrIndex@@@@QEAAXXZ 0000000140089eb0 f i imgui_widgets.obj
 0001:00088eb0       ?pop_back@?$ImVector@UImGuiColorMod@@@@QEAAXXZ 0000000140089eb0 f i imgui.obj
 0001:00088eb0       ?pop_back@?$ImVector@M@@QEAAXXZ 0000000140089eb0 f i imgui.obj
 0001:00088eb0       ?pop_back@?$ImVector@UImVec4@@@@QEAAXXZ 0000000140089eb0 f i imgui_draw.obj
 0001:00088f00       ?ptr_from_offset@?$ImChunkStream@UImGuiWindowSettings@@@@QEAAPEAUImGuiWindowSettings@@H@Z 0000000140089f00 f i imgui.obj
 0001:00088f50       ?push_back@?$ImVector@D@@QEAAXAEBD@Z 0000000140089f50 f i imgui.obj
 0001:00088fd0       ?push_back@?$ImVector@G@@QEAAXAEBG@Z 0000000140089fd0 f i imgui.obj
 0001:00089050       ?push_back@?$ImVector@H@@QEAAXAEBH@Z 000000014008a050 f i imgui.obj
 0001:00089050       ?push_back@?$ImVector@M@@QEAAXAEBM@Z 000000014008a050 f i imgui.obj
 0001:00089050       ?push_back@?$ImVector@I@@QEAAXAEBI@Z 000000014008a050 f i imgui.obj
 0001:000890c0       ?push_back@?$ImVector@PEAUImGuiViewportP@@@@QEAAXAEBQEAUImGuiViewportP@@@Z 000000014008a0c0 f i imgui.obj
 0001:000890c0       ?push_back@?$ImVector@PEAUMyDocument@@@@QEAAXAEBQEAUMyDocument@@@Z 000000014008a0c0 f i imgui_demo.obj
 0001:000890c0       ?push_back@?$ImVector@PEAX@@QEAAXAEBQEAX@Z 000000014008a0c0 f i imgui_draw.obj
 0001:000890c0       ?push_back@?$ImVector@PEAUImGuiWindow@@@@QEAAXAEBQEAUImGuiWindow@@@Z 000000014008a0c0 f i imgui.obj
 0001:000890c0       ?push_back@?$ImVector@PEAUImGuiDockNode@@@@QEAAXAEBQEAUImGuiDockNode@@@Z 000000014008a0c0 f i imgui.obj
 0001:000890c0       ?push_back@?$ImVector@PEAUImFont@@@@QEAAXAEBQEAUImFont@@@Z 000000014008a0c0 f i imgui.obj
 0001:000890c0       ?push_back@?$ImVector@PEAUImGuiViewport@@@@QEAAXAEBQEAUImGuiViewport@@@Z 000000014008a0c0 f i imgui.obj
 0001:000890c0       ?push_back@?$ImVector@PEAUImDrawList@@@@QEAAXAEBQEAUImDrawList@@@Z 000000014008a0c0 f i imgui.obj
 0001:000890c0       ?push_back@?$ImVector@UImVec2@@@@QEAAXAEBUImVec2@@@Z 000000014008a0c0 f i imgui.obj
 0001:00089140       ?push_back@?$ImVector@UImGuiColorMod@@@@QEAAXAEBUImGuiColorMod@@@Z 000000014008a140 f i imgui.obj
 0001:000891c0       ?push_back@?$ImVector@UImGuiDockNodeSettings@@@@QEAAXAEBUImGuiDockNodeSettings@@@Z 000000014008a1c0 f i imgui.obj
 0001:00089240       ?push_back@?$ImVector@UImGuiDockRequest@@@@QEAAXAEBUImGuiDockRequest@@@Z 000000014008a240 f i imgui.obj
 0001:000892c0       ?push_back@?$ImVector@UImGuiPopupData@@@@QEAAXAEBUImGuiPopupData@@@Z 000000014008a2c0 f i imgui.obj
 0001:000892c0       ?push_back@?$ImVector@UImGuiSettingsHandler@@@@QEAAXAEBUImGuiSettingsHandler@@@Z 000000014008a2c0 f i imgui.obj
 0001:00089340       ?push_back@?$ImVector@UImGuiStyleMod@@@@QEAAXAEBUImGuiStyleMod@@@Z 000000014008a340 f i imgui.obj
 0001:000893c0       ?push_back@?$ImVector@UImGuiPtrOrIndex@@@@QEAAXAEBUImGuiPtrOrIndex@@@Z 000000014008a3c0 f i imgui_widgets.obj
 0001:000893c0       ?push_back@?$ImVector@UImVec4@@@@QEAAXAEBUImVec4@@@Z 000000014008a3c0 f i imgui_draw.obj
 0001:000893c0       ?push_back@?$ImVector@UImGuiTextRange@ImGuiTextFilter@@@@QEAAXAEBUImGuiTextRange@ImGuiTextFilter@@@Z 000000014008a3c0 f i imgui.obj
 0001:00089440       ?push_front@?$ImVector@PEAUImGuiWindow@@@@QEAAXAEBQEAUImGuiWindow@@@Z 000000014008a440 f i imgui.obj
 0001:00089490       ?reserve@?$ImVector@E@@QEAAXH@Z 000000014008a490 f i imgui.obj
 0001:00089520       ?reserve@?$ImVector@G@@QEAAXH@Z 000000014008a520 f i imgui.obj
 0001:000895b0       ?reserve@?$ImVector@I@@QEAAXH@Z 000000014008a5b0 f i imgui.obj
 0001:000895b0       ?reserve@?$ImVector@M@@QEAAXH@Z 000000014008a5b0 f i imgui.obj
 0001:000895b0       ?reserve@?$ImVector@H@@QEAAXH@Z 000000014008a5b0 f i imgui.obj
 0001:00089640       ?reserve@?$ImVector@UImGuiShrinkWidthItem@@@@QEAAXH@Z 000000014008a640 f i imgui_widgets.obj
 0001:00089640       ?reserve@?$ImVector@PEAUImGuiViewportP@@@@QEAAXH@Z 000000014008a640 f i imgui.obj
 0001:00089640       ?reserve@?$ImVector@PEAUImGuiWindow@@@@QEAAXH@Z 000000014008a640 f i imgui.obj
 0001:00089640       ?reserve@?$ImVector@PEAX@@QEAAXH@Z 000000014008a640 f i imgui_draw.obj
 0001:00089640       ?reserve@?$ImVector@PEAUImGuiDockNode@@@@QEAAXH@Z 000000014008a640 f i imgui.obj
 0001:00089640       ?reserve@?$ImVector@PEAUImFont@@@@QEAAXH@Z 000000014008a640 f i imgui.obj
 0001:00089640       ?reserve@?$ImVector@PEAUMyDocument@@@@QEAAXH@Z 000000014008a640 f i imgui_demo.obj
 0001:00089640       ?reserve@?$ImVector@UImVec2@@@@QEAAXH@Z 000000014008a640 f i imgui.obj
 0001:00089640       ?reserve@?$ImVector@PEAUImDrawList@@@@QEAAXH@Z 000000014008a640 f i imgui.obj
 0001:00089640       ?reserve@?$ImVector@PEAUImGuiViewport@@@@QEAAXH@Z 000000014008a640 f i imgui.obj
 0001:000896d0       ?reserve@?$ImVector@UImGuiColorMod@@@@QEAAXH@Z 000000014008a6d0 f i imgui.obj
 0001:000896d0       ?reserve@?$ImVector@UImDrawVert@@@@QEAAXH@Z 000000014008a6d0 f i imgui.obj
 0001:00089760       ?reserve@?$ImVector@UImGuiTextRange@ImGuiTextFilter@@@@QEAAXH@Z 000000014008a760 f i imgui.obj
 0001:00089760       ?reserve@?$ImVector@UImGuiPtrOrIndex@@@@QEAAXH@Z 000000014008a760 f i imgui_widgets.obj
 0001:00089760       ?reserve@?$ImVector@UImVec4@@@@QEAAXH@Z 000000014008a760 f i imgui_draw.obj
 0001:00089760       ?reserve@?$ImVector@Ustbrp_rect@@@@QEAAXH@Z 000000014008a760 f i imgui_draw.obj
 0001:00089760       ?reserve@?$ImVector@UImGuiStoragePair@ImGuiStorage@@@@QEAAXH@Z 000000014008a760 f i imgui.obj
 0001:00089760       ?reserve@?$ImVector@UImGuiDockContextPruneNodeData@@@@QEAAXH@Z 000000014008a760 f i imgui.obj
 0001:000897f0       ?reserve@?$ImVector@UImGuiDockNodeSettings@@@@QEAAXH@Z 000000014008a7f0 f i imgui.obj
 0001:00089880       ?reserve@?$ImVector@UImGuiDockRequest@@@@QEAAXH@Z 000000014008a880 f i imgui.obj
 0001:00089910       ?reserve@?$ImVector@UImGuiGroupData@@@@QEAAXH@Z 000000014008a910 f i imgui.obj
 0001:000899a0       ?reserve@?$ImVector@UImGuiPopupData@@@@QEAAXH@Z 000000014008a9a0 f i imgui.obj
 0001:000899a0       ?reserve@?$ImVector@UImGuiSettingsHandler@@@@QEAAXH@Z 000000014008a9a0 f i imgui.obj
 0001:00089a30       ?reserve@?$ImVector@UImGuiStyleMod@@@@QEAAXH@Z 000000014008aa30 f i imgui.obj
 0001:00089ac0       ?reserve@ImGuiTextBuffer@@QEAAXH@Z 000000014008aac0 f i imgui.obj
 0001:00089af0       ?resize@?$ImVector@E@@QEAAXH@Z 000000014008aaf0 f i imgui.obj
 0001:00089b40       ?resize@?$ImVector@G@@QEAAXH@Z 000000014008ab40 f i imgui.obj
 0001:00089b90       ?resize@?$ImVector@H@@QEAAXH@Z 000000014008ab90 f i imgui.obj
 0001:00089b90       ?resize@?$ImVector@M@@QEAAXH@Z 000000014008ab90 f i imgui.obj
 0001:00089b90       ?resize@?$ImVector@I@@QEAAXH@Z 000000014008ab90 f i imgui.obj
 0001:00089be0       ?resize@?$ImVector@PEAUImGuiWindow@@@@QEAAXH@Z 000000014008abe0 f i imgui.obj
 0001:00089be0       ?resize@?$ImVector@UImVec2@@@@QEAAXH@Z 000000014008abe0 f i imgui_draw.obj
 0001:00089be0       ?resize@?$ImVector@PEAUImGuiViewport@@@@QEAAXH@Z 000000014008abe0 f i imgui.obj
 0001:00089be0       ?resize@?$ImVector@UImGuiShrinkWidthItem@@@@QEAAXH@Z 000000014008abe0 f i imgui_widgets.obj
 0001:00089be0       ?resize@?$ImVector@PEAX@@QEAAXH@Z 000000014008abe0 f i imgui_draw.obj
 0001:00089be0       ?resize@?$ImVector@PEAUImDrawList@@@@QEAAXH@Z 000000014008abe0 f i imgui.obj
 0001:00089c30       ?resize@?$ImVector@UImGuiDockContextPruneNodeData@@@@QEAAXH@Z 000000014008ac30 f i imgui.obj
 0001:00089c30       ?resize@?$ImVector@UImGuiTextRange@ImGuiTextFilter@@@@QEAAXH@Z 000000014008ac30 f i imgui.obj
 0001:00089c30       ?resize@?$ImVector@UImVec4@@@@QEAAXH@Z 000000014008ac30 f i imgui_draw.obj
 0001:00089c30       ?resize@?$ImVector@Ustbrp_rect@@@@QEAAXH@Z 000000014008ac30 f i imgui_draw.obj
 0001:00089c80       ?resize@?$ImVector@UImGuiDockNodeSettings@@@@QEAAXH@Z 000000014008ac80 f i imgui.obj
 0001:00089cd0       ?resize@?$ImVector@UImGuiDockRequest@@@@QEAAXH@Z 000000014008acd0 f i imgui.obj
 0001:00089d20       ?resize@?$ImVector@UImGuiGroupData@@@@QEAAXH@Z 000000014008ad20 f i imgui.obj
 0001:00089d70       ?resize@?$ImVector@UImGuiPopupData@@@@QEAAXH@Z 000000014008ad70 f i imgui.obj
 0001:00089dc0       ?size@ImGuiTextBuffer@@QEBAHXZ 000000014008adc0 f i imgui.obj
 0001:00089df0       ?size_in_bytes@?$ImVector@UImGuiStoragePair@ImGuiStorage@@@@QEBAHXZ 000000014008adf0 f i imgui.obj
 0001:00089df0       ?size_in_bytes@?$ImVector@Ustbrp_rect@@@@QEBAHXZ 000000014008adf0 f i imgui_draw.obj
 0001:00089e00       ?swap@?$ImVector@UImDrawVert@@@@QEAAXAEAU1@@Z 000000014008ae00 f i imgui_draw.obj
 0001:00089e00       ?swap@?$ImVector@PEAUImGuiWindow@@@@QEAAXAEAU1@@Z 000000014008ae00 f i imgui.obj
 0001:00089e90       _vsnprintf                 000000014008ae90 f i imgui.obj
 0001:00089ed0       fabsf                      000000014008aed0 f i imgui.obj
 0001:00089ef0       ?ShowDemoWindow@ImGui@@YAXPEA_N@Z 000000014008aef0 f   imgui_demo.obj
 0001:0008a9c0       ?ShowAboutWindow@ImGui@@YAXPEA_N@Z 000000014008b9c0 f   imgui_demo.obj
 0001:0008afc0       ?ShowStyleEditor@ImGui@@YAXPEAUImGuiStyle@@@Z 000000014008bfc0 f   imgui_demo.obj
 0001:0008c570       ?ShowStyleSelector@ImGui@@YA_NPEBD@Z 000000014008d570 f   imgui_demo.obj
 0001:0008c5f0       ?ShowFontSelector@ImGui@@YAXPEBD@Z 000000014008d5f0 f   imgui_demo.obj
 0001:0008c730       ?ShowUserGuide@ImGui@@YAXXZ 000000014008d730 f   imgui_demo.obj
 0001:0009d480       ??0ExampleAppConsole@@QEAA@XZ 000000014009e480 f i imgui_demo.obj
 0001:0009d5d0       ??0ExampleAppDocuments@@QEAA@XZ 000000014009e5d0 f i imgui_demo.obj
 0001:0009d820       ??0ExampleAppLog@@QEAA@XZ  000000014009e820 f i imgui_demo.obj
 0001:0009d890       ??0ImColor@@QEAA@AEBUImVec4@@@Z 000000014009e890 f i imgui_demo.obj
 0001:0009d8d0       ??0ImColor@@QEAA@MMMM@Z    000000014009e8d0 f i imgui_demo.obj
 0001:0009d950       ??0MyDocument@@QEAA@PEBD_NAEBUImVec4@@@Z 000000014009e950 f i imgui_demo.obj
 0001:0009d9e0       ??1ExampleAppConsole@@QEAA@XZ 000000014009e9e0 f i imgui_demo.obj
 0001:0009da90       ??1ExampleAppLog@@QEAA@XZ  000000014009ea90 f i imgui_demo.obj
 0001:0009dad0       ??A?$ImVector@UMyDocument@@@@QEAAAEAUMyDocument@@H@Z 000000014009ead0 f i imgui_demo.obj
 0001:0009dad0       ??A?$ImVector@UImFontAtlasCustomRect@@@@QEAAAEAUImFontAtlasCustomRect@@H@Z 000000014009ead0 f i imgui_draw.obj
 0001:0009dad0       ??A?$ImVector@UImDrawChannel@@@@QEAAAEAUImDrawChannel@@H@Z 000000014009ead0 f i imgui_draw.obj
 0001:0009dad0       ??A?$ImVector@UImFontBuildDstData@@@@QEAAAEAUImFontBuildDstData@@H@Z 000000014009ead0 f i imgui_draw.obj
 0001:0009db20       ??AImGuiTextBuffer@@QEBADH@Z 000000014009eb20 f i imgui_demo.obj
 0001:0009db70       ??BImColor@@QEBA?AUImVec4@@XZ 000000014009eb70 f i imgui_demo.obj
 0001:0009dba0       ??BImColor@@QEBAIXZ        000000014009eba0 f i imgui_demo.obj
 0001:0009dbc0       ?AddLog@ExampleAppConsole@@QEAAXPEBDZZ 000000014009ebc0 f i imgui_demo.obj
 0001:0009dc90       ?AddLog@ExampleAppLog@@QEAAXPEBDZZ 000000014009ec90 f i imgui_demo.obj
 0001:0009dd50       ?Clear@ExampleAppLog@@QEAAXXZ 000000014009ed50 f i imgui_demo.obj
 0001:0009dda0       ?ClearLog@ExampleAppConsole@@QEAAXXZ 000000014009eda0 f i imgui_demo.obj
 0001:0009de10       ?DisplayContents@MyDocument@@SAXPEAU1@@Z 000000014009ee10 f i imgui_demo.obj
 0001:0009df00       ?DisplayContextMenu@MyDocument@@SAXPEAU1@@Z 000000014009ef00 f i imgui_demo.obj
 0001:0009dfe0       ?DoForceClose@MyDocument@@QEAAXXZ 000000014009efe0 f i imgui_demo.obj
 0001:0009e000       ?DoOpen@MyDocument@@QEAAXXZ 000000014009f000 f i imgui_demo.obj
 0001:0009e010       ?DoQueueClose@MyDocument@@QEAAXXZ 000000014009f010 f i imgui_demo.obj
 0001:0009e020       ?DoSave@MyDocument@@QEAAXXZ 000000014009f020 f i imgui_demo.obj
 0001:0009e030       ?Draw@ExampleAppConsole@@QEAAXPEBDPEA_N@Z 000000014009f030 f i imgui_demo.obj
 0001:0009e640       ?Draw@ExampleAppLog@@QEAAXPEBDPEA_N@Z 000000014009f640 f i imgui_demo.obj
 0001:0009ead0       ?ExecCommand@ExampleAppConsole@@QEAAXPEBD@Z 000000014009fad0 f i imgui_demo.obj
 0001:0009ed90       ?GetDebugName@ImFont@@QEBAPEBDXZ 000000014009fd90 f i imgui_demo.obj
 0001:0009edd0       ?HSV@ImColor@@SA?AU1@MMMM@Z 000000014009fdd0 f i imgui_demo.obj
 0001:0009ee50       ?IsActive@ImGuiTextFilter@@QEBA_NXZ 000000014009fe50 f i imgui_demo.obj
 0001:0009f160       ?Strdup@ExampleAppConsole@@SAPEADPEBD@Z 00000001400a0160 f i imgui_demo.obj
 0001:0009f1f0       ?Stricmp@ExampleAppConsole@@SAHPEBD0@Z 00000001400a01f0 f i imgui_demo.obj
 0001:0009f270       ?Strnicmp@ExampleAppConsole@@SAHPEBD0H@Z 00000001400a0270 f i imgui_demo.obj
 0001:0009f300       ?Strtrim@ExampleAppConsole@@SAXPEAD@Z 00000001400a0300 f i imgui_demo.obj
 0001:0009f380       ?TextEditCallback@ExampleAppConsole@@QEAAHPEAUImGuiInputTextCallbackData@@@Z 00000001400a0380 f i imgui_demo.obj
 0001:0009f920       ?TextEditCallbackStub@ExampleAppConsole@@SAHPEAUImGuiInputTextCallbackData@@@Z 00000001400a0920 f i imgui_demo.obj
 0001:0009f950       ?back@?$ImVector@D@@QEBAAEBDXZ 00000001400a0950 f i imgui_demo.obj
 0001:0009f9a0       ?capacity@?$ImVector@D@@QEBAHXZ 00000001400a09a0 f i imgui_demo.obj
 0001:0009f9b0       ?end@ImGuiTextBuffer@@QEBAPEBDXZ 00000001400a09b0 f i imgui_demo.obj
 0001:0009f9f0       ?push_back@?$ImVector@UImFontAtlasCustomRect@@@@QEAAXAEBUImFontAtlasCustomRect@@@Z 00000001400a09f0 f i imgui_draw.obj
 0001:0009f9f0       ?push_back@?$ImVector@UMyDocument@@@@QEAAXAEBUMyDocument@@@Z 00000001400a09f0 f i imgui_demo.obj
 0001:0009fa70       ?reserve@?$ImVector@UImFontBuildDstData@@@@QEAAXH@Z 00000001400a0a70 f i imgui_draw.obj
 0001:0009fa70       ?reserve@?$ImVector@UImDrawChannel@@@@QEAAXH@Z 00000001400a0a70 f i imgui_draw.obj
 0001:0009fa70       ?reserve@?$ImVector@UImFontAtlasCustomRect@@@@QEAAXH@Z 00000001400a0a70 f i imgui_draw.obj
 0001:0009fa70       ?reserve@?$ImVector@UMyDocument@@@@QEAAXH@Z 00000001400a0a70 f i imgui_demo.obj
 0001:0009fb00       ?StyleColorsDark@ImGui@@YAXPEAUImGuiStyle@@@Z 00000001400a0b00 f   imgui_draw.obj
 0001:000a0ab0       ?StyleColorsClassic@ImGui@@YAXPEAUImGuiStyle@@@Z 00000001400a1ab0 f   imgui_draw.obj
 0001:000a1a50       ?StyleColorsLight@ImGui@@YAXPEAUImGuiStyle@@@Z 00000001400a2a50 f   imgui_draw.obj
 0001:000a2a00       ?ClearFreeMemory@ImDrawListSplitter@@QEAAXXZ 00000001400a3a00 f   imgui_draw.obj
 0001:000a2ae0       ?Split@ImDrawListSplitter@@QEAAXPEAUImDrawList@@H@Z 00000001400a3ae0 f   imgui_draw.obj
 0001:000a2d20       ?Merge@ImDrawListSplitter@@QEAAXPEAUImDrawList@@@Z 00000001400a3d20 f   imgui_draw.obj
 0001:000a3170       ?SetCurrentChannel@ImDrawListSplitter@@QEAAXPEAUImDrawList@@H@Z 00000001400a4170 f   imgui_draw.obj
 0001:000a32a0       ?PushClipRect@ImDrawList@@QEAAXUImVec2@@0_N@Z 00000001400a42a0 f   imgui_draw.obj
 0001:000a3400       ?PushClipRectFullScreen@ImDrawList@@QEAAXXZ 00000001400a4400 f   imgui_draw.obj
 0001:000a3480       ?PopClipRect@ImDrawList@@QEAAXXZ 00000001400a4480 f   imgui_draw.obj
 0001:000a34e0       ?PushTextureID@ImDrawList@@QEAAXPEAX@Z 00000001400a44e0 f   imgui_draw.obj
 0001:000a3520       ?PopTextureID@ImDrawList@@QEAAXXZ 00000001400a4520 f   imgui_draw.obj
 0001:000a3580       ?AddLine@ImDrawList@@QEAAXAEBUImVec2@@0IM@Z 00000001400a4580 f   imgui_draw.obj
 0001:000a3640       ?AddRect@ImDrawList@@QEAAXAEBUImVec2@@0IMHM@Z 00000001400a4640 f   imgui_draw.obj
 0001:000a37e0       ?AddRectFilled@ImDrawList@@QEAAXAEBUImVec2@@0IMH@Z 00000001400a47e0 f   imgui_draw.obj
 0001:000a3890       ?AddRectFilledMultiColor@ImDrawList@@QEAAXAEBUImVec2@@0IIII@Z 00000001400a4890 f   imgui_draw.obj
 0001:000a3a20       ?AddQuad@ImDrawList@@QEAAXAEBUImVec2@@000IM@Z 00000001400a4a20 f   imgui_draw.obj
 0001:000a3ab0       ?AddQuadFilled@ImDrawList@@QEAAXAEBUImVec2@@000I@Z 00000001400a4ab0 f   imgui_draw.obj
 0001:000a3b30       ?AddTriangle@ImDrawList@@QEAAXAEBUImVec2@@00IM@Z 00000001400a4b30 f   imgui_draw.obj
 0001:000a3bb0       ?AddTriangleFilled@ImDrawList@@QEAAXAEBUImVec2@@00I@Z 00000001400a4bb0 f   imgui_draw.obj
 0001:000a3c20       ?AddCircle@ImDrawList@@QEAAXAEBUImVec2@@MIHM@Z 00000001400a4c20 f   imgui_draw.obj
 0001:000a3db0       ?AddCircleFilled@ImDrawList@@QEAAXAEBUImVec2@@MIH@Z 00000001400a4db0 f   imgui_draw.obj
 0001:000a3f20       ?AddNgon@ImDrawList@@QEAAXAEBUImVec2@@MIHM@Z 00000001400a4f20 f   imgui_draw.obj
 0001:000a3fe0       ?AddNgonFilled@ImDrawList@@QEAAXAEBUImVec2@@MIH@Z 00000001400a4fe0 f   imgui_draw.obj
 0001:000a4090       ?AddText@ImDrawList@@QEAAXAEBUImVec2@@IPEBD1@Z 00000001400a5090 f   imgui_draw.obj
 0001:000a4100       ?AddText@ImDrawList@@QEAAXPEBUImFont@@MAEBUImVec2@@IPEBD2MPEBUImVec4@@@Z 00000001400a5100 f   imgui_draw.obj
 0001:000a4380       ?AddPolyline@ImDrawList@@QEAAXPEBUImVec2@@HI_NM@Z 00000001400a5380 f   imgui_draw.obj
 0001:000a5dc0       ?AddConvexPolyFilled@ImDrawList@@QEAAXPEBUImVec2@@HI@Z 00000001400a6dc0 f   imgui_draw.obj
 0001:000a65c0       ?AddBezierCurve@ImDrawList@@QEAAXAEBUImVec2@@000IMH@Z 00000001400a75c0 f   imgui_draw.obj
 0001:000a6640       ?AddImage@ImDrawList@@QEAAXPEAXAEBUImVec2@@111I@Z 00000001400a7640 f   imgui_draw.obj
 0001:000a6730       ?AddImageQuad@ImDrawList@@QEAAXPEAXAEBUImVec2@@1111111I@Z 00000001400a7730 f   imgui_draw.obj
 0001:000a6860       ?AddImageRounded@ImDrawList@@QEAAXPEAXAEBUImVec2@@111IMH@Z 00000001400a7860 f   imgui_draw.obj
 0001:000a6a00       ?PathArcTo@ImDrawList@@QEAAXAEBUImVec2@@MMMH@Z 00000001400a7a00 f   imgui_draw.obj
 0001:000a6b50       ?PathArcToFast@ImDrawList@@QEAAXAEBUImVec2@@MHH@Z 00000001400a7b50 f   imgui_draw.obj
 0001:000a6c90       ?PathBezierCurveTo@ImDrawList@@QEAAXAEBUImVec2@@00H@Z 00000001400a7c90 f   imgui_draw.obj
 0001:000a6e30       ?PathRect@ImDrawList@@QEAAXAEBUImVec2@@0MH@Z 00000001400a7e30 f   imgui_draw.obj
 0001:000a7240       ?AddCallback@ImDrawList@@QEAAXP6AXPEBU1@PEBUImDrawCmd@@@ZPEAX@Z 00000001400a8240 f   imgui_draw.obj
 0001:000a72f0       ?AddDrawCmd@ImDrawList@@QEAAXXZ 00000001400a82f0 f   imgui_draw.obj
 0001:000a7430       ?CloneOutput@ImDrawList@@QEBAPEAU1@XZ 00000001400a8430 f   imgui_draw.obj
 0001:000a7500       ?Clear@ImDrawList@@QEAAXXZ 00000001400a8500 f   imgui_draw.obj
 0001:000a7600       ?ClearFreeMemory@ImDrawList@@QEAAXXZ 00000001400a8600 f   imgui_draw.obj
 0001:000a76c0       ?PrimReserve@ImDrawList@@QEAAXHH@Z 00000001400a86c0 f   imgui_draw.obj
 0001:000a77f0       ?PrimUnreserve@ImDrawList@@QEAAXHH@Z 00000001400a87f0 f   imgui_draw.obj
 0001:000a7880       ?PrimRect@ImDrawList@@QEAAXAEBUImVec2@@0I@Z 00000001400a8880 f   imgui_draw.obj
 0001:000a7b40       ?PrimRectUV@ImDrawList@@QEAAXAEBUImVec2@@000I@Z 00000001400a8b40 f   imgui_draw.obj
 0001:000a7e40       ?PrimQuadUV@ImDrawList@@QEAAXAEBUImVec2@@0000000I@Z 00000001400a8e40 f   imgui_draw.obj
 0001:000a80c0       ?UpdateClipRect@ImDrawList@@QEAAXXZ 00000001400a90c0 f   imgui_draw.obj
 0001:000a82d0       ?UpdateTextureID@ImDrawList@@QEAAXXZ 00000001400a92d0 f   imgui_draw.obj
 0001:000a8480       ?DeIndexAllBuffers@ImDrawData@@QEAAXXZ 00000001400a9480 f   imgui_draw.obj
 0001:000a85f0       ?ScaleClipRects@ImDrawData@@QEAAXAEBUImVec2@@@Z 00000001400a95f0 f   imgui_draw.obj
 0001:000a8730       ??0ImFontConfig@@QEAA@XZ   00000001400a9730 f   imgui_draw.obj
 0001:000a8890       ?AddText@ImFontGlyphRangesBuilder@@QEAAXPEBD0@Z 00000001400a9890 f   imgui_draw.obj
 0001:000a8950       ?AddRanges@ImFontGlyphRangesBuilder@@QEAAXPEBG@Z 00000001400a9950 f   imgui_draw.obj
 0001:000a89f0       ?BuildRanges@ImFontGlyphRangesBuilder@@QEAAXPEAU?$ImVector@G@@@Z 00000001400a99f0 f   imgui_draw.obj
 0001:000a8ad0       ??0ImFontAtlas@@QEAA@XZ    00000001400a9ad0 f   imgui_draw.obj
 0001:000a8c10       ??1ImFontAtlas@@QEAA@XZ    00000001400a9c10 f   imgui_draw.obj
 0001:000a8ca0       ?AddFont@ImFontAtlas@@QEAAPEAUImFont@@PEBUImFontConfig@@@Z 00000001400a9ca0 f   imgui_draw.obj
 0001:000a8ef0       ?AddFontDefault@ImFontAtlas@@QEAAPEAUImFont@@PEBUImFontConfig@@@Z 00000001400a9ef0 f   imgui_draw.obj
 0001:000a90a0       ?AddFontFromFileTTF@ImFontAtlas@@QEAAPEAUImFont@@PEBDMPEBUImFontConfig@@PEBG@Z 00000001400aa0a0 f   imgui_draw.obj
 0001:000a9300       ?AddFontFromMemoryTTF@ImFontAtlas@@QEAAPEAUImFont@@PEAXHMPEBUImFontConfig@@PEBG@Z 00000001400aa300 f   imgui_draw.obj
 0001:000a9460       ?AddFontFromMemoryCompressedTTF@ImFontAtlas@@QEAAPEAUImFont@@PEBXHMPEBUImFontConfig@@PEBG@Z 00000001400aa460 f   imgui_draw.obj
 0001:000a95b0       ?AddFontFromMemoryCompressedBase85TTF@ImFontAtlas@@QEAAPEAUImFont@@PEBDMPEBUImFontConfig@@PEBG@Z 00000001400aa5b0 f   imgui_draw.obj
 0001:000a9680       ?ClearInputData@ImFontAtlas@@QEAAXXZ 00000001400aa680 f   imgui_draw.obj
 0001:000a9880       ?ClearTexData@ImFontAtlas@@QEAAXXZ 00000001400aa880 f   imgui_draw.obj
 0001:000a9920       ?ClearFonts@ImFontAtlas@@QEAAXXZ 00000001400aa920 f   imgui_draw.obj
 0001:000a99c0       ?Clear@ImFontAtlas@@QEAAXXZ 00000001400aa9c0 f   imgui_draw.obj
 0001:000a9a00       ?Build@ImFontAtlas@@QEAA_NXZ 00000001400aaa00 f   imgui_draw.obj
 0001:000a9a60       ?GetTexDataAsAlpha8@ImFontAtlas@@QEAAXPEAPEAEPEAH11@Z 00000001400aaa60 f   imgui_draw.obj
 0001:000a9b10       ?GetTexDataAsRGBA32@ImFontAtlas@@QEAAXPEAPEAEPEAH11@Z 00000001400aab10 f   imgui_draw.obj
 0001:000a9c80       ?GetGlyphRangesDefault@ImFontAtlas@@QEAAPEBGXZ 00000001400aac80 f   imgui_draw.obj
 0001:000a9cb0       ?GetGlyphRangesKorean@ImFontAtlas@@QEAAPEBGXZ 00000001400aacb0 f   imgui_draw.obj
 0001:000a9ce0       ?GetGlyphRangesJapanese@ImFontAtlas@@QEAAPEBGXZ 00000001400aace0 f   imgui_draw.obj
 0001:000a9d70       ?GetGlyphRangesChineseFull@ImFontAtlas@@QEAAPEBGXZ 00000001400aad70 f   imgui_draw.obj
 0001:000a9da0       ?GetGlyphRangesChineseSimplifiedCommon@ImFontAtlas@@QEAAPEBGXZ 00000001400aada0 f   imgui_draw.obj
 0001:000a9e30       ?GetGlyphRangesCyrillic@ImFontAtlas@@QEAAPEBGXZ 00000001400aae30 f   imgui_draw.obj
 0001:000a9e60       ?GetGlyphRangesThai@ImFontAtlas@@QEAAPEBGXZ 00000001400aae60 f   imgui_draw.obj
 0001:000a9e90       ?GetGlyphRangesVietnamese@ImFontAtlas@@QEAAPEBGXZ 00000001400aae90 f   imgui_draw.obj
 0001:000a9ec0       ?AddCustomRectRegular@ImFontAtlas@@QEAAHIHH@Z 00000001400aaec0 f   imgui_draw.obj
 0001:000a9fb0       ?AddCustomRectFontGlyph@ImFontAtlas@@QEAAHPEAUImFont@@GHHMAEBUImVec2@@@Z 00000001400aafb0 f   imgui_draw.obj
 0001:000aa0c0       ?CalcCustomRectUV@ImFontAtlas@@QEBAXPEBUImFontAtlasCustomRect@@PEAUImVec2@@1@Z 00000001400ab0c0 f   imgui_draw.obj
 0001:000aa1f0       ?GetMouseCursorTexData@ImFontAtlas@@QEAA_NHPEAUImVec2@@0QEAU2@1@Z 00000001400ab1f0 f   imgui_draw.obj
 0001:000aa4c0       ??0ImFont@@QEAA@XZ         00000001400ab4c0 f   imgui_draw.obj
 0001:000aa600       ??1ImFont@@QEAA@XZ         00000001400ab600 f   imgui_draw.obj
 0001:000aa650       ?FindGlyph@ImFont@@QEBAPEBUImFontGlyph@@G@Z 00000001400ab650 f   imgui_draw.obj
 0001:000aa6d0       ?FindGlyphNoFallback@ImFont@@QEBAPEBUImFontGlyph@@G@Z 00000001400ab6d0 f   imgui_draw.obj
 0001:000aa740       ?CalcTextSizeA@ImFont@@QEBA?AUImVec2@@MMMPEBD0PEAPEBD@Z 00000001400ab740 f   imgui_draw.obj
 0001:000aab30       ?CalcWordWrapPositionA@ImFont@@QEBAPEBDMPEBD0M@Z 00000001400abb30 f   imgui_draw.obj
 0001:000aae30       ?RenderChar@ImFont@@QEBAXPEAUImDrawList@@MUImVec2@@IG@Z 00000001400abe30 f   imgui_draw.obj
 0001:000ab060       ?RenderText@ImFont@@QEBAXPEAUImDrawList@@MUImVec2@@IAEBUImVec4@@PEBD3M_N@Z 00000001400ac060 f   imgui_draw.obj
 0001:000abde0       ?BuildLookupTable@ImFont@@QEAAXXZ 00000001400acde0 f   imgui_draw.obj
 0001:000ac200       ?ClearOutputData@ImFont@@QEAAXXZ 00000001400ad200 f   imgui_draw.obj
 0001:000ac2b0       ?GrowIndex@ImFont@@QEAAXH@Z 00000001400ad2b0 f   imgui_draw.obj
 0001:000ac350       ?AddGlyph@ImFont@@QEAAXGMMMMMMMMM@Z 00000001400ad350 f   imgui_draw.obj
 0001:000ac570       ?AddRemapChar@ImFont@@QEAAXGG_N@Z 00000001400ad570 f   imgui_draw.obj
 0001:000ac6c0       ?SetGlyphVisible@ImFont@@QEAAXG_N@Z 00000001400ad6c0 f   imgui_draw.obj
 0001:000ac740       ?SetFallbackChar@ImFont@@QEAAXG@Z 00000001400ad740 f   imgui_draw.obj
 0001:000ac780       ?IsGlyphRangeUnused@ImFont@@QEAA_NII@Z 00000001400ad780 f   imgui_draw.obj
 0001:000ad0e0       ?ImBezierCalc@@YA?AUImVec2@@AEBU1@000M@Z 00000001400ae0e0 f   imgui_draw.obj
 0001:000ad270       ??0ImDrawListSharedData@@QEAA@XZ 00000001400ae270 f   imgui_draw.obj
 0001:000ad420       ?SetCircleSegmentMaxError@ImDrawListSharedData@@QEAAXM@Z 00000001400ae420 f   imgui_draw.obj
 0001:000ad500       ?RenderColorRectWithAlphaCheckerboard@ImGui@@YAXPEAUImDrawList@@UImVec2@@1IM1MH@Z 00000001400ae500 f   imgui_draw.obj
 0001:000ad8a0       ?RenderArrow@ImGui@@YAXPEAUImDrawList@@UImVec2@@IHM@Z 00000001400ae8a0 f   imgui_draw.obj
 0001:000adbf0       ?RenderBullet@ImGui@@YAXPEAUImDrawList@@UImVec2@@I@Z 00000001400aebf0 f   imgui_draw.obj
 0001:000adc50       ?RenderCheckMark@ImGui@@YAXPEAUImDrawList@@UImVec2@@IM@Z 00000001400aec50 f   imgui_draw.obj
 0001:000ade00       ?RenderMouseCursor@ImGui@@YAXPEAUImDrawList@@UImVec2@@MHIII@Z 00000001400aee00 f   imgui_draw.obj
 0001:000ae340       ?RenderArrowPointingAt@ImGui@@YAXPEAUImDrawList@@UImVec2@@1HI@Z 00000001400af340 f   imgui_draw.obj
 0001:000ae610       ?RenderArrowDockMenu@ImGui@@YAXPEAUImDrawList@@UImVec2@@MI@Z 00000001400af610 f   imgui_draw.obj
 0001:000ae7a0       ?RenderRectFilledRangeH@ImGui@@YAXPEAUImDrawList@@AEBUImRect@@IMMM@Z 00000001400af7a0 f   imgui_draw.obj
 0001:000aeef0       ?RenderRectFilledWithHole@ImGui@@YAXPEAUImDrawList@@UImRect@@1IM@Z 00000001400afef0 f   imgui_draw.obj
 0001:000af600       ?ShadeVertsLinearColorGradientKeepAlpha@ImGui@@YAXPEAUImDrawList@@HHUImVec2@@1II@Z 00000001400b0600 f   imgui_draw.obj
 0001:000af7d0       ?ShadeVertsLinearUV@ImGui@@YAXPEAUImDrawList@@HHAEBUImVec2@@111_N@Z 00000001400b07d0 f   imgui_draw.obj
 0001:000afa70       ?ImFontAtlasBuildWithStbTruetype@@YA_NPEAUImFontAtlas@@@Z 00000001400b0a70 f   imgui_draw.obj
 0001:000b1350       ?ImFontAtlasBuildInit@@YAXPEAUImFontAtlas@@@Z 00000001400b2350 f   imgui_draw.obj
 0001:000b13f0       ?ImFontAtlasBuildSetupFont@@YAXPEAUImFontAtlas@@PEAUImFont@@PEAUImFontConfig@@MM@Z 00000001400b23f0 f   imgui_draw.obj
 0001:000b1490       ?ImFontAtlasBuildPackCustomRects@@YAXPEAUImFontAtlas@@PEAX@Z 00000001400b2490 f   imgui_draw.obj
 0001:000b1760       ?ImFontAtlasBuildFinish@@YAXPEAUImFontAtlas@@@Z 00000001400b2760 f   imgui_draw.obj
 0001:000b1a60       ?ImFontAtlasBuildMultiplyCalcLookupTable@@YAXQEAEM@Z 00000001400b2a60 f   imgui_draw.obj
 0001:000b1ae0       ?ImFontAtlasBuildMultiplyRectAlpha8@@YAXQEBEPEAEHHHHH@Z 00000001400b2ae0 f   imgui_draw.obj
 0001:000bf460       ??$IM_DELETE@UImFont@@@@YAXPEAUImFont@@@Z 00000001400c0460 f i imgui_draw.obj
 0001:000bf490       ??0ImDrawChannel@@QEAA@XZ  00000001400c0490 f i imgui_draw.obj
 0001:000bf4d0       ??0ImDrawCmd@@QEAA@XZ      00000001400c04d0 f i imgui_draw.obj
 0001:000bf540       ??0ImFontAtlasCustomRect@@QEAA@XZ 00000001400c0540 f i imgui_draw.obj
 0001:000bf5e0       ??1ImFontBuildSrcData@@QEAA@XZ 00000001400c05e0 f i imgui_draw.obj
 0001:000bf620       ??4?$ImVector@G@@QEAAAEAU0@AEBU0@@Z 00000001400c0620 f i imgui_draw.obj
 0001:000bf680       ??4?$ImVector@UImDrawCmd@@@@QEAAAEAU0@AEBU0@@Z 00000001400c0680 f i imgui_draw.obj
 0001:000bf6e0       ??4?$ImVector@UImDrawVert@@@@QEAAAEAU0@AEBU0@@Z 00000001400c06e0 f i imgui_draw.obj
 0001:000bf740       ??A?$ImVector@I@@QEBAAEBIH@Z 00000001400c0740 f i imgui_draw.obj
 0001:000bf740       ??A?$ImVector@M@@QEBAAEBMH@Z 00000001400c0740 f i imgui_widgets.obj
 0001:000bf790       ??A?$ImVector@UImDrawCmd@@@@QEAAAEAUImDrawCmd@@H@Z 00000001400c0790 f i imgui_draw.obj
 0001:000bf7e0       ??A?$ImVector@UImFontBuildSrcData@@@@QEAAAEAUImFontBuildSrcData@@H@Z 00000001400c07e0 f i imgui_draw.obj
 0001:000bf830       ??A?$ImVector@UImFontConfig@@@@QEAAAEAUImFontConfig@@H@Z 00000001400c0830 f i imgui_draw.obj
 0001:000bf880       ??A?$ImVector@Ustbtt_packedchar@@@@QEAAAEAUstbtt_packedchar@@H@Z 00000001400c0880 f i imgui_draw.obj
 0001:000bf880       ??A?$ImVector@UImGuiColumnData@@@@QEAAAEAUImGuiColumnData@@H@Z 00000001400c0880 f i imgui_widgets.obj
 0001:000bf8d0       ??_GImFont@@QEAAPEAXI@Z    00000001400c08d0 f i imgui_draw.obj
 0001:000bf910       ??_GImFontBuildSrcData@@QEAAPEAXI@Z 00000001400c0910 f i imgui_draw.obj
 0001:000bf950       ?AddChar@ImFontGlyphRangesBuilder@@QEAAXG@Z 00000001400c0950 f i imgui_draw.obj
 0001:000bf980       ?Create@ImBitVector@@QEAAXH@Z 00000001400c0980 f i imgui_draw.obj
 0001:000bf9d0       ?GetBit@ImFontGlyphRangesBuilder@@QEBA_N_K@Z 00000001400c09d0 f i imgui_draw.obj
 0001:000bfa50       ?ImBitArraySetBit@@YAXPEAIH@Z 00000001400c0a50 f i imgui_draw.obj
 0001:000bfab0       ?ImBitArrayTestBit@@YA_NPEBIH@Z 00000001400c0ab0 f i imgui_draw.obj
 0001:000bfb10       ?IsPacked@ImFontAtlasCustomRect@@QEBA_NXZ 00000001400c0b10 f i imgui_draw.obj
 0001:000bfb50       ?PrimWriteIdx@ImDrawList@@QEAAXG@Z 00000001400c0b50 f i imgui_draw.obj
 0001:000bfb90       ?PrimWriteVtx@ImDrawList@@QEAAXAEBUImVec2@@0I@Z 00000001400c0b90 f i imgui_draw.obj
 0001:000bfc10       ?SetBit@ImBitVector@@QEAAXH@Z 00000001400c0c10 f i imgui_draw.obj
 0001:000bfc60       ?SetBit@ImFontGlyphRangesBuilder@@QEAAX_K@Z 00000001400c0c60 f i imgui_draw.obj
 0001:000bfcd0       ?TestBit@ImBitVector@@QEBA_NH@Z 00000001400c0cd0 f i imgui_draw.obj
 0001:000bfd20       ?back@?$ImVector@UImFontConfig@@@@QEAAAEAUImFontConfig@@XZ 00000001400c0d20 f i imgui_draw.obj
 0001:000bfd70       ?end@?$ImVector@I@@QEBAPEBIXZ 00000001400c0d70 f i imgui_draw.obj
 0001:000bfd90       ?erase@?$ImVector@UImDrawCmd@@@@QEAAPEAUImDrawCmd@@PEBU2@@Z 00000001400c0d90 f i imgui_draw.obj
 0001:000bfe80       ?push_back@?$ImVector@UImDrawCmd@@@@QEAAXAEBUImDrawCmd@@@Z 00000001400c0e80 f i imgui_draw.obj
 0001:000bff00       ?push_back@?$ImVector@UImFontConfig@@@@QEAAXAEBUImFontConfig@@@Z 00000001400c0f00 f i imgui_draw.obj
 0001:000bff90       ?reserve@?$ImVector@UImDrawCmd@@@@QEAAXH@Z 00000001400c0f90 f i imgui_draw.obj
 0001:000c0020       ?reserve@?$ImVector@UImFontBuildSrcData@@@@QEAAXH@Z 00000001400c1020 f i imgui_draw.obj
 0001:000c00c0       ?reserve@?$ImVector@UImFontConfig@@@@QEAAXH@Z 00000001400c10c0 f i imgui_draw.obj
 0001:000c0160       ?reserve@?$ImVector@UImGuiTabItem@@@@QEAAXH@Z 00000001400c1160 f i imgui_widgets.obj
 0001:000c0160       ?reserve@?$ImVector@UImFontGlyph@@@@QEAAXH@Z 00000001400c1160 f i imgui_draw.obj
 0001:000c01f0       ?reserve@?$ImVector@Ustbtt_packedchar@@@@QEAAXH@Z 00000001400c11f0 f i imgui_draw.obj
 0001:000c01f0       ?reserve@?$ImVector@UImGuiColumnData@@@@QEAAXH@Z 00000001400c11f0 f i imgui_widgets.obj
 0001:000c0280       ?resize@?$ImVector@G@@QEAAXHAEBG@Z 00000001400c1280 f i imgui_draw.obj
 0001:000c0320       ?resize@?$ImVector@M@@QEAAXHAEBM@Z 00000001400c1320 f i imgui_draw.obj
 0001:000c03c0       ?resize@?$ImVector@UImDrawChannel@@@@QEAAXH@Z 00000001400c13c0 f i imgui_draw.obj
 0001:000c03c0       ?resize@?$ImVector@UImFontBuildDstData@@@@QEAAXH@Z 00000001400c13c0 f i imgui_draw.obj
 0001:000c0410       ?resize@?$ImVector@UImDrawCmd@@@@QEAAXH@Z 00000001400c1410 f i imgui_draw.obj
 0001:000c0460       ?resize@?$ImVector@UImDrawVert@@@@QEAAXH@Z 00000001400c1460 f i imgui_draw.obj
 0001:000c04b0       ?resize@?$ImVector@UImFontBuildSrcData@@@@QEAAXH@Z 00000001400c14b0 f i imgui_draw.obj
 0001:000c0500       ?resize@?$ImVector@UImGuiTabItem@@@@QEAAXH@Z 00000001400c1500 f i imgui_widgets.obj
 0001:000c0500       ?resize@?$ImVector@UImFontGlyph@@@@QEAAXH@Z 00000001400c1500 f i imgui_draw.obj
 0001:000c0550       ?resize@?$ImVector@Ustbtt_packedchar@@@@QEAAXH@Z 00000001400c1550 f i imgui_draw.obj
 0001:000c0550       ?resize@?$ImVector@UImGuiColumnData@@@@QEAAXH@Z 00000001400c1550 f i imgui_widgets.obj
 0001:000c05a0       ?shrink@?$ImVector@G@@QEAAXH@Z 00000001400c15a0 f i imgui_draw.obj
 0001:000c05a0       ?shrink@?$ImVector@UImDrawVert@@@@QEAAXH@Z 00000001400c15a0 f i imgui_draw.obj
 0001:000c05f0       ?size_in_bytes@?$ImVector@UImFontBuildDstData@@@@QEBAHXZ 00000001400c15f0 f i imgui_draw.obj
 0001:000c0600       ?size_in_bytes@?$ImVector@UImFontBuildSrcData@@@@QEBAHXZ 00000001400c1600 f i imgui_draw.obj
 0001:000c0620       ?size_in_bytes@?$ImVector@Ustbtt_packedchar@@@@QEBAHXZ 00000001400c1620 f i imgui_draw.obj
 0001:000c0630       ?Separator@ImGui@@YAXXZ    00000001400c1630 f   imgui_widgets.obj
 0001:000c06b0       ?NewLine@ImGui@@YAXXZ      00000001400c16b0 f   imgui_widgets.obj
 0001:000c0780       ?Spacing@ImGui@@YAXXZ      00000001400c1780 f   imgui_widgets.obj
 0001:000c07d0       ?Dummy@ImGui@@YAXAEBUImVec2@@@Z 00000001400c17d0 f   imgui_widgets.obj
 0001:000c0860       ?AlignTextToFramePadding@ImGui@@YAXXZ 00000001400c1860 f   imgui_widgets.obj
 0001:000c0920       ?TextUnformatted@ImGui@@YAXPEBD0@Z 00000001400c1920 f   imgui_widgets.obj
 0001:000c0950       ?Text@ImGui@@YAXPEBDZZ     00000001400c1950 f   imgui_widgets.obj
 0001:000c09a0       ?TextV@ImGui@@YAXPEBDPEAD@Z 00000001400c19a0 f   imgui_widgets.obj
 0001:000c0a40       ?TextColored@ImGui@@YAXAEBUImVec4@@PEBDZZ 00000001400c1a40 f   imgui_widgets.obj
 0001:000c0a90       ?TextColoredV@ImGui@@YAXAEBUImVec4@@PEBDPEAD@Z 00000001400c1a90 f   imgui_widgets.obj
 0001:000c0ae0       ?TextDisabled@ImGui@@YAXPEBDZZ 00000001400c1ae0 f   imgui_widgets.obj
 0001:000c0b30       ?TextDisabledV@ImGui@@YAXPEBDPEAD@Z 00000001400c1b30 f   imgui_widgets.obj
 0001:000c0b90       ?TextWrapped@ImGui@@YAXPEBDZZ 00000001400c1b90 f   imgui_widgets.obj
 0001:000c0be0       ?TextWrappedV@ImGui@@YAXPEBDPEAD@Z 00000001400c1be0 f   imgui_widgets.obj
 0001:000c0c60       ?LabelText@ImGui@@YAXPEBD0ZZ 00000001400c1c60 f   imgui_widgets.obj
 0001:000c0cb0       ?LabelTextV@ImGui@@YAXPEBD0PEAD@Z 00000001400c1cb0 f   imgui_widgets.obj
 0001:000c0f90       ?BulletText@ImGui@@YAXPEBDZZ 00000001400c1f90 f   imgui_widgets.obj
 0001:000c0fe0       ?BulletTextV@ImGui@@YAXPEBDPEAD@Z 00000001400c1fe0 f   imgui_widgets.obj
 0001:000c1290       ?Button@ImGui@@YA_NPEBDAEBUImVec2@@@Z 00000001400c2290 f   imgui_widgets.obj
 0001:000c12c0       ?SmallButton@ImGui@@YA_NPEBD@Z 00000001400c22c0 f   imgui_widgets.obj
 0001:000c1350       ?InvisibleButton@ImGui@@YA_NPEBDAEBUImVec2@@@Z 00000001400c2350 f   imgui_widgets.obj
 0001:000c1480       ?ArrowButton@ImGui@@YA_NPEBDH@Z 00000001400c2480 f   imgui_widgets.obj
 0001:000c14d0       ?Image@ImGui@@YAXPEAXAEBUImVec2@@11AEBUImVec4@@2@Z 00000001400c24d0 f   imgui_widgets.obj
 0001:000c1730       ?ImageButton@ImGui@@YA_NPEAXAEBUImVec2@@11HAEBUImVec4@@2@Z 00000001400c2730 f   imgui_widgets.obj
 0001:000c1af0       ?Checkbox@ImGui@@YA_NPEBDPEA_N@Z 00000001400c2af0 f   imgui_widgets.obj
 0001:000c2050       ?CheckboxFlags@ImGui@@YA_NPEBDPEAII@Z 00000001400c3050 f   imgui_widgets.obj
 0001:000c2100       ?RadioButton@ImGui@@YA_NPEBD_N@Z 00000001400c3100 f   imgui_widgets.obj
 0001:000c2610       ?RadioButton@ImGui@@YA_NPEBDPEAHH@Z 00000001400c3610 f   imgui_widgets.obj
 0001:000c2680       ?ProgressBar@ImGui@@YAXMAEBUImVec2@@PEBD@Z 00000001400c3680 f   imgui_widgets.obj
 0001:000c2a20       ?Bullet@ImGui@@YAXXZ       00000001400c3a20 f   imgui_widgets.obj
 0001:000c2c10       ?BeginCombo@ImGui@@YA_NPEBD0H@Z 00000001400c3c10 f   imgui_widgets.obj
 0001:000c3670       ?EndCombo@ImGui@@YAXXZ     00000001400c4670 f   imgui_widgets.obj
 0001:000c3690       ?Combo@ImGui@@YA_NPEBDPEAHQEBQEBDHH@Z 00000001400c4690 f   imgui_widgets.obj
 0001:000c36f0       ?Combo@ImGui@@YA_NPEBDPEAH0H@Z 00000001400c46f0 f   imgui_widgets.obj
 0001:000c37b0       ?Combo@ImGui@@YA_NPEBDPEAHP6A_NPEAXHPEAPEBD@Z2HH@Z 00000001400c47b0 f   imgui_widgets.obj
 0001:000c3990       ?DragFloat@ImGui@@YA_NPEBDPEAMMMM0M@Z 00000001400c4990 f   imgui_widgets.obj
 0001:000c3a00       ?DragFloat2@ImGui@@YA_NPEBDQEAMMMM0M@Z 00000001400c4a00 f   imgui_widgets.obj
 0001:000c3a80       ?DragFloat3@ImGui@@YA_NPEBDQEAMMMM0M@Z 00000001400c4a80 f   imgui_widgets.obj
 0001:000c3b00       ?DragFloat4@ImGui@@YA_NPEBDQEAMMMM0M@Z 00000001400c4b00 f   imgui_widgets.obj
 0001:000c3b80       ?DragFloatRange2@ImGui@@YA_NPEBDPEAM1MMM00M@Z 00000001400c4b80 f   imgui_widgets.obj
 0001:000c3e30       ?DragInt@ImGui@@YA_NPEBDPEAHMHH0@Z 00000001400c4e30 f   imgui_widgets.obj
 0001:000c3ea0       ?DragInt2@ImGui@@YA_NPEBDQEAHMHH0@Z 00000001400c4ea0 f   imgui_widgets.obj
 0001:000c3f20       ?DragInt3@ImGui@@YA_NPEBDQEAHMHH0@Z 00000001400c4f20 f   imgui_widgets.obj
 0001:000c3fa0       ?DragInt4@ImGui@@YA_NPEBDQEAHMHH0@Z 00000001400c4fa0 f   imgui_widgets.obj
 0001:000c4020       ?DragIntRange2@ImGui@@YA_NPEBDPEAH1MHH00@Z 00000001400c5020 f   imgui_widgets.obj
 0001:000c4260       ?DragScalar@ImGui@@YA_NPEBDHPEAXMPEBX20M@Z 00000001400c5260 f   imgui_widgets.obj
 0001:000c4910       ?DragScalarN@ImGui@@YA_NPEBDHPEAXHMPEBX20M@Z 00000001400c5910 f   imgui_widgets.obj
 0001:000c4af0       ?SliderFloat@ImGui@@YA_NPEBDPEAMMM0M@Z 00000001400c5af0 f   imgui_widgets.obj
 0001:000c4b50       ?SliderFloat2@ImGui@@YA_NPEBDQEAMMM0M@Z 00000001400c5b50 f   imgui_widgets.obj
 0001:000c4bc0       ?SliderFloat3@ImGui@@YA_NPEBDQEAMMM0M@Z 00000001400c5bc0 f   imgui_widgets.obj
 0001:000c4c30       ?SliderFloat4@ImGui@@YA_NPEBDQEAMMM0M@Z 00000001400c5c30 f   imgui_widgets.obj
 0001:000c4ca0       ?SliderAngle@ImGui@@YA_NPEBDPEAMMM0@Z 00000001400c5ca0 f   imgui_widgets.obj
 0001:000c4d60       ?SliderInt@ImGui@@YA_NPEBDPEAHHH0@Z 00000001400c5d60 f   imgui_widgets.obj
 0001:000c4dc0       ?SliderInt2@ImGui@@YA_NPEBDQEAHHH0@Z 00000001400c5dc0 f   imgui_widgets.obj
 0001:000c4e30       ?SliderInt3@ImGui@@YA_NPEBDQEAHHH0@Z 00000001400c5e30 f   imgui_widgets.obj
 0001:000c4ea0       ?SliderInt4@ImGui@@YA_NPEBDQEAHHH0@Z 00000001400c5ea0 f   imgui_widgets.obj
 0001:000c4f10       ?SliderScalar@ImGui@@YA_NPEBDHPEAXPEBX20M@Z 00000001400c5f10 f   imgui_widgets.obj
 0001:000c55e0       ?SliderScalarN@ImGui@@YA_NPEBDHPEAXHPEBX20M@Z 00000001400c65e0 f   imgui_widgets.obj
 0001:000c57b0       ?VSliderFloat@ImGui@@YA_NPEBDAEBUImVec2@@PEAMMM0M@Z 00000001400c67b0 f   imgui_widgets.obj
 0001:000c5820       ?VSliderInt@ImGui@@YA_NPEBDAEBUImVec2@@PEAHHH0@Z 00000001400c6820 f   imgui_widgets.obj
 0001:000c5890       ?VSliderScalar@ImGui@@YA_NPEBDAEBUImVec2@@HPEAXPEBX30M@Z 00000001400c6890 f   imgui_widgets.obj
 0001:000c5e40       ?InputText@ImGui@@YA_NPEBDPEAD_KHP6AHPEAUImGuiInputTextCallbackData@@@ZPEAX@Z 00000001400c6e40 f   imgui_widgets.obj
 0001:000c5ee0       ?InputTextMultiline@ImGui@@YA_NPEBDPEAD_KAEBUImVec2@@HP6AHPEAUImGuiInputTextCallbackData@@@ZPEAX@Z 00000001400c6ee0 f   imgui_widgets.obj
 0001:000c5f50       ?InputTextWithHint@ImGui@@YA_NPEBD0PEAD_KHP6AHPEAUImGuiInputTextCallbackData@@@ZPEAX@Z 00000001400c6f50 f   imgui_widgets.obj
 0001:000c6000       ?InputFloat@ImGui@@YA_NPEBDPEAMMM0H@Z 00000001400c7000 f   imgui_widgets.obj
 0001:000c60c0       ?InputFloat2@ImGui@@YA_NPEBDQEAM0H@Z 00000001400c70c0 f   imgui_widgets.obj
 0001:000c6130       ?InputFloat3@ImGui@@YA_NPEBDQEAM0H@Z 00000001400c7130 f   imgui_widgets.obj
 0001:000c61a0       ?InputFloat4@ImGui@@YA_NPEBDQEAM0H@Z 00000001400c71a0 f   imgui_widgets.obj
 0001:000c6210       ?InputInt@ImGui@@YA_NPEBDPEAHHHH@Z 00000001400c7210 f   imgui_widgets.obj
 0001:000c62f0       ?InputInt2@ImGui@@YA_NPEBDQEAHH@Z 00000001400c72f0 f   imgui_widgets.obj
 0001:000c6350       ?InputInt3@ImGui@@YA_NPEBDQEAHH@Z 00000001400c7350 f   imgui_widgets.obj
 0001:000c63b0       ?InputInt4@ImGui@@YA_NPEBDQEAHH@Z 00000001400c73b0 f   imgui_widgets.obj
 0001:000c6410       ?InputDouble@ImGui@@YA_NPEBDPEANNN0H@Z 00000001400c7410 f   imgui_widgets.obj
 0001:000c64d0       ?InputScalar@ImGui@@YA_NPEBDHPEAXPEBX20H@Z 00000001400c74d0 f   imgui_widgets.obj
 0001:000c6960       ?InputScalarN@ImGui@@YA_NPEBDHPEAXHPEBX20H@Z 00000001400c7960 f   imgui_widgets.obj
 0001:000c6b30       ?ColorEdit3@ImGui@@YA_NPEBDQEAMH@Z 00000001400c7b30 f   imgui_widgets.obj
 0001:000c6b70       ?ColorEdit4@ImGui@@YA_NPEBDQEAMH@Z 00000001400c7b70 f   imgui_widgets.obj
 0001:000c83c0       ?ColorPicker3@ImGui@@YA_NPEBDQEAMH@Z 00000001400c93c0 f   imgui_widgets.obj
 0001:000c84f0       ?ColorPicker4@ImGui@@YA_NPEBDQEAMHPEBM@Z 00000001400c94f0 f   imgui_widgets.obj
 0001:000cae90       ?ColorButton@ImGui@@YA_NPEBDAEBUImVec4@@HUImVec2@@@Z 00000001400cbe90 f   imgui_widgets.obj
 0001:000cb600       ?SetColorEditOptions@ImGui@@YAXH@Z 00000001400cc600 f   imgui_widgets.obj
 0001:000cb760       ?TreeNode@ImGui@@YA_NPEBD@Z 00000001400cc760 f   imgui_widgets.obj
 0001:000cb7c0       ?TreeNode@ImGui@@YA_NPEBD0ZZ 00000001400cc7c0 f   imgui_widgets.obj
 0001:000cb820       ?TreeNode@ImGui@@YA_NPEBXPEBDZZ 00000001400cc820 f   imgui_widgets.obj
 0001:000cb880       ?TreeNodeV@ImGui@@YA_NPEBD0PEAD@Z 00000001400cc880 f   imgui_widgets.obj
 0001:000cb8c0       ?TreeNodeV@ImGui@@YA_NPEBXPEBDPEAD@Z 00000001400cc8c0 f   imgui_widgets.obj
 0001:000cb900       ?TreeNodeEx@ImGui@@YA_NPEBDH@Z 00000001400cc900 f   imgui_widgets.obj
 0001:000cb960       ?TreeNodeEx@ImGui@@YA_NPEBDH0ZZ 00000001400cc960 f   imgui_widgets.obj
 0001:000cb9c0       ?TreeNodeEx@ImGui@@YA_NPEBXHPEBDZZ 00000001400cc9c0 f   imgui_widgets.obj
 0001:000cba20       ?TreeNodeExV@ImGui@@YA_NPEBDH0PEAD@Z 00000001400cca20 f   imgui_widgets.obj
 0001:000cbae0       ?TreeNodeExV@ImGui@@YA_NPEBXHPEBDPEAD@Z 00000001400ccae0 f   imgui_widgets.obj
 0001:000cbba0       ?TreePush@ImGui@@YAXPEBD@Z 00000001400ccba0 f   imgui_widgets.obj
 0001:000cbc10       ?TreePush@ImGui@@YAXPEBX@Z 00000001400ccc10 f   imgui_widgets.obj
 0001:000cbc80       ?TreePop@ImGui@@YAXXZ      00000001400ccc80 f   imgui_widgets.obj
 0001:000cbdc0       ?GetTreeNodeToLabelSpacing@ImGui@@YAMXZ 00000001400ccdc0 f   imgui_widgets.obj
 0001:000cbe10       ?CollapsingHeader@ImGui@@YA_NPEBDH@Z 00000001400cce10 f   imgui_widgets.obj
 0001:000cbe80       ?CollapsingHeader@ImGui@@YA_NPEBDPEA_NH@Z 00000001400cce80 f   imgui_widgets.obj
 0001:000cc050       ?SetNextItemOpen@ImGui@@YAX_NH@Z 00000001400cd050 f   imgui_widgets.obj
 0001:000cc0e0       ?Selectable@ImGui@@YA_NPEBD_NHAEBUImVec2@@@Z 00000001400cd0e0 f   imgui_widgets.obj
 0001:000cc900       ?Selectable@ImGui@@YA_NPEBDPEA_NHAEBUImVec2@@@Z 00000001400cd900 f   imgui_widgets.obj
 0001:000cc980       ?ListBox@ImGui@@YA_NPEBDPEAHQEBQEBDHH@Z 00000001400cd980 f   imgui_widgets.obj
 0001:000cc9e0       ?ListBox@ImGui@@YA_NPEBDPEAHP6A_NPEAXHPEAPEBD@Z2HH@Z 00000001400cd9e0 f   imgui_widgets.obj
 0001:000ccb80       ?ListBoxHeader@ImGui@@YA_NPEBDAEBUImVec2@@@Z 00000001400cdb80 f   imgui_widgets.obj
 0001:000cce30       ?ListBoxHeader@ImGui@@YA_NPEBDHH@Z 00000001400cde30 f   imgui_widgets.obj
 0001:000ccf00       ?ListBoxFooter@ImGui@@YAXXZ 00000001400cdf00 f   imgui_widgets.obj
 0001:000ccf90       ?PlotLines@ImGui@@YAXPEBDPEBMHH0MMUImVec2@@H@Z 00000001400cdf90 f   imgui_widgets.obj
 0001:000cd030       ?PlotLines@ImGui@@YAXPEBDP6AMPEAXH@Z1HH0MMUImVec2@@@Z 00000001400ce030 f   imgui_widgets.obj
 0001:000cd0c0       ?PlotHistogram@ImGui@@YAXPEBDPEBMHH0MMUImVec2@@H@Z 00000001400ce0c0 f   imgui_widgets.obj
 0001:000cd170       ?PlotHistogram@ImGui@@YAXPEBDP6AMPEAXH@Z1HH0MMUImVec2@@@Z 00000001400ce170 f   imgui_widgets.obj
 0001:000cd200       ?Value@ImGui@@YAXPEBD_N@Z  00000001400ce200 f   imgui_widgets.obj
 0001:000cd260       ?Value@ImGui@@YAXPEBDH@Z   00000001400ce260 f   imgui_widgets.obj
 0001:000cd290       ?Value@ImGui@@YAXPEBDI@Z   00000001400ce290 f   imgui_widgets.obj
 0001:000cd2c0       ?Value@ImGui@@YAXPEBDM0@Z  00000001400ce2c0 f   imgui_widgets.obj
 0001:000cd370       ?BeginMenuBar@ImGui@@YA_NXZ 00000001400ce370 f   imgui_widgets.obj
 0001:000cd580       ?EndMenuBar@ImGui@@YAXXZ   00000001400ce580 f   imgui_widgets.obj
 0001:000cd820       ?BeginMainMenuBar@ImGui@@YA_NXZ 00000001400ce820 f   imgui_widgets.obj
 0001:000cda60       ?EndMainMenuBar@ImGui@@YAXXZ 00000001400cea60 f   imgui_widgets.obj
 0001:000cdad0       ?BeginMenu@ImGui@@YA_NPEBD_N@Z 00000001400cead0 f   imgui_widgets.obj
 0001:000ce6d0       ?EndMenu@ImGui@@YAXXZ      00000001400cf6d0 f   imgui_widgets.obj
 0001:000ce770       ?MenuItem@ImGui@@YA_NPEBD0_N1@Z 00000001400cf770 f   imgui_widgets.obj
 0001:000cebf0       ?MenuItem@ImGui@@YA_NPEBD0PEA_N_N@Z 00000001400cfbf0 f   imgui_widgets.obj
 0001:000cec90       ?Columns@ImGui@@YAXHPEBD_N@Z 00000001400cfc90 f   imgui_widgets.obj
 0001:000ced60       ?NextColumn@ImGui@@YAXXZ   00000001400cfd60 f   imgui_widgets.obj
 0001:000cf050       ?GetColumnIndex@ImGui@@YAHXZ 00000001400d0050 f   imgui_widgets.obj
 0001:000cf0a0       ?GetColumnWidth@ImGui@@YAMH@Z 00000001400d00a0 f   imgui_widgets.obj
 0001:000cf160       ?SetColumnWidth@ImGui@@YAXHM@Z 00000001400d0160 f   imgui_widgets.obj
 0001:000cf1f0       ?GetColumnOffset@ImGui@@YAMH@Z 00000001400d01f0 f   imgui_widgets.obj
 0001:000cf2c0       ?SetColumnOffset@ImGui@@YAXHM@Z 00000001400d02c0 f   imgui_widgets.obj
 0001:000cf4c0       ?GetColumnsCount@ImGui@@YAHXZ 00000001400d04c0 f   imgui_widgets.obj
 0001:000cf510       ?BeginTabBar@ImGui@@YA_NPEBDH@Z 00000001400d0510 f   imgui_widgets.obj
 0001:000cf630       ?EndTabBar@ImGui@@YAXXZ    00000001400d0630 f   imgui_widgets.obj
 0001:000cf7f0       ?BeginTabItem@ImGui@@YA_NPEBDPEA_NH@Z 00000001400d07f0 f   imgui_widgets.obj
 0001:000cf900       ?EndTabItem@ImGui@@YAXXZ   00000001400d0900 f   imgui_widgets.obj
 0001:000cf9f0       ?SetTabItemClosed@ImGui@@YAXPEBD@Z 00000001400d09f0 f   imgui_widgets.obj
 0001:000cfb50       ??0ImGuiInputTextCallbackData@@QEAA@XZ 00000001400d0b50 f   imgui_widgets.obj
 0001:000cfb80       ?DeleteChars@ImGuiInputTextCallbackData@@QEAAXHH@Z 00000001400d0b80 f   imgui_widgets.obj
 0001:000cfcd0       ?InsertChars@ImGuiInputTextCallbackData@@QEAAXHPEBD0@Z 00000001400d0cd0 f   imgui_widgets.obj
 0001:000d0000       ?InputFloat@ImGui@@YA_NPEBDPEAMMMHH@Z 00000001400d1000 f   imgui_widgets.obj
 0001:000d00d0       ?InputFloat2@ImGui@@YA_NPEBDQEAMHH@Z 00000001400d10d0 f   imgui_widgets.obj
 0001:000d01b0       ?InputFloat3@ImGui@@YA_NPEBDQEAMHH@Z 00000001400d11b0 f   imgui_widgets.obj
 0001:000d0290       ?InputFloat4@ImGui@@YA_NPEBDQEAMHH@Z 00000001400d1290 f   imgui_widgets.obj
 0001:000d03b0       ?ImParseFormatFindStart@@YAPEBDPEBD@Z 00000001400d13b0 f   imgui_widgets.obj
 0001:000d0440       ?ImParseFormatFindEnd@@YAPEBDPEBD@Z 00000001400d1440 f   imgui_widgets.obj
 0001:000d0540       ?ImParseFormatTrimDecorations@@YAPEBDPEBDPEAD_K@Z 00000001400d1540 f   imgui_widgets.obj
 0001:000d05f0       ?ImParseFormatPrecision@@YAHPEBDH@Z 00000001400d15f0 f   imgui_widgets.obj
 0001:000d0ea0       ??0ImGuiMenuColumns@@QEAA@XZ 00000001400d1ea0 f   imgui_widgets.obj
 0001:000d0f10       ?Update@ImGuiMenuColumns@@QEAAXHM_N@Z 00000001400d1f10 f   imgui_widgets.obj
 0001:000d1050       ?DeclColumns@ImGuiMenuColumns@@QEAAMMMM@Z 00000001400d2050 f   imgui_widgets.obj
 0001:000d11c0       ?CalcExtraSpace@ImGuiMenuColumns@@QEBAMM@Z 00000001400d21c0 f   imgui_widgets.obj
 0001:000d1200       ?OnKeyPressed@ImGuiInputTextState@@QEAAXH@Z 00000001400d2200 f   imgui_widgets.obj
 0001:000d1290       ??0ImGuiTabBar@@QEAA@XZ    00000001400d2290 f   imgui_widgets.obj
 0001:000d13e0       ?ShrinkWidths@ImGui@@YAXPEAUImGuiShrinkWidthItem@@HM@Z 00000001400d23e0 f   imgui_widgets.obj
 0001:000d16c0       ?BeginColumns@ImGui@@YAXPEBDHH@Z 00000001400d26c0 f   imgui_widgets.obj
 0001:000d1d00       ?EndColumns@ImGui@@YAXXZ   00000001400d2d00 f   imgui_widgets.obj
 0001:000d2220       ?PushColumnClipRect@ImGui@@YAXH@Z 00000001400d3220 f   imgui_widgets.obj
 0001:000d22a0       ?PushColumnsBackground@ImGui@@YAXXZ 00000001400d32a0 f   imgui_widgets.obj
 0001:000d2360       ?PopColumnsBackground@ImGui@@YAXXZ 00000001400d3360 f   imgui_widgets.obj
 0001:000d23d0       ?GetColumnsID@ImGui@@YAIPEBDH@Z 00000001400d33d0 f   imgui_widgets.obj
 0001:000d2460       ?FindOrCreateColumns@ImGui@@YAPEAUImGuiColumns@@PEAUImGuiWindow@@I@Z 00000001400d3460 f   imgui_widgets.obj
 0001:000d2550       ?GetColumnOffsetFromNorm@ImGui@@YAMPEBUImGuiColumns@@M@Z 00000001400d3550 f   imgui_widgets.obj
 0001:000d2590       ?GetColumnNormFromOffset@ImGui@@YAMPEBUImGuiColumns@@M@Z 00000001400d3590 f   imgui_widgets.obj
 0001:000d25d0       ?BeginTabBarEx@ImGui@@YA_NPEAUImGuiTabBar@@AEBUImRect@@HPEAUImGuiDockNode@@@Z 00000001400d35d0 f   imgui_widgets.obj
 0001:000d29f0       ?TabBarFindTabByID@ImGui@@YAPEAUImGuiTabItem@@PEAUImGuiTabBar@@I@Z 00000001400d39f0 f   imgui_widgets.obj
 0001:000d2a60       ?TabBarFindMostRecentlySelectedTabForActiveWindow@ImGui@@YAPEAUImGuiTabItem@@PEAUImGuiTabBar@@@Z 00000001400d3a60 f   imgui_widgets.obj
 0001:000d2b00       ?TabBarAddTab@ImGui@@YAXPEAUImGuiTabBar@@HPEAUImGuiWindow@@@Z 00000001400d3b00 f   imgui_widgets.obj
 0001:000d2bf0       ?TabBarRemoveTab@ImGui@@YAXPEAUImGuiTabBar@@I@Z 00000001400d3bf0 f   imgui_widgets.obj
 0001:000d2c90       ?TabBarCloseTab@ImGui@@YAXPEAUImGuiTabBar@@PEAUImGuiTabItem@@@Z 00000001400d3c90 f   imgui_widgets.obj
 0001:000d2d20       ?TabBarQueueChangeTabOrder@ImGui@@YAXPEAUImGuiTabBar@@PEBUImGuiTabItem@@H@Z 00000001400d3d20 f   imgui_widgets.obj
 0001:000d2db0       ?TabItemEx@ImGui@@YA_NPEAUImGuiTabBar@@PEBDPEA_NHPEAUImGuiWindow@@@Z 00000001400d3db0 f   imgui_widgets.obj
 0001:000d3e20       ?TabItemCalcSize@ImGui@@YA?AUImVec2@@PEBD_N@Z 00000001400d4e20 f   imgui_widgets.obj
 0001:000d3f50       ?TabItemBackground@ImGui@@YAXPEAUImDrawList@@AEBUImRect@@HI@Z 00000001400d4f50 f   imgui_widgets.obj
 0001:000d42f0       ?TabItemLabelAndCloseButton@ImGui@@YA_NPEAUImDrawList@@AEBUImRect@@HUImVec2@@PEBDII@Z 00000001400d52f0 f   imgui_widgets.obj
 0001:000d4750       ?TextEx@ImGui@@YAXPEBD0H@Z 00000001400d5750 f   imgui_widgets.obj
 0001:000d4e30       ?ButtonEx@ImGui@@YA_NPEBDAEBUImVec2@@H@Z 00000001400d5e30 f   imgui_widgets.obj
 0001:000d5190       ?CloseButton@ImGui@@YA_NIAEBUImVec2@@@Z 00000001400d6190 f   imgui_widgets.obj
 0001:000d5530       ?CollapseButton@ImGui@@YA_NIAEBUImVec2@@PEAUImGuiDockNode@@@Z 00000001400d6530 f   imgui_widgets.obj
 0001:000d5900       ?ArrowButtonEx@ImGui@@YA_NPEBDHUImVec2@@H@Z 00000001400d6900 f   imgui_widgets.obj
 0001:000d5bc0       ?Scrollbar@ImGui@@YAXW4ImGuiAxis@@@Z 00000001400d6bc0 f   imgui_widgets.obj
 0001:000d5dd0       ?ScrollbarEx@ImGui@@YA_NAEBUImRect@@IW4ImGuiAxis@@PEAMMMH@Z 00000001400d6dd0 f   imgui_widgets.obj
 0001:000d6610       ?GetWindowScrollbarRect@ImGui@@YA?AUImRect@@PEAUImGuiWindow@@W4ImGuiAxis@@@Z 00000001400d7610 f   imgui_widgets.obj
 0001:000d6780       ?GetWindowScrollbarID@ImGui@@YAIPEAUImGuiWindow@@W4ImGuiAxis@@@Z 00000001400d7780 f   imgui_widgets.obj
 0001:000d67d0       ?SeparatorEx@ImGui@@YAXH@Z 00000001400d77d0 f   imgui_widgets.obj
 0001:000d6c10       ?ButtonBehavior@ImGui@@YA_NAEBUImRect@@IPEA_N1H@Z 00000001400d7c10 f   imgui_widgets.obj
 0001:000d7660       ?DragBehavior@ImGui@@YA_NIHPEAXMPEBX1PEBDMH@Z 00000001400d8660 f   imgui_widgets.obj
 0001:000d7f10       ?SliderBehavior@ImGui@@YA_NAEBUImRect@@IHPEAXPEBX2PEBDMHPEAU2@@Z 00000001400d8f10 f   imgui_widgets.obj
 0001:000d86a0       ?SplitterBehavior@ImGui@@YA_NAEBUImRect@@IW4ImGuiAxis@@PEAM2MMMM@Z 00000001400d96a0 f   imgui_widgets.obj
 0001:000d8ba0       ?TreeNodeBehavior@ImGui@@YA_NIHPEBD0@Z 00000001400d9ba0 f   imgui_widgets.obj
 0001:000d9b70       ?TreeNodeBehaviorIsOpen@ImGui@@YA_NIH@Z 00000001400dab70 f   imgui_widgets.obj
 0001:000d9d20       ?TreePushOverrideID@ImGui@@YAXI@Z 00000001400dad20 f   imgui_widgets.obj
 0001:000d9d90       ?DataTypeGetInfo@ImGui@@YAPEBUImGuiDataTypeInfo@@H@Z 00000001400dad90 f   imgui_widgets.obj
 0001:000d9df0       ?DataTypeFormatString@ImGui@@YAHPEADHHPEBXPEBD@Z 00000001400dadf0 f   imgui_widgets.obj
 0001:000d9fb0       ?DataTypeApplyOp@ImGui@@YAXHHPEAX0PEBX@Z 00000001400dafb0 f   imgui_widgets.obj
 0001:000da400       ?DataTypeApplyOpFromText@ImGui@@YA_NPEBD0HPEAX0@Z 00000001400db400 f   imgui_widgets.obj
 0001:000daa80       ?InputTextEx@ImGui@@YA_NPEBD0PEADHAEBUImVec2@@HP6AHPEAUImGuiInputTextCallbackData@@@ZPEAX@Z 00000001400dba80 f   imgui_widgets.obj
 0001:000dec80       ?TempInputText@ImGui@@YA_NAEBUImRect@@IPEBDPEADHH@Z 00000001400dfc80 f   imgui_widgets.obj
 0001:000dedb0       ?TempInputScalar@ImGui@@YA_NAEBUImRect@@IPEBDHPEAX1@Z 00000001400dfdb0 f   imgui_widgets.obj
 0001:000def30       ?ColorTooltip@ImGui@@YAXPEBDPEBMH@Z 00000001400dff30 f   imgui_widgets.obj
 0001:000df4e0       ?ColorEditOptionsPopup@ImGui@@YAXPEBMH@Z 00000001400e04e0 f   imgui_widgets.obj
 0001:000dfaf0       ?ColorPickerOptionsPopup@ImGui@@YAXPEBMH@Z 00000001400e0af0 f   imgui_widgets.obj
 0001:000dfda0       ?PlotEx@ImGui@@YAHW4ImGuiPlotType@@PEBDP6AMPEAXH@Z2HH1MMUImVec2@@@Z 00000001400e0da0 f   imgui_widgets.obj
 0001:000e71f0       ??$DragBehaviorT@HHM@ImGui@@YA_NHPEAHMHHPEBDMH@Z 00000001400e81f0 f i imgui_widgets.obj
 0001:000e7990       ??$DragBehaviorT@IHM@ImGui@@YA_NHPEAIMIIPEBDMH@Z 00000001400e8990 f i imgui_widgets.obj
 0001:000e8140       ??$DragBehaviorT@MMM@ImGui@@YA_NHPEAMMMMPEBDMH@Z 00000001400e9140 f i imgui_widgets.obj
 0001:000e8900       ??$DragBehaviorT@NNN@ImGui@@YA_NHPEANMNNPEBDMH@Z 00000001400e9900 f i imgui_widgets.obj
 0001:000e9100       ??$DragBehaviorT@_J_JN@ImGui@@YA_NHPEA_JM_J1PEBDMH@Z 00000001400ea100 f i imgui_widgets.obj
 0001:000e9920       ??$DragBehaviorT@_K_JN@ImGui@@YA_NHPEA_KM_K1PEBDMH@Z 00000001400ea920 f i imgui_widgets.obj
 0001:000ea250       ??$RoundScalarWithFormatT@HH@ImGui@@YAHPEBDHH@Z 00000001400eb250 f i imgui_widgets.obj
 0001:000ea360       ??$RoundScalarWithFormatT@IH@ImGui@@YAIPEBDHI@Z 00000001400eb360 f i imgui_widgets.obj
 0001:000ea470       ??$RoundScalarWithFormatT@MM@ImGui@@YAMPEBDHM@Z 00000001400eb470 f i imgui_widgets.obj
 0001:000ea590       ??$RoundScalarWithFormatT@NN@ImGui@@YANPEBDHN@Z 00000001400eb590 f i imgui_widgets.obj
 0001:000ea6b0       ??$RoundScalarWithFormatT@_J_J@ImGui@@YA_JPEBDH_J@Z 00000001400eb6b0 f i imgui_widgets.obj
 0001:000ea7c0       ??$RoundScalarWithFormatT@_K_J@ImGui@@YA_KPEBDH_K@Z 00000001400eb7c0 f i imgui_widgets.obj
 0001:000ea900       ??$SliderBehaviorT@HHM@ImGui@@YA_NAEBUImRect@@IHPEAHHHPEBDMHPEAU1@@Z 00000001400eb900 f i imgui_widgets.obj
 0001:000eb4a0       ??$SliderBehaviorT@IHM@ImGui@@YA_NAEBUImRect@@IHPEAIIIPEBDMHPEAU1@@Z 00000001400ec4a0 f i imgui_widgets.obj
 0001:000ec050       ??$SliderBehaviorT@MMM@ImGui@@YA_NAEBUImRect@@IHPEAMMMPEBDMHPEAU1@@Z 00000001400ed050 f i imgui_widgets.obj
 0001:000ecc30       ??$SliderBehaviorT@NNN@ImGui@@YA_NAEBUImRect@@IHPEANNNPEBDMHPEAU1@@Z 00000001400edc30 f i imgui_widgets.obj
 0001:000ed850       ??$SliderBehaviorT@_J_JN@ImGui@@YA_NAEBUImRect@@IHPEA_J_J2PEBDMHPEAU1@@Z 00000001400ee850 f i imgui_widgets.obj
 0001:000ee460       ??$SliderBehaviorT@_K_JN@ImGui@@YA_NAEBUImRect@@IHPEA_K_K2PEBDMHPEAU1@@Z 00000001400ef460 f i imgui_widgets.obj
 0001:000ef1c0       ??$SliderCalcRatioFromValueT@HM@ImGui@@YAMHHHHMM@Z 00000001400f01c0 f i imgui_widgets.obj
 0001:000ef3c0       ??$SliderCalcRatioFromValueT@IM@ImGui@@YAMHIIIMM@Z 00000001400f03c0 f i imgui_widgets.obj
 0001:000ef5d0       ??$SliderCalcRatioFromValueT@MM@ImGui@@YAMHMMMMM@Z 00000001400f05d0 f i imgui_widgets.obj
 0001:000ef7e0       ??$SliderCalcRatioFromValueT@NN@ImGui@@YAMHNNNMM@Z 00000001400f07e0 f i imgui_widgets.obj
 0001:000efa10       ??$SliderCalcRatioFromValueT@_JN@ImGui@@YAMH_J00MM@Z 00000001400f0a10 f i imgui_widgets.obj
 0001:000efc80       ??$SliderCalcRatioFromValueT@_KN@ImGui@@YAMH_K00MM@Z 00000001400f0c80 f i imgui_widgets.obj
 0001:000eff90       ??0ImGuiColumnData@@QEAA@XZ 00000001400f0f90 f i imgui_widgets.obj
 0001:000effe0       ??0ImGuiColumns@@QEAA@XZ   00000001400f0fe0 f i imgui_widgets.obj
 0001:000f0050       ??0ImGuiItemHoveredDataBackup@@QEAA@XZ 00000001400f1050 f i imgui_widgets.obj
 0001:000f0090       ??0ImGuiPlotArrayGetterData@@QEAA@PEBMH@Z 00000001400f1090 f i imgui_widgets.obj
 0001:000f00c0       ??0ImGuiPtrOrIndex@@QEAA@H@Z 00000001400f10c0 f i imgui_widgets.obj
 0001:000f00f0       ??0ImGuiPtrOrIndex@@QEAA@PEAX@Z 00000001400f10f0 f i imgui_widgets.obj
 0001:000f0120       ??0ImGuiTabItem@@QEAA@XZ   00000001400f1120 f i imgui_widgets.obj
 0001:000f01a0       ??A?$ImVector@G@@QEBAAEBGH@Z 00000001400f11a0 f i imgui_widgets.obj
 0001:000f01f0       ??AImVec2@@QEBAM_K@Z       00000001400f11f0 f i imgui_widgets.obj
 0001:000f0240       ?Add@?$ImPool@UImGuiTabBar@@@@QEAAPEAUImGuiTabBar@@XZ 00000001400f1240 f i imgui_widgets.obj
 0001:000f0310       ?Backup@ImGuiItemHoveredDataBackup@@QEAAXXZ 00000001400f1310 f i imgui_widgets.obj
 0001:000f0390       ?Clear@ImGuiColumns@@QEAAXXZ 00000001400f1390 f i imgui_widgets.obj
 0001:000f0440       ?ClearSelection@ImGuiInputTextState@@QEAAXXZ 00000001400f1440 f i imgui_widgets.obj
 0001:000f0470       ?Contains@?$ImPool@UImGuiTabBar@@@@QEBA_NPEBUImGuiTabBar@@@Z 00000001400f1470 f i imgui_widgets.obj
 0001:000f04d0       ?CursorAnimReset@ImGuiInputTextState@@QEAAXXZ 00000001400f14d0 f i imgui_widgets.obj
 0001:000f04f0       ?CursorClamp@ImGuiInputTextState@@QEAAXXZ 00000001400f14f0 f i imgui_widgets.obj
 0001:000f0560       ?GetCharAdvance@ImFont@@QEBAMG@Z 00000001400f1560 f i imgui_widgets.obj
 0001:000f05c0       ?GetIndex@?$ImPool@UImGuiTabBar@@@@QEBAHPEBUImGuiTabBar@@@Z 00000001400f15c0 f i imgui_widgets.obj
 0001:000f0640       ?GetInputTextState@ImGui@@YAPEAUImGuiInputTextState@@I@Z 00000001400f1640 f i imgui_widgets.obj
 0001:000f0690       ?GetOrAddByKey@?$ImPool@UImGuiTabBar@@@@QEAAPEAUImGuiTabBar@@I@Z 00000001400f1690 f i imgui_widgets.obj
 0001:000f0700       ?GetTL@ImRect@@QEBA?AUImVec2@@XZ 00000001400f1700 f i imgui_widgets.obj
 0001:000f0720       ?HasSelection@ImGuiInputTextState@@QEBA_NXZ 00000001400f1720 f i imgui_widgets.obj
 0001:000f0760       ?PrimVtx@ImDrawList@@QEAAXAEBUImVec2@@0I@Z 00000001400f1760 f i imgui_widgets.obj
 0001:000f07b0       ?Restore@ImGuiItemHoveredDataBackup@@QEBAXXZ 00000001400f17b0 f i imgui_widgets.obj
 0001:000f0830       ?SelectAll@ImGuiInputTextState@@QEAAXXZ 00000001400f1830 f i imgui_widgets.obj
 0001:000f0870       ?TempInputIsActive@ImGui@@YA_NI@Z 00000001400f1870 f i imgui_widgets.obj
 0001:000f08c0       ?back@?$ImVector@UImGuiColumns@@@@QEAAAEAUImGuiColumns@@XZ 00000001400f18c0 f i imgui_widgets.obj
 0001:000f0910       ?contains@?$ImVector@G@@QEBA_NAEBG@Z 00000001400f1910 f i imgui_widgets.obj
 0001:000f0990       ?erase@?$ImVector@UImGuiTabItem@@@@QEAAPEAUImGuiTabItem@@PEBU2@@Z 00000001400f1990 f i imgui_widgets.obj
 0001:000f0a80       ?push_back@?$ImVector@UImGuiColumnData@@@@QEAAXAEBUImGuiColumnData@@@Z 00000001400f1a80 f i imgui_widgets.obj
 0001:000f0b00       ?push_back@?$ImVector@UImGuiColumns@@@@QEAAXAEBUImGuiColumns@@@Z 00000001400f1b00 f i imgui_widgets.obj
 0001:000f0b80       ?push_back@?$ImVector@UImGuiTabItem@@@@QEAAXAEBUImGuiTabItem@@@Z 00000001400f1b80 f i imgui_widgets.obj
 0001:000f0c00       ?reserve@?$ImVector@UImGuiColumns@@@@QEAAXH@Z 00000001400f1c00 f i imgui_widgets.obj
 0001:000f0c90       ?reserve@?$ImVector@UImGuiTabBar@@@@QEAAXH@Z 00000001400f1c90 f i imgui_widgets.obj
 0001:000f0d30       ?resize@?$ImVector@UImGuiTabBar@@@@QEAAXH@Z 00000001400f1d30 f i imgui_widgets.obj
 0001:000f0d75       ??0Importer@Assimp@@QEAA@XZ 00000001400f1d75 f   assimp-vc142-mt:assimp-vc142-mt.dll
 0001:000f0d7b       ??1Importer@Assimp@@QEAA@XZ 00000001400f1d7b f   assimp-vc142-mt:assimp-vc142-mt.dll
 0001:000f0d81       ?ReadFile@Importer@Assimp@@QEAAPEBUaiScene@@PEBDI@Z 00000001400f1d81 f   assimp-vc142-mt:assimp-vc142-mt.dll
 0001:000f0d88       ??0CAtlBaseModule@ATL@@QEAA@XZ 00000001400f1d88 f   atls:atlbase.obj
 0001:000f0e30       ??1CAtlBaseModule@ATL@@QEAA@XZ 00000001400f1e30 f   atls:atlbase.obj
 0001:000f0e64       XInputGetState             00000001400f1e64 f   xinput:XINPUT1_4.dll
 0001:000f0e6a       XInputGetCapabilities      00000001400f1e6a f   xinput:XINPUT1_4.dll
 0001:000f0e70       ImmGetContext              00000001400f1e70 f   imm32:IMM32.dll
 0001:000f0e76       ImmReleaseContext          00000001400f1e76 f   imm32:IMM32.dll
 0001:000f0e7c       ImmSetCompositionWindow    00000001400f1e7c f   imm32:IMM32.dll
 0001:000f0e90       ??0_Init_locks@std@@QEAA@XZ 00000001400f1e90 f   libcpmtd:xlock.obj
 0001:000f0f20       ??0_Lockit@std@@QEAA@H@Z   00000001400f1f20 f   libcpmtd:xlock.obj
 0001:000f0f80       ??1_Init_locks@std@@QEAA@XZ 00000001400f1f80 f   libcpmtd:xlock.obj
 0001:000f1000       ??1_Lockit@std@@QEAA@XZ    00000001400f2000 f   libcpmtd:xlock.obj
 0001:000f1050       _Lock_at_thread_exit_mutex 00000001400f2050 f   libcpmtd:xlock.obj
 0001:000f1080       _Unlock_at_thread_exit_mutex 00000001400f2080 f   libcpmtd:xlock.obj
 0001:000f1130       ??$_Immortalize_impl@V?$_ExceptionPtr_static@Vbad_alloc@std@@@?A0x13fc80ab@@@std@@YAHPEAX0PEAPEAX@Z 00000001400f2130 f i libcpmtd:excptptr.obj
 0001:000f1170       ??$_Immortalize_impl@V?$_ExceptionPtr_static@Vbad_exception@std@@@?A0x13fc80ab@@@std@@YAHPEAX0PEAPEAX@Z 00000001400f2170 f i libcpmtd:excptptr.obj
 0001:000f11b0       ??$_Min_value@K@std@@YAAEBKAEBK0@Z 00000001400f21b0 f i libcpmtd:excptptr.obj
 0001:000f1200       ??$swap@PEAV_Ref_count_base@std@@$0A@@std@@YAXAEAPEAV_Ref_count_base@0@0@Z 00000001400f2200 f i libcpmtd:excptptr.obj
 0001:000f1200       ??$swap@PEBU_EXCEPTION_RECORD@@$0A@@std@@YAXAEAPEBU_EXCEPTION_RECORD@@0@Z 00000001400f2200 f i libcpmtd:excptptr.obj
 0001:000f13b0       ??0bad_alloc@std@@QEAA@XZ  00000001400f23b0 f i libcpmtd:excptptr.obj
 0001:000f13f0       ??0bad_exception@std@@QEAA@AEBV01@@Z 00000001400f23f0 f i libcpmtd:excptptr.obj
 0001:000f1430       ??0bad_exception@std@@QEAA@XZ 00000001400f2430 f i libcpmtd:excptptr.obj
 0001:000f14f0       ??1bad_exception@std@@UEAA@XZ 00000001400f24f0 f i libcpmtd:excptptr.obj
 0001:000f1510       ??4?$shared_ptr@$$CBU_EXCEPTION_RECORD@@@std@@QEAAAEAV01@$$QEAV01@@Z 00000001400f2510 f i libcpmtd:excptptr.obj
 0001:000f1580       ??4?$shared_ptr@$$CBU_EXCEPTION_RECORD@@@std@@QEAAAEAV01@AEBV01@@Z 00000001400f2580 f i libcpmtd:excptptr.obj
 0001:000f15e0       ??B?$shared_ptr@$$CBU_EXCEPTION_RECORD@@@std@@QEBA_NXZ 00000001400f25e0 f i libcpmtd:excptptr.obj
 0001:000f16a0       ??_G?$shared_ptr@$$CBU_EXCEPTION_RECORD@@@std@@QEAAPEAXI@Z 00000001400f26a0 f i libcpmtd:excptptr.obj
 0001:000f1720       ??_Gbad_exception@std@@UEAAPEAXI@Z 00000001400f2720 f i libcpmtd:excptptr.obj
 0001:000f1720       ??_Ebad_exception@std@@UEAAPEAXI@Z 00000001400f2720 f i libcpmtd:excptptr.obj
 0001:000f1990       ?_CallMemberFunction0@@YAXQEAX0@Z 00000001400f2990 f i libcpmtd:excptptr.obj
 0001:000f19c0       ?_CallMemberFunction1@@YAXQEAX00@Z 00000001400f29c0 f i libcpmtd:excptptr.obj
 0001:000f1a00       ?_CallMemberFunction2@@YAXQEAX00H@Z 00000001400f2a00 f i libcpmtd:excptptr.obj
 0001:000f1ff0       ?_Swap@?$_Ptr_base@$$CBU_EXCEPTION_RECORD@@@std@@IEAAXAEAV12@@Z 00000001400f2ff0 f i libcpmtd:excptptr.obj
 0001:000f2030       ?__ExceptionPtrAssign@@YAXPEAXPEBX@Z 00000001400f3030 f   libcpmtd:excptptr.obj
 0001:000f2060       ?__ExceptionPtrCopy@@YAXPEAXPEBX@Z 00000001400f3060 f   libcpmtd:excptptr.obj
 0001:000f20a0       ?__ExceptionPtrCopyException@@YAXPEAXPEBX1@Z 00000001400f30a0 f   libcpmtd:excptptr.obj
 0001:000f2110       ?__ExceptionPtrCreate@@YAXPEAX@Z 00000001400f3110 f   libcpmtd:excptptr.obj
 0001:000f2140       ?__ExceptionPtrCurrentException@@YAXPEAX@Z 00000001400f3140 f   libcpmtd:excptptr.obj
 0001:000f2210       ?__ExceptionPtrDestroy@@YAXPEAX@Z 00000001400f3210 f   libcpmtd:excptptr.obj
 0001:000f2230       ?__ExceptionPtrRethrow@@YAXPEBX@Z 00000001400f3230 f   libcpmtd:excptptr.obj
 0001:000f2410       ?__ExceptionPtrToBool@@YA_NPEBX@Z 00000001400f3410 f   libcpmtd:excptptr.obj
 0001:000f2430       ?swap@?$shared_ptr@$$CBU_EXCEPTION_RECORD@@@std@@QEAAXAEAV12@@Z 00000001400f3430 f i libcpmtd:excptptr.obj
 0001:000f2460       ??0bad_function_call@std@@QEAA@AEBV01@@Z 00000001400f3460 f i libcpmtd:xthrow.obj
 0001:000f24a0       ??0bad_function_call@std@@QEAA@XZ 00000001400f34a0 f i libcpmtd:xthrow.obj
 0001:000f24d0       ??0exception@std@@QEAA@XZ  00000001400f34d0 f i libcpmtd:xthrow.obj
 0001:000f2510       ??0invalid_argument@std@@QEAA@AEBV01@@Z 00000001400f3510 f i libcpmtd:xthrow.obj
 0001:000f2550       ??0invalid_argument@std@@QEAA@PEBD@Z 00000001400f3550 f i libcpmtd:xthrow.obj
 0001:000f2590       ??0length_error@std@@QEAA@AEBV01@@Z 00000001400f3590 f i libcpmtd:xthrow.obj
 0001:000f25d0       ??0length_error@std@@QEAA@PEBD@Z 00000001400f35d0 f i libcpmtd:xthrow.obj
 0001:000f2610       ??0runtime_error@std@@QEAA@AEBV01@@Z 00000001400f3610 f i libcpmtd:xthrow.obj
 0001:000f2650       ?_Xbad_function_call@std@@YAXXZ 00000001400f3650 f   libcpmtd:xthrow.obj
 0001:000f2680       ?_Xlength_error@std@@YAXPEBD@Z 00000001400f3680 f   libcpmtd:xthrow.obj
 0001:000f26b0       ?what@bad_function_call@std@@UEBAPEBDXZ 00000001400f36b0 f i libcpmtd:xthrow.obj
 0001:000f26c0       ??$?0V?$allocator@D@std@@$$V@?$_Compressed_pair@V?$allocator@D@std@@V?$_String_val@U?$_Simple_types@D@std@@@2@$00@std@@QEAA@U_One_then_variadic_args_t@1@$$QEAV?$allocator@D@1@@Z 00000001400f36c0 f i libcpmtd:xonce.obj
 0001:000f2700       ??$_Immortalize@V_Generic_error_category@std@@@std@@YAAEAV_Generic_error_category@0@XZ 00000001400f3700 f i libcpmtd:xonce.obj
 0001:000f2740       ??$_Immortalize_impl@V_Generic_error_category@std@@@std@@YAHPEAX0PEAPEAX@Z 00000001400f3740 f i libcpmtd:xonce.obj
 0001:000f2780       ??$_Reallocate_grow_by@V<lambda_1>@?1??append@?$basic_string@DU?$char_traits@D@std@@V?$allocator@D@2@@std@@QEAAAEAV34@QEBD_K@Z@PEBD_K@?$basic_string@DU?$char_traits@D@std@@V?$allocator@D@2@@std@@AEAAAEAV01@_KV<lambda_1>@?1??append@01@QEAAAEAV01@QEBD0@Z@PEBD_K@Z 00000001400f3780 f i libcpmtd:xonce.obj
 0001:000f2960       ??0?$basic_string@DU?$char_traits@D@std@@V?$allocator@D@2@@std@@QEAA@$$QEAV01@@Z 00000001400f3960 f i libcpmtd:xonce.obj
 0001:000f2a10       ??0?$basic_string@DU?$char_traits@D@std@@V?$allocator@D@2@@std@@QEAA@AEBV01@@Z 00000001400f3a10 f i libcpmtd:xonce.obj
 0001:000f2ad0       ??0_System_error@std@@IEAA@Verror_code@1@AEBV?$basic_string@DU?$char_traits@D@std@@V?$allocator@D@2@@1@@Z 00000001400f3ad0 f i libcpmtd:xonce.obj
 0001:000f2bf0       ??0_System_error@std@@QEAA@AEBV01@@Z 00000001400f3bf0 f i libcpmtd:xonce.obj
 0001:000f2c50       ??0runtime_error@std@@QEAA@AEBV?$basic_string@DU?$char_traits@D@std@@V?$allocator@D@2@@1@@Z 00000001400f3c50 f i libcpmtd:xonce.obj
 0001:000f2c90       ??0system_error@std@@QEAA@AEBV01@@Z 00000001400f3c90 f i libcpmtd:xonce.obj
 0001:000f2cd0       ??1?$_Compressed_pair@V?$allocator@D@std@@V?$_String_val@U?$_Simple_types@D@std@@@2@$00@std@@QEAA@XZ 00000001400f3cd0 f i libcpmtd:xonce.obj
 0001:000f2cf0       ??1?$_String_val@U?$_Simple_types@D@std@@@std@@QEAA@XZ 00000001400f3cf0 f i libcpmtd:xonce.obj
 0001:000f2d10       ??1?$basic_string@DU?$char_traits@D@std@@V?$allocator@D@2@@std@@QEAA@XZ 00000001400f3d10 f i libcpmtd:xonce.obj
 0001:000f2d80       ??1system_error@std@@UEAA@XZ 00000001400f3d80 f i libcpmtd:xonce.obj
 0001:000f2da0       ??R<lambda_1>@?1??append@?$basic_string@DU?$char_traits@D@std@@V?$allocator@D@2@@std@@QEAAAEAV23@QEBD_K@Z@QEBAXQEAD0101@Z 00000001400f3da0 f i libcpmtd:xonce.obj
 0001:000f2e20       ??_Esystem_error@std@@UEAAPEAXI@Z 00000001400f3e20 f i libcpmtd:xonce.obj
 0001:000f2e20       ??_Gsystem_error@std@@UEAAPEAXI@Z 00000001400f3e20 f i libcpmtd:xonce.obj
 0001:000f2e60       ?_Construct_lv_contents@?$basic_string@DU?$char_traits@D@std@@V?$allocator@D@2@@std@@AEAAXAEBV12@@Z 00000001400f3e60 f i libcpmtd:xonce.obj
 0001:000f2fb0       ?_Execute_once@std@@YAHAEAUonce_flag@1@P6AHPEAX1PEAPEAX@Z1@Z 00000001400f3fb0 f   libcpmtd:xonce.obj
 0001:000f2ff0       ?_Makestr@_System_error@std@@CA?AV?$basic_string@DU?$char_traits@D@std@@V?$allocator@D@2@@2@Verror_code@2@V32@@Z 00000001400f3ff0 f i libcpmtd:xonce.obj
 0001:000f30e0       ?_Memcpy_val_from@?$basic_string@DU?$char_traits@D@std@@V?$allocator@D@2@@std@@AEAAXAEBV12@@Z 00000001400f40e0 f i libcpmtd:xonce.obj
 0001:000f3140       ?_Swap_proxy_and_iterators@?$basic_string@DU?$char_traits@D@std@@V?$allocator@D@2@@std@@AEAAXAEAV12@@Z 00000001400f4140 f i libcpmtd:xonce.obj
 0001:000f3170       ?_Swap_proxy_and_iterators@_Container_base12@std@@QEAAXAEAU12@@Z 00000001400f4170 f i libcpmtd:xonce.obj
 0001:000f3200       ?_Take_contents@?$basic_string@DU?$char_traits@D@std@@V?$allocator@D@2@@std@@AEAAXAEAV12@U?$integral_constant@_N$00@2@@Z 00000001400f4200 f i libcpmtd:xonce.obj
 0001:000f3270       ?_Tidy_deallocate@?$basic_string@DU?$char_traits@D@std@@V?$allocator@D@2@@std@@AEAAXXZ 00000001400f4270 f i libcpmtd:xonce.obj
 0001:000f3330       ?append@?$basic_string@DU?$char_traits@D@std@@V?$allocator@D@2@@std@@QEAAAEAV12@AEBV12@@Z 00000001400f4330 f i libcpmtd:xonce.obj
 0001:000f3380       ?append@?$basic_string@DU?$char_traits@D@std@@V?$allocator@D@2@@std@@QEAAAEAV12@QEBD@Z 00000001400f4380 f i libcpmtd:xonce.obj
 0001:000f33c0       ?append@?$basic_string@DU?$char_traits@D@std@@V?$allocator@D@2@@std@@QEAAAEAV12@QEBD_K@Z 00000001400f43c0 f i libcpmtd:xonce.obj
 0001:000f34b0       ?c_str@?$basic_string@DU?$char_traits@D@std@@V?$allocator@D@2@@std@@QEBAPEBDXZ 00000001400f44b0 f i libcpmtd:xonce.obj
 0001:000f34d0       ?empty@?$basic_string@DU?$char_traits@D@std@@V?$allocator@D@2@@std@@QEBA_NXZ 00000001400f44d0 f i libcpmtd:xonce.obj
 0001:000f3510       ?generic_category@std@@YAAEBVerror_category@1@XZ 00000001400f4510 f i libcpmtd:xonce.obj
 0001:000f3520       ?message@error_code@std@@QEBA?AV?$basic_string@DU?$char_traits@D@std@@V?$allocator@D@2@@2@XZ 00000001400f4520 f i libcpmtd:xonce.obj
 0001:000f35a0       ?size@?$basic_string@DU?$char_traits@D@std@@V?$allocator@D@2@@std@@QEBA_KXZ 00000001400f45a0 f i libcpmtd:xonce.obj
 0001:000f35a0       ?capacity@?$__crt_win32_buffer@DU__crt_win32_buffer_no_resizing@@@@QEBA_KXZ 00000001400f45a0 f i libucrtd:getmodulefilenamea.obj
 0001:000f35a0       ?capacity@?$__crt_win32_buffer@_WU__crt_win32_buffer_internal_dynamic_resizing@@@@QEBA_KXZ 00000001400f45a0 f i libucrtd:argv_wildcards.obj
 0001:000f35a0       ?_OwningContext@_TaskCollectionBase@details@Concurrency@@QEBAPEAXXZ 00000001400f45a0 f i libconcrtd:WorkQueue.obj
 0001:000f35a0       ?capacity@?$__crt_win32_buffer@DU__crt_win32_buffer_internal_dynamic_resizing@@@@QEBA_KXZ 00000001400f45a0 f i libucrtd:argv_wildcards.obj
 0001:000f35a0       ?GetResourceManager@SchedulerProxy@details@Concurrency@@QEBAPEAVResourceManager@23@XZ 00000001400f45a0 f i libconcrtd:ExecutionResource.obj
 0001:000f35b0       ?_Syserror_map@std@@YAPEBDH@Z 00000001400f45b0 f   libcpmtd:syserror.obj
 0001:000f3630       _Thrd_hardware_concurrency 00000001400f4630 f   libcpmtd:cthread.obj
 0001:000f3650       _Thrd_id                   00000001400f4650 f   libcpmtd:cthread.obj
 0001:000f3650       ?GetCurrentThreadId@platform@details@Concurrency@@YAJXZ 00000001400f4650 f   libcpmtd:ppltasks.obj
 0001:000f3660       _Thrd_join                 00000001400f4660 f   libcpmtd:cthread.obj
 0001:000f36f0       ??0stl_critical_section_concrt@details@Concurrency@@QEAA@XZ 00000001400f46f0 f i libcpmtd:mutex.obj
 0001:000f3730       ??0stl_critical_section_vista@details@Concurrency@@QEAA@XZ 00000001400f4730 f i libcpmtd:mutex.obj
 0001:000f3780       ??0stl_critical_section_win7@details@Concurrency@@QEAA@XZ 00000001400f4780 f i libcpmtd:mutex.obj
 0001:000f37c0       ??1GlobalCore@details@Concurrency@@QEAA@XZ 00000001400f47c0 f i libcpmtd:mutex.obj
 0001:000f37f0       ??_EGlobalCore@details@Concurrency@@QEAAPEAXI@Z 00000001400f47f0 f i libcpmtd:mutex.obj
 0001:000f3890       ??_Gcritical_section@Concurrency@@QEAAPEAXI@Z 00000001400f4890 f i libcpmtd:mutex.obj
 0001:000f38d0       ?native_handle@stl_critical_section_win7@details@Concurrency@@QEAAPEAU_RTL_SRWLOCK@@XZ 00000001400f48d0 f i libcpmtd:cond.obj
 0001:000f38d0       ?GetLocaleT@_LocaleUpdate@@QEAAPEAU__crt_locale_pointers@@XZ 00000001400f48d0 f i libucrtd:strtox.obj
 0001:000f38d0       ?_get_cs@_Mtx_internal_imp_t@@QEAAPEAVstl_critical_section_interface@details@Concurrency@@XZ 00000001400f48d0 f i libcpmtd:mutex.obj
 0001:000f38d0       ?native_handle@stl_critical_section_vista@details@Concurrency@@QEAAPEAU_RTL_CRITICAL_SECTION@@XZ 00000001400f48d0 f i libcpmtd:cond.obj
 0001:000f38d0       ?native_handle@stl_critical_section_concrt@details@Concurrency@@QEAAAEAVcritical_section@3@XZ 00000001400f48d0 f i libcpmtd:cond.obj
 0001:000f38e0       ?are_vista_sync_apis_available@details@Concurrency@@YA_NXZ 00000001400f48e0 f i libcpmtd:mutex.obj
 0001:000f3920       ?are_win7_sync_apis_available@details@Concurrency@@YA_NXZ 00000001400f4920 f i libcpmtd:mutex.obj
 0001:000f3960       ?create_stl_critical_section@details@Concurrency@@YAXPEAVstl_critical_section_interface@12@@Z 00000001400f4960 f i libcpmtd:mutex.obj
 0001:000f3a10       ?destroy@stl_critical_section_concrt@details@Concurrency@@UEAAXXZ 00000001400f4a10 f i libcpmtd:mutex.obj
 0001:000f3a40       ?destroy@stl_critical_section_vista@details@Concurrency@@UEAAXXZ 00000001400f4a40 f i libcpmtd:mutex.obj
 0001:000f3a60       ?lock@stl_critical_section_concrt@details@Concurrency@@UEAAXXZ 00000001400f4a60 f i libcpmtd:mutex.obj
 0001:000f3a80       ?lock@stl_critical_section_vista@details@Concurrency@@UEAAXXZ 00000001400f4a80 f i libcpmtd:mutex.obj
 0001:000f3aa0       ?lock@stl_critical_section_win7@details@Concurrency@@UEAAXXZ 00000001400f4aa0 f i libcpmtd:mutex.obj
 0001:000f3e60       ?try_lock@stl_critical_section_concrt@details@Concurrency@@UEAA_NXZ 00000001400f4e60 f i libcpmtd:mutex.obj
 0001:000f3e80       ?try_lock@stl_critical_section_vista@details@Concurrency@@UEAA_NXZ 00000001400f4e80 f i libcpmtd:mutex.obj
 0001:000f3ec0       ?try_lock@stl_critical_section_win7@details@Concurrency@@UEAA_NXZ 00000001400f4ec0 f i libcpmtd:mutex.obj
 0001:000f3f00       ?try_lock_for@stl_critical_section_concrt@details@Concurrency@@UEAA_NI@Z 00000001400f4f00 f i libcpmtd:mutex.obj
 0001:000f3f30       ?try_lock_for@stl_critical_section_vista@details@Concurrency@@UEAA_NI@Z 00000001400f4f30 f i libcpmtd:mutex.obj
 0001:000f3f50       ?try_lock_for@stl_critical_section_win7@details@Concurrency@@UEAA_NI@Z 00000001400f4f50 f i libcpmtd:mutex.obj
 0001:000f3f70       ?unlock@stl_critical_section_concrt@details@Concurrency@@UEAAXXZ 00000001400f4f70 f i libcpmtd:mutex.obj
 0001:000f3f90       ?unlock@stl_critical_section_vista@details@Concurrency@@UEAAXXZ 00000001400f4f90 f i libcpmtd:mutex.obj
 0001:000f3fb0       ?unlock@stl_critical_section_win7@details@Concurrency@@UEAAXXZ 00000001400f4fb0 f i libcpmtd:mutex.obj
 0001:000f3fd0       _Mtx_clear_owner           00000001400f4fd0 f   libcpmtd:mutex.obj
 0001:000f4000       _Mtx_destroy_in_situ       00000001400f5000 f   libcpmtd:mutex.obj
 0001:000f4060       _Mtx_getconcrtcs           00000001400f5060 f   libcpmtd:mutex.obj
 0001:000f4080       _Mtx_init_in_situ          00000001400f5080 f   libcpmtd:mutex.obj
 0001:000f40d0       _Mtx_lock                  00000001400f50d0 f   libcpmtd:mutex.obj
 0001:000f40f0       _Mtx_reset_owner           00000001400f50f0 f   libcpmtd:mutex.obj
 0001:000f4120       _Mtx_unlock                00000001400f5120 f   libcpmtd:mutex.obj
 0001:000f41c0       _Thrd_abort                00000001400f51c0 f   libcpmtd:mutex.obj
 0001:000f4210       ??0stl_condition_variable_concrt@details@Concurrency@@QEAA@XZ 00000001400f5210 f i libcpmtd:cond.obj
 0001:000f4250       ??0stl_condition_variable_vista@details@Concurrency@@QEAA@XZ 00000001400f5250 f i libcpmtd:cond.obj
 0001:000f4290       ??0stl_condition_variable_win7@details@Concurrency@@QEAA@XZ 00000001400f5290 f i libcpmtd:cond.obj
 0001:000f42d0       ??_G_Condition_variable@details@Concurrency@@QEAAPEAXI@Z 00000001400f52d0 f i libcpmtd:cond.obj
 0001:000f4310       ?create_stl_condition_variable@details@Concurrency@@YAXPEAVstl_condition_variable_interface@12@@Z 00000001400f5310 f i libcpmtd:cond.obj
 0001:000f43c0       ?destroy@stl_condition_variable_concrt@details@Concurrency@@UEAAXXZ 00000001400f53c0 f i libcpmtd:cond.obj
 0001:000f45f0       ?notify_all@stl_condition_variable_concrt@details@Concurrency@@UEAAXXZ 00000001400f55f0 f i libcpmtd:cond.obj
 0001:000f4610       ?notify_all@stl_condition_variable_win7@details@Concurrency@@UEAAXXZ 00000001400f5610 f i libcpmtd:cond.obj
 0001:000f4610       ?notify_all@stl_condition_variable_vista@details@Concurrency@@UEAAXXZ 00000001400f5610 f i libcpmtd:cond.obj
 0001:000f4630       ?notify_one@stl_condition_variable_concrt@details@Concurrency@@UEAAXXZ 00000001400f5630 f i libcpmtd:cond.obj
 0001:000f4650       ?notify_one@stl_condition_variable_vista@details@Concurrency@@UEAAXXZ 00000001400f5650 f i libcpmtd:cond.obj
 0001:000f4650       ?notify_one@stl_condition_variable_win7@details@Concurrency@@UEAAXXZ 00000001400f5650 f i libcpmtd:cond.obj
 0001:000f4670       ?wait@stl_condition_variable_concrt@details@Concurrency@@UEAAXPEAVstl_critical_section_interface@23@@Z 00000001400f5670 f i libcpmtd:cond.obj
 0001:000f46b0       ?wait@stl_condition_variable_vista@details@Concurrency@@UEAAXPEAVstl_critical_section_interface@23@@Z 00000001400f56b0 f i libcpmtd:cond.obj
 0001:000f46f0       ?wait@stl_condition_variable_win7@details@Concurrency@@UEAAXPEAVstl_critical_section_interface@23@@Z 00000001400f56f0 f i libcpmtd:cond.obj
 0001:000f4730       ?wait_for@stl_condition_variable_concrt@details@Concurrency@@UEAA_NPEAVstl_critical_section_interface@23@I@Z 00000001400f5730 f i libcpmtd:cond.obj
 0001:000f4780       ?wait_for@stl_condition_variable_vista@details@Concurrency@@UEAA_NPEAVstl_critical_section_interface@23@I@Z 00000001400f5780 f i libcpmtd:cond.obj
 0001:000f47e0       ?wait_for@stl_condition_variable_win7@details@Concurrency@@UEAA_NPEAVstl_critical_section_interface@23@I@Z 00000001400f57e0 f i libcpmtd:cond.obj
 0001:000f4840       _Cnd_broadcast             00000001400f5840 f   libcpmtd:cond.obj
 0001:000f4860       _Cnd_destroy_in_situ       00000001400f5860 f   libcpmtd:cond.obj
 0001:000f48a0       _Cnd_init_in_situ          00000001400f58a0 f   libcpmtd:cond.obj
 0001:000f48c0       _Cnd_signal                00000001400f58c0 f   libcpmtd:cond.obj
 0001:000f48e0       _Cnd_wait                  00000001400f58e0 f   libcpmtd:cond.obj
 0001:000f4910       _Cnd_do_broadcast_at_thread_exit 00000001400f5910 f   libcpmtd:xnotify.obj
 0001:000f4a60       _Cnd_register_at_thread_exit 00000001400f5a60 f   libcpmtd:xnotify.obj
 0001:000f4bb0       _Cnd_unregister_at_thread_exit 00000001400f5bb0 f   libcpmtd:xnotify.obj
 0001:000f4c70       ??0system_error@std@@QEAA@HAEBVerror_category@1@PEBD@Z 00000001400f5c70 f i libcpmtd:thread0.obj
 0001:000f4d30       ?_Throw_C_error@std@@YAXH@Z 00000001400f5d30 f   libcpmtd:thread0.obj
 0001:000f4d90       ?_Throw_Cpp_error@std@@YAXH@Z 00000001400f5d90 f   libcpmtd:thread0.obj
 0001:000f4e00       ?_Rethrow_future_exception@std@@YAXVexception_ptr@1@@Z 00000001400f5e00 f   libcpmtd:future.obj
 0001:000f4e50       ?_Throw_future_error@std@@YAXAEBVerror_code@1@@Z 00000001400f5e50 f   libcpmtd:future.obj
 0001:000f4ea0       ?rethrow_exception@std@@YAXVexception_ptr@1@@Z 00000001400f5ea0 f i libcpmtd:future.obj
 0001:000f4ed0       _Mtxdst                    00000001400f5ed0 f   libcpmtd:xmtx.obj
 0001:000f4ef0       _Mtxinit                   00000001400f5ef0 f   libcpmtd:xmtx.obj
 0001:000f4f10       _Mtxlock                   00000001400f5f10 f   libcpmtd:xmtx.obj
 0001:000f4f30       _Mtxunlock                 00000001400f5f30 f   libcpmtd:xmtx.obj
 0001:000f5560       __crtAcquireSRWLockExclusive 00000001400f6560 f   libcpmtd:winapisupp.obj
 0001:000f55b0       __crtCloseThreadpoolTimer  00000001400f65b0 f   libcpmtd:winapisupp.obj
 0001:000f5610       __crtCloseThreadpoolWait   00000001400f6610 f   libcpmtd:winapisupp.obj
 0001:000f5670       __crtCreateEventExW        00000001400f6670 f   libcpmtd:winapisupp.obj
 0001:000f5710       __crtCreateSemaphoreExW    00000001400f6710 f   libcpmtd:winapisupp.obj
 0001:000f5810       __crtCreateThreadpoolTimer 00000001400f6810 f   libcpmtd:winapisupp.obj
 0001:000f5880       __crtCreateThreadpoolWait  00000001400f6880 f   libcpmtd:winapisupp.obj
 0001:000f58f0       __crtFlushProcessWriteBuffers 00000001400f68f0 f   libcpmtd:winapisupp.obj
 0001:000f5930       __crtFreeLibraryWhenCallbackReturns 00000001400f6930 f   libcpmtd:winapisupp.obj
 0001:000f5990       __crtGetCurrentProcessorNumber 00000001400f6990 f   libcpmtd:winapisupp.obj
 0001:000f59e0       __crtGetSystemTimePreciseAsFileTime 00000001400f69e0 f   libcpmtd:winapisupp.obj
 0001:000f5a40       __crtGetTickCount64        00000001400f6a40 f   libcpmtd:winapisupp.obj
 0001:000f5a90       __crtInitOnceExecuteOnce   00000001400f6a90 f   libcpmtd:winapisupp.obj
 0001:000f5c40       __crtInitializeConditionVariable 00000001400f6c40 f   libcpmtd:winapisupp.obj
 0001:000f5c90       __crtInitializeCriticalSectionEx 00000001400f6c90 f   libcpmtd:winapisupp.obj
 0001:000f5d10       __crtInitializeSRWLock     00000001400f6d10 f   libcpmtd:winapisupp.obj
 0001:000f5d60       __crtReleaseSRWLockExclusive 00000001400f6d60 f   libcpmtd:winapisupp.obj
 0001:000f5db0       __crtSetThreadpoolTimer    00000001400f6db0 f   libcpmtd:winapisupp.obj
 0001:000f5e30       __crtSetThreadpoolWait     00000001400f6e30 f   libcpmtd:winapisupp.obj
 0001:000f5ea0       __crtSleepConditionVariableCS 00000001400f6ea0 f   libcpmtd:winapisupp.obj
 0001:000f5f00       __crtSleepConditionVariableSRW 00000001400f6f00 f   libcpmtd:winapisupp.obj
 0001:000f5f70       __crtTryAcquireSRWLockExclusive 00000001400f6f70 f   libcpmtd:winapisupp.obj
 0001:000f5fc0       __crtWaitForThreadpoolTimerCallbacks 00000001400f6fc0 f   libcpmtd:winapisupp.obj
 0001:000f6020       __crtWakeAllConditionVariable 00000001400f7020 f   libcpmtd:winapisupp.obj
 0001:000f6070       __crtWakeConditionVariable 00000001400f7070 f   libcpmtd:winapisupp.obj
 0001:000f6250       _Xtime_diff_to_millis2     00000001400f7250 f   libcpmtd:xtime.obj
 0001:000f6300       _Xtime_get_ticks           00000001400f7300 f   libcpmtd:xtime.obj
 0001:000f6380       xtime_get                  00000001400f7380 f   libcpmtd:xtime.obj
 0001:000f63c0       ??2@YAPEAX_K@Z             00000001400f73c0 f   LIBCMTD:new_scalar.obj
 0001:000f6410       ??3@YAXPEAX_K@Z            00000001400f7410 f   LIBCMTD:delete_scalar_size.obj
 0001:000f6430       ??_V@YAXPEAX@Z             00000001400f7430 f   LIBCMTD:delete_array.obj
 0001:000f6450       ?configure_argv@__scrt_narrow_argv_policy@@SAHXZ 00000001400f7450 f i LIBCMTD:utility.obj
 0001:000f6540       ?initialize_environment@__scrt_narrow_environment_policy@@SAHXZ 00000001400f7540 f i LIBCMTD:utility.obj
 0001:000f65e0       NtCurrentTeb               00000001400f75e0 f i LIBCMTD:utility.obj
 0001:000f65f0       __scrt_acquire_startup_lock 00000001400f75f0 f   LIBCMTD:utility.obj
 0001:000f6660       __scrt_initialize_crt      00000001400f7660 f   LIBCMTD:utility.obj
 0001:000f66b0       __scrt_initialize_onexit_tables 00000001400f76b0 f   LIBCMTD:utility.obj
 0001:000f67c0       __scrt_is_nonwritable_in_current_image 00000001400f77c0 f   LIBCMTD:utility.obj
 0001:000f6850       __scrt_release_startup_lock 00000001400f7850 f   LIBCMTD:utility.obj
 0001:000f6880       __scrt_uninitialize_crt    00000001400f7880 f   LIBCMTD:utility.obj
 0001:000f68c0       _onexit                    00000001400f78c0 f   LIBCMTD:utility.obj
 0001:000f6940       atexit                     00000001400f7940 f   LIBCMTD:utility.obj
 0001:000f6980       __raise_securityfailure    00000001400f7980 f   LIBCMTD:gs_report.obj
 0001:000f69c0       __report_gsfailure         00000001400f79c0 f   LIBCMTD:gs_report.obj
 0001:000f6aa0       __report_rangecheckfailure 00000001400f7aa0 f   LIBCMTD:gs_report.obj
 0001:000f6ac0       __report_securityfailure   00000001400f7ac0 f   LIBCMTD:gs_report.obj
 0001:000f6e10       _Init_thread_footer        00000001400f7e10 f   LIBCMTD:thread_safe_statics.obj
 0001:000f6e70       _Init_thread_header        00000001400f7e70 f   LIBCMTD:thread_safe_statics.obj
 0001:000f6f00       _Init_thread_lock          00000001400f7f00 f   LIBCMTD:thread_safe_statics.obj
 0001:000f6f20       _Init_thread_notify        00000001400f7f20 f   LIBCMTD:thread_safe_statics.obj
 0001:000f6f80       _Init_thread_unlock        00000001400f7f80 f   LIBCMTD:thread_safe_statics.obj
 0001:000f6fa0       _Init_thread_wait          00000001400f7fa0 f   LIBCMTD:thread_safe_statics.obj
 0001:000f7050       __GSHandlerCheck           00000001400f8050 f   LIBCMTD:gshandler.obj
 0001:000f7090       __GSHandlerCheckCommon     00000001400f8090 f   LIBCMTD:gshandler.obj
 0001:000f71a0       __chkstk                   00000001400f81a0 f   LIBCMTD:chkstk.obj
 0001:000f71a0       _alloca_probe              00000001400f81a0 f   LIBCMTD:chkstk.obj
 0001:000f7210       __security_check_cookie    00000001400f8210 f   LIBCMTD:amdsecgs.obj
 0001:000f7240       ??1type_info@@UEAA@XZ      00000001400f8240 f   LIBCMTD:std_type_info_static.obj
 0001:000f7260       ??_Etype_info@@UEAAPEAXI@Z 00000001400f8260 f i LIBCMTD:std_type_info_static.obj
 0001:000f7260       ??_Gtype_info@@UEAAPEAXI@Z 00000001400f8260 f i LIBCMTD:std_type_info_static.obj
 0001:000f72a0       ??3@YAXPEAX@Z              00000001400f82a0 f   LIBCMTD:delete_scalar.obj
 0001:000f75b0       ?set_app_type@__scrt_winmain_policy@@SAXXZ 00000001400f85b0 f i LIBCMTD:exe_winmain.obj
 0001:000f75d0       ?set_commode@__scrt_file_policy@@SAXXZ 00000001400f85d0 f i LIBCMTD:exe_winmain.obj
 0001:000f75f0       ?set_fmode@__scrt_file_policy@@SAXXZ 00000001400f85f0 f i LIBCMTD:exe_winmain.obj
 0001:000f7610       WinMainCRTStartup          00000001400f8610 f   LIBCMTD:exe_winmain.obj
 0001:000f7620       ?__crt_interlocked_read_64@@YA_JPED_J@Z 00000001400f8620 f i libvcruntimed:std_type_info.obj
 0001:000f7620       ReadNoFence64              00000001400f8620 f i LIBCMTD:guard_support.obj
 0001:000f7640       ReadPointerNoFence         00000001400f8640 f i LIBCMTD:guard_support.obj
 0001:000f7640       ??$__crt_interlocked_read_pointer@UHINSTANCE__@@@@YAPEAUHINSTANCE__@@PEDSEAU0@@Z 00000001400f8640 f i libvcruntimed:winapi_downlevel.obj
 0001:000f7640       ??$__crt_interlocked_read_pointer@X@@YAPEAXPEDSEAX@Z 00000001400f8640 f i libvcruntimed:winapi_downlevel.obj
 0001:000f7640       ??$__crt_interlocked_read_pointer@$$A6AXXZ@@YAP6AXXZPEDS6AXXZ@Z 00000001400f8640 f i libvcruntimed:purevirt.obj
 0001:000f7660       _guard_icall_checks_enforced 00000001400f8660 f i LIBCMTD:guard_support.obj
 0001:000f76a0       __GSHandlerCheck_EH4       00000001400f86a0 f   LIBCMTD:gshandlereh4.obj
 0001:000f7750       ??_M@YAXPEAX_K1P6AX0@Z@Z   00000001400f8750 f   LIBCMTD:ehvecdtr.obj
 0001:000f7880       ?__ArrayUnwind@@YAXPEAX_K1P6AX0@Z@Z 00000001400f8880 f   LIBCMTD:ehvecdtr.obj
 0001:000f7900       ??_V@YAXPEAX_K@Z           00000001400f8900 f   LIBCMTD:delete_array_size.obj
 0001:000f7920       ?__scrt_throw_std_bad_alloc@@YAXXZ 00000001400f8920 f   LIBCMTD:throw_bad_alloc.obj
 0001:000f7950       __isa_available_init       00000001400f8950 f   LIBCMTD:cpu_disp.obj
 0001:000f7cf0       _get_startup_argv_mode     00000001400f8cf0 f   LIBCMTD:argv_mode.obj
 0001:000f7d00       __scrt_is_ucrt_dll_in_use  00000001400f8d00 f   LIBCMTD:ucrt_detection.obj
 0001:000f7d30       __crt_debugger_hook        00000001400f8d30 f   LIBCMTD:utility_desktop.obj
 0001:000f7d40       __scrt_fastfail            00000001400f8d40 f   LIBCMTD:utility_desktop.obj
 0001:000f7ee0       __scrt_get_show_window_mode 00000001400f8ee0 f   LIBCMTD:utility_desktop.obj
 0001:000f7f40       __scrt_initialize_mta      00000001400f8f40 f   LIBCMTD:utility_desktop.obj
 0001:000f7f50       __scrt_stub_for_initialize_mta 00000001400f8f50 f   LIBCMTD:utility_desktop.obj
 0001:000f7f50       _get_startup_thread_locale_mode 00000001400f8f50 f   LIBCMTD:thread_locale.obj
 0001:000f7f50       __scrt_initialize_winrt    00000001400f8f50 f   LIBCMTD:utility_desktop.obj
 0001:000f7f50       _get_startup_commit_mode   00000001400f8f50 f   LIBCMTD:commit_mode.obj
 0001:000f7f50       ?get_invalid_value@__crt_hmodule_traits@@SAPEAUHINSTANCE__@@XZ 00000001400f8f50 f   libucrtd:exit.obj
 0001:000f7f50       ?get_current_state_index@__crt_state_management@@YA_KXZ 00000001400f8f50 f   libucrtd:invalid_parameter.obj
 0001:000f7f50       _get_startup_new_mode      00000001400f8f50 f   LIBCMTD:new_mode.obj
 0001:000f7f50       __scrt_exe_initialize_mta  00000001400f8f50 f   LIBCMTD:utility_desktop.obj
 0001:000f7f60       __scrt_is_managed_app      00000001400f8f60 f   LIBCMTD:utility_desktop.obj
 0001:000f8010       __scrt_set_unhandled_exception_filter 00000001400f9010 f   LIBCMTD:utility_desktop.obj
 0001:000f8030       __scrt_unhandled_exception_filter 00000001400f9030 f   LIBCMTD:utility_desktop.obj
 0001:000f8190       __security_init_cookie     00000001400f9190 f   LIBCMTD:gs_support.obj
 0001:000f8210       ?PreRunnableSearch@VirtualProcessor@details@Concurrency@@UEAAPEAVInternalContextBase@23@XZ 00000001400f9210 f   libconcrtd:VirtualProcessor.obj
 0001:000f8210       ?getESTypes@__FrameHandler4@@SAPEBU_s_ESTypeList@@PEAUFuncInfo4@FH4@@@Z 00000001400f9210 f   libvcruntimed:frame.obj
 0001:000f8210       ?get_current_state_index@__crt_state_management@@YA_KAEBV__crt_scoped_get_last_error_reset@@@Z 00000001400f9210 f   libucrtd:per_thread_data.obj
 0001:000f8210       _matherr                   00000001400f9210 f   LIBCMTD:matherr.obj
 0001:000f8210       ?GetContextKind@ExternalContextBase@details@Concurrency@@EEBA?AW4ContextKind@ContextBase@23@XZ 00000001400f9210 f   libconcrtd:ExternalContextBase.obj
 0001:000f8210       ?GetDefaultDestination@VirtualProcessor@details@Concurrency@@UEAAPEAUIExecutionContext@3@XZ 00000001400f9210 f   libconcrtd:VirtualProcessor.obj
 0001:000f8220       _get_startup_file_mode     00000001400f9220 f   LIBCMTD:file_mode.obj
 0001:000f8230       ?__scrt_initialize_type_info@@YAXXZ 00000001400f9230 f   LIBCMTD:tncleanup.obj
 0001:000f8250       _should_initialize_environment 00000001400f9250 f   LIBCMTD:env_mode.obj
 0001:000f8260       _initialize_invalid_parameter_handler 00000001400f9260 f   LIBCMTD:invalid_parameter_handler.obj
 0001:000f8260       _initialize_denormal_control 00000001400f9260 f   LIBCMTD:denormal_control.obj
 0001:000f8260       ?Increment@NoCount@CollectionTypes@details@Concurrency@@SAXXZ 00000001400f9260 f   libconcrtd:SchedulerBase.obj
 0001:000f8260       ?Decrement@NoCount@CollectionTypes@details@Concurrency@@SAXXZ 00000001400f9260 f   libconcrtd:SchedulerBase.obj
 0001:000f8270       __scrt_initialize_default_local_stdio_options 00000001400f9270 f   LIBCMTD:default_local_stdio_options.obj
 0001:000f82c0       __scrt_is_user_matherr_present 00000001400f92c0 f   LIBCMTD:matherr_detection.obj
 0001:000f82f0       __scrt_get_dyn_tls_init_callback 00000001400f92f0 f   LIBCMTD:dyn_tls_init.obj
 0001:000f8300       __scrt_get_dyn_tls_dtor_callback 00000001400f9300 f   LIBCMTD:dyn_tls_dtor.obj
 0001:000f8310       _RTC_Initialize            00000001400f9310 f   LIBCMTD:initsect.obj
 0001:000f8360       _RTC_Terminate             00000001400f9360 f   LIBCMTD:initsect.obj
 0001:000f83b0       ??0?$_SpinWait@$00@details@Concurrency@@QEAA@P6AXXZ@Z 00000001400f93b0 f i libconcrtd:rtlocks.obj
 0001:000f83b0       ??0?$_SpinWait@$0A@@details@Concurrency@@QEAA@P6AXXZ@Z 00000001400f93b0 f i libconcrtd:rtlocks.obj
 0001:000f83e0       ??0LockQueueNode@details@Concurrency@@QEAA@I@Z 00000001400f93e0 f i libconcrtd:rtlocks.obj
 0001:000f8530       ??0LockQueueNode@details@Concurrency@@QEAA@PEAVContext@2@I@Z 00000001400f9530 f i libconcrtd:rtlocks.obj
 0001:000f8590       ??0_NonReentrantBlockingLock@details@Concurrency@@QEAA@XZ 00000001400f9590 f   libconcrtd:rtlocks.obj
 0001:000f8590       ??0_ReentrantBlockingLock@details@Concurrency@@QEAA@XZ 00000001400f9590 f   libconcrtd:rtlocks.obj
 0001:000f85e0       ??0_ReaderWriterLock@details@Concurrency@@QEAA@XZ 00000001400f95e0 f   libconcrtd:rtlocks.obj
 0001:000f8610       ??0critical_section@Concurrency@@QEAA@XZ 00000001400f9610 f   libconcrtd:rtlocks.obj
 0001:000f8670       ??0improper_lock@Concurrency@@QEAA@AEBV01@@Z 00000001400f9670 f i libconcrtd:rtlocks.obj
 0001:000f86b0       ??0scoped_lock@critical_section@Concurrency@@QEAA@AEAV12@@Z 00000001400f96b0 f   libconcrtd:rtlocks.obj
 0001:000f8730       ??1_ReentrantBlockingLock@details@Concurrency@@QEAA@XZ 00000001400f9730 f   libconcrtd:rtlocks.obj
 0001:000f8730       ??1_NonReentrantBlockingLock@details@Concurrency@@QEAA@XZ 00000001400f9730 f   libconcrtd:rtlocks.obj
 0001:000f8760       ??1critical_section@Concurrency@@QEAA@XZ 00000001400f9760 f   libconcrtd:rtlocks.obj
 0001:000f87c0       ??1scoped_lock@critical_section@Concurrency@@QEAA@XZ 00000001400f97c0 f   libconcrtd:rtlocks.obj
 0001:000f87e0       ?Block@LockQueueNode@details@Concurrency@@QEAAXI@Z 00000001400f97e0 f i libconcrtd:rtlocks.obj
 0001:000f8960       ?Copy@LockQueueNode@details@Concurrency@@QEAAXPEAV123@@Z 00000001400f9960 f i libconcrtd:rtlocks.obj
 0001:000f8a50       ?CurrentContext@SchedulerBase@details@Concurrency@@SAPEAVContextBase@23@XZ 00000001400f9a50 f i libconcrtd:rtlocks.obj
 0001:000f8a90       ?DerefTimerNode@LockQueueNode@details@Concurrency@@QEAAXXZ 00000001400f9a90 f i libconcrtd:rtlocks.obj
 0001:000f8ae0       ?DispatchNodeTimeoutTimer@LockQueueNode@details@Concurrency@@SAXPEAU_TP_CALLBACK_INSTANCE@@PEAXPEAU_TP_TIMER@@@Z 00000001400f9ae0 f i libconcrtd:rtlocks.obj
 0001:000f8b70       ?DispatchNodeTimeoutTimerXP@LockQueueNode@details@Concurrency@@SAXPEAXE@Z 00000001400f9b70 f i libconcrtd:rtlocks.obj
 0001:000f8c10       ?GetCurrent@UMSThreadProxy@details@Concurrency@@SAPEAV123@XZ 00000001400f9c10 f i libconcrtd:rtlocks.obj
 0001:000f8c30       ?GetDebugBits@details@Concurrency@@YAJXZ 00000001400f9c30 f   libconcrtd:rtlocks.obj
 0001:000f8d70       ?IsBlocked@LockQueueNode@details@Concurrency@@AEAA_NXZ 00000001400f9d70 f i libconcrtd:rtlocks.obj
 0001:000f8db0       ?IsOneShotInitialized@SchedulerBase@details@Concurrency@@SA_NXZ 00000001400f9db0 f i libconcrtd:rtlocks.obj
 0001:000f8de0       ?IsPreviousBlocked@LockQueueNode@details@Concurrency@@AEAA_NXZ 00000001400f9de0 f i libconcrtd:rtlocks.obj
 0001:000f8e20       ?IsShutdownValidations@ContextBase@details@Concurrency@@QEBA_NXZ 00000001400f9e20 f i libconcrtd:rtlocks.obj
 0001:000f8e40       ?IsShutdownValidations@UMSThreadProxy@details@Concurrency@@QEBA_NXZ 00000001400f9e40 f i libconcrtd:rtlocks.obj
 0001:000f8e60       ?IsTicketValid@LockQueueNode@details@Concurrency@@AEAA_NXZ 00000001400f9e60 f i libconcrtd:rtlocks.obj
 0001:000f8ea0       ?IsTransmogrified@UMSThreadProxy@details@Concurrency@@QEBA_NXZ 00000001400f9ea0 f i libconcrtd:rtlocks.obj
 0001:000f8ed0       ?TryCompensateTimer@LockQueueNode@details@Concurrency@@QEAAXXZ 00000001400f9ed0 f i libconcrtd:rtlocks.obj
 0001:000f8f10       ?Unblock@LockQueueNode@details@Concurrency@@QEAA_NXZ 00000001400f9f10 f i libconcrtd:rtlocks.obj
 0001:000f8f80       ?UnblockWithoutContext@LockQueueNode@details@Concurrency@@QEAAXXZ 00000001400f9f80 f i libconcrtd:rtlocks.obj
 0001:000f8fa0       ?UpdateQueuePosition@LockQueueNode@details@Concurrency@@QEAAXPEAV123@@Z 00000001400f9fa0 f i libconcrtd:rtlocks.obj
 0001:000f90c0       ?ValidateDebugBits@details@Concurrency@@YAXJ@Z 00000001400fa0c0 f   libconcrtd:rtlocks.obj
 0001:000f9110       ?WaitForNextNode@LockQueueNode@details@Concurrency@@QEAAPEAV123@XZ 00000001400fa110 f i libconcrtd:rtlocks.obj
 0001:000f9170       ?_Acquire@_ReentrantBlockingLock@details@Concurrency@@QEAAXXZ 00000001400fa170 f   libconcrtd:rtlocks.obj
 0001:000f9170       ?_Acquire@_NonReentrantBlockingLock@details@Concurrency@@QEAAXXZ 00000001400fa170 f   libconcrtd:rtlocks.obj
 0001:000f91a0       ?_AcquireRead@_ReaderWriterLock@details@Concurrency@@QEAAXXZ 00000001400fa1a0 f   libconcrtd:rtlocks.obj
 0001:000f9270       ?_AcquireWrite@_ReaderWriterLock@details@Concurrency@@QEAAXXZ 00000001400fa270 f   libconcrtd:rtlocks.obj
 0001:000f92e0       ?_Acquire_lock@critical_section@Concurrency@@QEAA_NPEAX_N@Z 00000001400fa2e0 f   libconcrtd:rtlocks.obj
 0001:000f9430       ?_DebugAcquire@_NonReentrantLock@details@Concurrency@@AEAAXXZ 00000001400fa430 f   libconcrtd:rtlocks.obj
 0001:000f94d0       ?_DebugTryAcquire@_NonReentrantLock@details@Concurrency@@AEAA_NXZ 00000001400fa4d0 f   libconcrtd:rtlocks.obj
 0001:000f9570       ?_DoYield@?$_SpinWait@$00@details@Concurrency@@IEAAXXZ 00000001400fa570 f i libconcrtd:rtlocks.obj
 0001:000f95f0       ?_DoYield@?$_SpinWait@$0A@@details@Concurrency@@IEAAXXZ 00000001400fa5f0 f i libconcrtd:rtlocks.obj
 0001:000f9610       ?_FlushWriteOwners@_ReaderWriterLock@details@Concurrency@@QEAAXXZ 00000001400fa610 f   libconcrtd:rtlocks.obj
 0001:000f9650       ?_Flush_current_owner@critical_section@Concurrency@@QEAAXXZ 00000001400fa650 f   libconcrtd:rtlocks.obj
 0001:000f9680       ?_Initialize@_SpinCount@details@Concurrency@@SAXXZ 00000001400fa680 f   libconcrtd:rtlocks.obj
 0001:000f96b0       ?_NumberOfSpins@?$_SpinWait@$0A@@details@Concurrency@@IEAAKXZ 00000001400fa6b0 f i libconcrtd:rtlocks.obj
 0001:000f96b0       ?_NumberOfSpins@?$_SpinWait@$00@details@Concurrency@@IEAAKXZ 00000001400fa6b0 f i libconcrtd:rtlocks.obj
 0001:000f96b0       ?GetContextKind@ThreadInternalContext@details@Concurrency@@UEBA?AW4ContextKind@ContextBase@23@XZ 00000001400fa6b0 f i libconcrtd:ThreadScheduler.obj
 0001:000f96c0       ?_Release@_NonReentrantBlockingLock@details@Concurrency@@QEAAXXZ 00000001400fa6c0 f   libconcrtd:rtlocks.obj
 0001:000f96c0       ?_Release@_ReentrantBlockingLock@details@Concurrency@@QEAAXXZ 00000001400fa6c0 f   libconcrtd:rtlocks.obj
 0001:000f96f0       ?_ReleaseRead@_ReaderWriterLock@details@Concurrency@@QEAAXXZ 00000001400fa6f0 f   libconcrtd:rtlocks.obj
 0001:000f9760       ?_ReleaseWrite@_ReaderWriterLock@details@Concurrency@@QEAAXXZ 00000001400fa760 f   libconcrtd:rtlocks.obj
 0001:000f9830       ?_Reset@?$_SpinWait@$00@details@Concurrency@@IEAAXXZ 00000001400fa830 f i libconcrtd:rtlocks.obj
 0001:000f98b0       ?_Reset@?$_SpinWait@$0A@@details@Concurrency@@IEAAXXZ 00000001400fa8b0 f i libconcrtd:rtlocks.obj
 0001:000f9930       ?_SetSpinCount@?$_SpinWait@$00@details@Concurrency@@QEAAXI@Z 00000001400fa930 f i libconcrtd:rtlocks.obj
 0001:000f99d0       ?_SetSpinCount@?$_SpinWait@$0A@@details@Concurrency@@QEAAXI@Z 00000001400fa9d0 f i libconcrtd:rtlocks.obj
 0001:000f9a70       ?_ShouldSpinAgain@?$_SpinWait@$00@details@Concurrency@@IEAA_NXZ 00000001400faa70 f i libconcrtd:rtlocks.obj
 0001:000f9a70       ?_ShouldSpinAgain@?$_SpinWait@$0A@@details@Concurrency@@IEAA_NXZ 00000001400faa70 f i libconcrtd:rtlocks.obj
 0001:000f9ac0       ?_SpinOnce@?$_SpinWait@$00@details@Concurrency@@QEAA_NXZ 00000001400faac0 f i libconcrtd:rtlocks.obj
 0001:000f9c40       ?_SpinOnce@?$_SpinWait@$0A@@details@Concurrency@@QEAA_NXZ 00000001400fac40 f i libconcrtd:rtlocks.obj
 0001:000f9dc0       ?_Switch_to_active@critical_section@Concurrency@@AEAAXPEAX@Z 00000001400fadc0 f   libconcrtd:rtlocks.obj
 0001:000f9eb0       ?_TryAcquireWrite@_ReaderWriterLock@details@Concurrency@@QEAA_NXZ 00000001400faeb0 f   libconcrtd:rtlocks.obj
 0001:000f9f00       ?_Value@_SpinCount@details@Concurrency@@SAIXZ 00000001400faf00 f   libconcrtd:rtlocks.obj
 0001:000f9f10       ?_WaitEquals@_ReaderWriterLock@details@Concurrency@@CAXAEDJJJ@Z 00000001400faf10 f   libconcrtd:rtlocks.obj
 0001:000f9f90       ?lock@critical_section@Concurrency@@QEAAXXZ 00000001400faf90 f   libconcrtd:rtlocks.obj
 0001:000f9fe0       ?try_lock@critical_section@Concurrency@@QEAA_NXZ 00000001400fafe0 f   libconcrtd:rtlocks.obj
 0001:000fa080       ?try_lock_for@critical_section@Concurrency@@QEAA_NI@Z 00000001400fb080 f   libconcrtd:rtlocks.obj
 0001:000fa120       ?unlock@critical_section@Concurrency@@QEAAXXZ 00000001400fb120 f   libconcrtd:rtlocks.obj
 0001:000fa2f0       ??0?$_MallocaArrayHolder@PEAVContext@Concurrency@@@details@Concurrency@@QEAA@XZ 00000001400fb2f0 f i libconcrtd:event.obj
 0001:000fa330       ??0EventWaitNode@details@Concurrency@@QEAA@PEAVWaitBlock@12@@Z 00000001400fb330 f i libconcrtd:event.obj
 0001:000fa350       ??0MultiWaitBlock@details@Concurrency@@QEAA@_K_N1@Z 00000001400fb350 f i libconcrtd:event.obj
 0001:000fa400       ??0MultiWaitBlockHolder@details@Concurrency@@QEAA@_N_K00@Z 00000001400fb400 f   libconcrtd:event.obj
 0001:000fa620       ??0SingleWaitBlock@details@Concurrency@@QEAA@XZ 00000001400fb620 f i libconcrtd:event.obj
 0001:000fa650       ??0TimedSingleWaitBlock@details@Concurrency@@QEAA@_N@Z 00000001400fb650 f i libconcrtd:event.obj
 0001:000fa6e0       ??0WaitAllBlock@details@Concurrency@@QEAA@_K_N1@Z 00000001400fb6e0 f i libconcrtd:event.obj
 0001:000fa740       ??0WaitAnyBlock@details@Concurrency@@QEAA@_K_N1@Z 00000001400fb740 f i libconcrtd:event.obj
 0001:000fa7a0       ??0WaitBlock@details@Concurrency@@QEAA@XZ 00000001400fb7a0 f i libconcrtd:event.obj
 0001:000fa7f0       ??0_Condition_variable@details@Concurrency@@QEAA@XZ 00000001400fb7f0 f   libconcrtd:event.obj
 0001:000fa820       ??0event@Concurrency@@QEAA@XZ 00000001400fb820 f   libconcrtd:event.obj
 0001:000fa860       ??1?$_MallocaArrayHolder@PEAVContext@Concurrency@@@details@Concurrency@@UEAA@XZ 00000001400fb860 f i libconcrtd:event.obj
 0001:000fa8c0       ??1MultiWaitBlockHolder@details@Concurrency@@QEAA@XZ 00000001400fb8c0 f   libconcrtd:event.obj
 0001:000fa920       ??1_Condition_variable@details@Concurrency@@QEAA@XZ 00000001400fb920 f   libconcrtd:event.obj
 0001:000fa960       ??1event@Concurrency@@QEAA@XZ 00000001400fb960 f   libconcrtd:event.obj
 0001:000faa30       ??2@YAPEAX_KV_ConcRTNewMoniker@@PEBDH@Z 00000001400fba30 f i libconcrtd:event.obj
 0001:000faa70       ??3@YAXPEAXV_ConcRTNewMoniker@@PEBDH@Z 00000001400fba70 f i libconcrtd:event.obj
 0001:000faaa0       ??_G?$_MallocaArrayHolder@PEAVContext@Concurrency@@@details@Concurrency@@UEAAPEAXI@Z 00000001400fbaa0 f i libconcrtd:event.obj
 0001:000faaa0       ??_E?$_MallocaArrayHolder@PEAVContext@Concurrency@@@details@Concurrency@@UEAAPEAXI@Z 00000001400fbaa0 f i libconcrtd:event.obj
 0001:000faae0       ??_U@YAPEAX_KV_ConcRTNewMoniker@@PEBDH@Z 00000001400fbae0 f i libconcrtd:event.obj
 0001:000fab20       ?Destroy@EventWaitNode@details@Concurrency@@QEAAXXZ 00000001400fbb20 f i libconcrtd:event.obj
 0001:000fab60       ?Destroy@SingleWaitBlock@details@Concurrency@@UEAAXXZ 00000001400fbb60 f   libconcrtd:event.obj
 0001:000fabc0       ?Destroy@TimedSingleWaitBlock@details@Concurrency@@UEAAXXZ 00000001400fbbc0 f   libconcrtd:event.obj
 0001:000fac10       ?Destroy@WaitAllBlock@details@Concurrency@@UEAAXXZ 00000001400fbc10 f   libconcrtd:event.obj
 0001:000fac30       ?DispatchEventTimer@MultiWaitBlock@details@Concurrency@@SAXPEAU_TP_CALLBACK_INSTANCE@@PEAXPEAU_TP_TIMER@@@Z 00000001400fbc30 f   libconcrtd:event.obj
 0001:000facf0       ?DispatchEventTimer@TimedSingleWaitBlock@details@Concurrency@@SAXPEAU_TP_CALLBACK_INSTANCE@@PEAXPEAU_TP_TIMER@@@Z 00000001400fbcf0 f   libconcrtd:event.obj
 0001:000fad60       ?DispatchEventTimerXP@MultiWaitBlock@details@Concurrency@@SAXPEAXE@Z 00000001400fbd60 f   libconcrtd:event.obj
 0001:000fae30       ?DispatchEventTimerXP@TimedSingleWaitBlock@details@Concurrency@@SAXPEAXE@Z 00000001400fbe30 f   libconcrtd:event.obj
 0001:000fae80       ?GetIndexOfNode@MultiWaitBlockHolder@details@Concurrency@@QEBA_KPEAVEventWaitNode@23@@Z 00000001400fbe80 f i libconcrtd:event.obj
 0001:000faec0       ?GetSharedTimerQueue@details@Concurrency@@YAPEAXXZ 00000001400fbec0 f   libconcrtd:event.obj
 0001:000faf90       ?size@?$__crt_win32_buffer@DU__crt_win32_buffer_no_resizing@@@@QEBA_KXZ 00000001400fbf90 f i libucrtd:getmodulefilenamea.obj
 0001:000faf90       ?GetWaitBlock@MultiWaitBlockHolder@details@Concurrency@@QEBAPEAVMultiWaitBlock@23@XZ 00000001400fbf90 f i libconcrtd:event.obj
 0001:000faf90       ?GetVirtualProcessorRoot@ThreadProxy@details@Concurrency@@QEAAPEAVVirtualProcessorRoot@23@XZ 00000001400fbf90 f i libconcrtd:SchedulerProxy.obj
 0001:000faf90       ?GetSchedulerProxy@ExecutionResource@details@Concurrency@@QEAAPEAVSchedulerProxy@23@XZ 00000001400fbf90 f i libconcrtd:ResourceManager.obj
 0001:000faf90       ?GetAllocatedNodes@SchedulerProxy@details@Concurrency@@QEBAPEAUSchedulerNode@23@XZ 00000001400fbf90 f i libconcrtd:ResourceManager.obj
 0001:000fafa0       ?GetWaitNode@MultiWaitBlockHolder@details@Concurrency@@QEBAPEAVEventWaitNode@23@_K@Z 00000001400fbfa0 f i libconcrtd:event.obj
 0001:000fafd0       ?NotifyCompletedNode@MultiWaitBlock@details@Concurrency@@QEAAXXZ 00000001400fbfd0 f   libconcrtd:event.obj
 0001:000fb030       ?Release@MultiWaitBlockHolder@details@Concurrency@@QEAAXXZ 00000001400fc030 f i libconcrtd:event.obj
 0001:000fb050       ?Reset@SingleWaitBlock@details@Concurrency@@UEAA_NXZ 00000001400fc050 f   libconcrtd:event.obj
 0001:000fb0b0       ?Reset@WaitAllBlock@details@Concurrency@@UEAA_NXZ 00000001400fc0b0 f   libconcrtd:event.obj
 0001:000fb150       ?Reset@WaitAnyBlock@details@Concurrency@@UEAA_NXZ 00000001400fc150 f   libconcrtd:event.obj
 0001:000fb1b0       ?Satisfy@EventWaitNode@details@Concurrency@@QEAA_NPEAPEAVContext@3@@Z 00000001400fc1b0 f i libconcrtd:event.obj
 0001:000fb210       ?Satisfy@SingleWaitBlock@details@Concurrency@@UEAA_NPEAPEAVContext@3@PEAVEventWaitNode@23@@Z 00000001400fc210 f   libconcrtd:event.obj
 0001:000fb2f0       ?Satisfy@TimedSingleWaitBlock@details@Concurrency@@UEAA_NPEAPEAVContext@3@PEAVEventWaitNode@23@@Z 00000001400fc2f0 f   libconcrtd:event.obj
 0001:000fb3c0       ?Satisfy@WaitAllBlock@details@Concurrency@@UEAA_NPEAPEAVContext@3@PEAVEventWaitNode@23@@Z 00000001400fc3c0 f   libconcrtd:event.obj
 0001:000fb4c0       ?Satisfy@WaitAnyBlock@details@Concurrency@@UEAA_NPEAPEAVContext@3@PEAVEventWaitNode@23@@Z 00000001400fc4c0 f   libconcrtd:event.obj
 0001:000fb5b0       ?Set@StructuredEvent@details@Concurrency@@QEAAXXZ 00000001400fc5b0 f   libconcrtd:event.obj
 0001:000fb670       ?SingleSatisfy@MultiWaitBlock@details@Concurrency@@MEAAXPEAPEAVContext@3@PEAVEventWaitNode@23@@Z 00000001400fc670 f   libconcrtd:event.obj
 0001:000fb860       ?Sweep@details@Concurrency@@YAPEAVEventWaitNode@12@PEAV312@_N@Z 00000001400fc860 f   libconcrtd:event.obj
 0001:000fb900       ?SweepResetNode@EventWaitNode@details@Concurrency@@QEAA_NXZ 00000001400fc900 f i libconcrtd:event.obj
 0001:000fb940       ?SweepResetNode@SingleWaitBlock@details@Concurrency@@UEAA_NXZ 00000001400fc940 f   libconcrtd:event.obj
 0001:000fb9a0       ?SweepResetNode@WaitAllBlock@details@Concurrency@@UEAA_NXZ 00000001400fc9a0 f   libconcrtd:event.obj
 0001:000fba80       ?SweepResetNode@WaitAnyBlock@details@Concurrency@@UEAA_NXZ 00000001400fca80 f   libconcrtd:event.obj
 0001:000fbae0       ?SweepWaitNode@EventWaitNode@details@Concurrency@@QEAA_NXZ 00000001400fcae0 f i libconcrtd:event.obj
 0001:000fbb20       ?SweepWaitNode@TimedSingleWaitBlock@details@Concurrency@@UEAA_NXZ 00000001400fcb20 f   libconcrtd:event.obj
 0001:000fbb70       ?SweepWaitNode@WaitAllBlock@details@Concurrency@@UEAA_NXZ 00000001400fcb70 f   libconcrtd:event.obj
 0001:000fbca0       ?SweepWaitNode@WaitAnyBlock@details@Concurrency@@UEAA_NXZ 00000001400fcca0 f   libconcrtd:event.obj
 0001:000fbd60       ?_InitOnRawMalloca@?$_MallocaArrayHolder@PEAVContext@Concurrency@@@details@Concurrency@@QEAAPEAPEAVContext@3@PEAX@Z 00000001400fcd60 f i libconcrtd:event.obj
 0001:000fbd60       ?_InitOnRawMalloca@?$_MallocaArrayHolder@PEAVevent@Concurrency@@@details@Concurrency@@QEAAPEAPEAVevent@3@PEAX@Z 00000001400fcd60 f i libconcrtd:TaskCollection.obj
 0001:000fbdb0       ?_Initialize@?$_MallocaArrayHolder@PEAVevent@Concurrency@@@details@Concurrency@@QEAAXPEAPEAVevent@3@@Z 00000001400fcdb0 f i libconcrtd:TaskCollection.obj
 0001:000fbdb0       ?_Initialize@?$_MallocaArrayHolder@PEAVContext@Concurrency@@@details@Concurrency@@QEAAXPEAPEAVContext@3@@Z 00000001400fcdb0 f i libconcrtd:event.obj
 0001:000fbe40       ?createTimer@TimedSingleWaitBlock@details@Concurrency@@QEAA_NI@Z 00000001400fce40 f i libconcrtd:event.obj
 0001:000fbf20       ?destroyTimer@TimedSingleWaitBlock@details@Concurrency@@QEAAX_N@Z 00000001400fcf20 f i libconcrtd:event.obj
 0001:000fbfc0       ?getEventNode@TimedSingleWaitBlock@details@Concurrency@@QEAAPEAVEventWaitNode@23@XZ 00000001400fcfc0 f i libconcrtd:event.obj
 0001:000fbfc0       ?GetAffinity@ScheduleGroupSegmentBase@details@Concurrency@@IEBAAEBVlocation@3@XZ 00000001400fcfc0 f i libconcrtd:ContextBase.obj
 0001:000fbfd0       ?notify_all@_Condition_variable@details@Concurrency@@QEAAXXZ 00000001400fcfd0 f   libconcrtd:event.obj
 0001:000fc0b0       ?notify_one@_Condition_variable@details@Concurrency@@QEAAXXZ 00000001400fd0b0 f   libconcrtd:event.obj
 0001:000fc1b0       ?set@event@Concurrency@@QEAAXXZ 00000001400fd1b0 f   libconcrtd:event.obj
 0001:000fc410       ?wait@_Condition_variable@details@Concurrency@@QEAAXAEAVcritical_section@3@@Z 00000001400fd410 f   libconcrtd:event.obj
 0001:000fc4c0       ?wait@event@Concurrency@@QEAA_KI@Z 00000001400fd4c0 f   libconcrtd:event.obj
 0001:000fc670       ?wait_for@_Condition_variable@details@Concurrency@@QEAA_NAEAVcritical_section@3@I@Z 00000001400fd670 f   libconcrtd:event.obj
 0001:000fc830       ?wait_for_multiple@event@Concurrency@@SA_KPEAPEAV12@_K_NI@Z 00000001400fd830 f   libconcrtd:event.obj
 0001:000fceb0       _MallocaComputeSize        00000001400fdeb0 f i libconcrtd:event.obj
 0001:000fcef0       _MarkAllocaS               00000001400fdef0 f i libconcrtd:event.obj
 0001:000fcf20       _freea                     00000001400fdf20 f i libconcrtd:event.obj
 0001:000fcfc0       ??0scheduler_resource_allocation_error@Concurrency@@QEAA@AEBV01@@Z 00000001400fdfc0 f i libconcrtd:Platform.obj
 0001:000fd010       ??1DefaultWaiterPool@platform@details@Concurrency@@QEAA@XZ 00000001400fe010 f i libconcrtd:Platform.obj
 0001:000fd070       ??1WaiterThreadPool@platform@details@Concurrency@@QEAA@XZ 00000001400fe070 f i libconcrtd:Platform.obj
 0001:000fd0b0       ??_GWaiterThreadPool@platform@details@Concurrency@@QEAAPEAXI@Z 00000001400fe0b0 f i libconcrtd:Platform.obj
 0001:000fd0f0       ??_Escheduler_resource_allocation_error@Concurrency@@UEAAPEAXI@Z 00000001400fe0f0 f i libconcrtd:Platform.obj
 0001:000fd0f0       ??_Gscheduler_resource_allocation_error@Concurrency@@UEAAPEAXI@Z 00000001400fe0f0 f i libconcrtd:Platform.obj
 0001:000fd130       ?InitializeSystemFunctionPointers@platform@details@Concurrency@@YAXXZ 00000001400fe130 f   libconcrtd:Platform.obj
 0001:000fd240       ?__ChangeTimerQueueTimer@platform@details@Concurrency@@YAHPEAX0KK@Z 00000001400fe240 f   libconcrtd:Platform.obj
 0001:000fd280       ?__CloseThreadHandle@platform@details@Concurrency@@YAXPEAX@Z 00000001400fe280 f   libconcrtd:Platform.obj
 0001:000fd2a0       ?__CreateAutoResetEvent@platform@details@Concurrency@@YAPEAX_N@Z 00000001400fe2a0 f   libconcrtd:Platform.obj
 0001:000fd320       ?__CreateThread@platform@details@Concurrency@@YAPEAXPEAU_SECURITY_ATTRIBUTES@@_KP6AKPEAX@Z2KPEAK@Z 00000001400fe320 f   libconcrtd:Platform.obj
 0001:000fd370       ?__CreateTimerQueueTimer@platform@details@Concurrency@@YAHPEAPEAXPEAXP6AX1E@Z1KKK@Z 00000001400fe370 f   libconcrtd:Platform.obj
 0001:000fd3d0       ?__DeleteTimerQueueTimer@platform@details@Concurrency@@YAXPEAX00@Z 00000001400fe3d0 f   libconcrtd:Platform.obj
 0001:000fd440       ?__GetCurrentProcessorNumberEx@platform@details@Concurrency@@YAXPEAU_PROCESSOR_NUMBER@@@Z 00000001400fe440 f   libconcrtd:Platform.obj
 0001:000fd490       ?__GetLogicalProcessorInformation@platform@details@Concurrency@@YAPEAU_SYSTEM_LOGICAL_PROCESSOR_INFORMATION@@PEAK@Z 00000001400fe490 f   libconcrtd:Platform.obj
 0001:000fd610       ?__GetLogicalProcessorInformationEx@platform@details@Concurrency@@YAPEAU_SYSTEM_LOGICAL_PROCESSOR_INFORMATION_EX@@W4_LOGICAL_PROCESSOR_RELATIONSHIP@@PEAK@Z 00000001400fe610 f   libconcrtd:Platform.obj
 0001:000fd850       ?__GetNumaHighestNodeNumber@platform@details@Concurrency@@YAKXZ 00000001400fe850 f   libconcrtd:Platform.obj
 0001:000fd8a0       ?__GetThreadGroupAffinity@platform@details@Concurrency@@YAHPEAXPEAU_GROUP_AFFINITY@@@Z 00000001400fe8a0 f   libconcrtd:Platform.obj
 0001:000fd980       ?__GetThreadPriority@platform@details@Concurrency@@YAHPEAX@Z 00000001400fe980 f   libconcrtd:Platform.obj
 0001:000fd9a0       ?__GetTickCount64@platform@details@Concurrency@@YA_KXZ 00000001400fe9a0 f   libconcrtd:Platform.obj
 0001:000fd9b0       ?__InitializeCriticalSectionEx@platform@details@Concurrency@@YAHPEAU_RTL_CRITICAL_SECTION@@K@Z 00000001400fe9b0 f   libconcrtd:Platform.obj
 0001:000fd9e0       ?__RegisterWaitForSingleObject@platform@details@Concurrency@@YAPEAXPEAXP6AX0E@Z0@Z 00000001400fe9e0 f   libconcrtd:Platform.obj
 0001:000fda60       ?__SetThreadGroupAffinity@platform@details@Concurrency@@YAHPEAXPEBU_GROUP_AFFINITY@@@Z 00000001400fea60 f   libconcrtd:Platform.obj
 0001:000fdb70       ?__SetThreadPriority@platform@details@Concurrency@@YAXPEAXH@Z 00000001400feb70 f   libconcrtd:Platform.obj
 0001:000fdbc0       ?__SignalObjectAndWait@platform@details@Concurrency@@YAKPEAX0KH@Z 00000001400febc0 f   libconcrtd:Platform.obj
 0001:000fdc00       ?__Sleep@platform@details@Concurrency@@YAXK@Z 00000001400fec00 f   libconcrtd:Platform.obj
 0001:000fdc20       ?__SwitchToThread@platform@details@Concurrency@@YAXXZ 00000001400fec20 f   libconcrtd:Platform.obj
 0001:000fdc30       ?__TlsAlloc@platform@details@Concurrency@@YAKXZ 00000001400fec30 f   libconcrtd:Platform.obj
 0001:000fdc80       ?__TlsFree@platform@details@Concurrency@@YAXK@Z 00000001400fec80 f   libconcrtd:Platform.obj
 0001:000fdca0       ?__TlsGetValue@platform@details@Concurrency@@YAPEAXK@Z 00000001400feca0 f   libconcrtd:Platform.obj
 0001:000fdcc0       ?__TlsSetValue@platform@details@Concurrency@@YAXKPEAX@Z 00000001400fecc0 f   libconcrtd:Platform.obj
 0001:000fdd10       ?__UnregisterWait@platform@details@Concurrency@@YAXPEAX@Z 00000001400fed10 f   libconcrtd:Platform.obj
 0001:000fdd30       ?__WaitForThread@platform@details@Concurrency@@YAKPEAXK@Z 00000001400fed30 f   libconcrtd:Platform.obj
 0001:000fdd60       ?notify@WaiterThread@platform@details@Concurrency@@AEAAX_N@Z 00000001400fed60 f i libconcrtd:Platform.obj
 0001:000fddf0       ?stop@WaiterThread@platform@details@Concurrency@@QEAAXXZ 00000001400fedf0 f i libconcrtd:Platform.obj
 0001:000fde40       _concrt_static_cleanup     00000001400fee40 f   libconcrtd:utils.obj
 0001:000fde60       ?DecodePointer@Security@details@Concurrency@@SAPEAXPEAX@Z 00000001400fee60 f   libconcrtd:utils.obj
 0001:000fde80       ?DeleteAsyncTimerAndUnloadLibrary@details@Concurrency@@YAXPEAU_TP_TIMER@@@Z 00000001400fee80 f   libconcrtd:utils.obj
 0001:000fdf00       ?EncodePointer@Security@details@Concurrency@@SAPEAXPEAX@Z 00000001400fef00 f   libconcrtd:utils.obj
 0001:000fdf50       ?FreeLibraryAndDestroyThread@details@Concurrency@@YAXK@Z 00000001400fef50 f   libconcrtd:utils.obj
 0001:000fdfa0       ?InitializeCookie@Security@details@Concurrency@@SA_KXZ 00000001400fefa0 f   libconcrtd:utils.obj
 0001:000fe060       ?LoadLibraryAndCreateThread@details@Concurrency@@YAPEAXPEAU_SECURITY_ATTRIBUTES@@_KP6AKPEAX@Z2KPEAK@Z 00000001400ff060 f   libconcrtd:utils.obj
 0001:000fe0e0       ?ReferenceLoadLibrary@details@Concurrency@@YAXXZ 00000001400ff0e0 f   libconcrtd:utils.obj
 0001:000fe1b0       ?ReferenceStaticOneShot@SchedulerBase@details@Concurrency@@SAJXZ 00000001400ff1b0 f i libconcrtd:utils.obj
 0001:000fe1d0       ?RegisterAsyncTimerAndLoadLibrary@details@Concurrency@@YAPEAU_TP_TIMER@@KP6AXPEAU_TP_CALLBACK_INSTANCE@@PEAXPEAU3@@Z1_N@Z 00000001400ff1d0 f   libconcrtd:utils.obj
 0001:000fe280       ?RegisterAsyncWaitAndLoadLibrary@details@Concurrency@@YAPEAU_TP_WAIT@@PEAXP6AXPEAU_TP_CALLBACK_INSTANCE@@0PEAU3@K@Z0@Z 00000001400ff280 f   libconcrtd:utils.obj
 0001:000fe2e0       ?UnRegisterAsyncTimerAndUnloadLibrary@details@Concurrency@@YAXPEAU_TP_CALLBACK_INSTANCE@@PEAU_TP_TIMER@@@Z 00000001400ff2e0 f   libconcrtd:utils.obj
 0001:000fe360       ?UnRegisterAsyncWaitAndUnloadLibrary@details@Concurrency@@YAXPEAU_TP_CALLBACK_INSTANCE@@PEAU_TP_WAIT@@@Z 00000001400ff360 f   libconcrtd:utils.obj
 0001:000fe3e0       ?_Acquire@_CriticalNonReentrantLock@details@Concurrency@@QEAAXXZ 00000001400ff3e0 f   libconcrtd:utils.obj
 0001:000fe400       ?_Acquire@_HyperNonReentrantLock@details@Concurrency@@QEAAXXZ 00000001400ff400 f   libconcrtd:utils.obj
 0001:000fe420       ?_Acquire@_NonReentrantLock@details@Concurrency@@QEAAXXZ 00000001400ff420 f i libconcrtd:utils.obj
 0001:000fe440       ?_ConcRT_CoreAssert@details@Concurrency@@YAXPEBD0H@Z 00000001400ff440 f   libconcrtd:utils.obj
 0001:000fe460       ?_Release@_CriticalNonReentrantLock@details@Concurrency@@QEAAXXZ 00000001400ff460 f   libconcrtd:utils.obj
 0001:000fe480       ?_Release@_HyperNonReentrantLock@details@Concurrency@@QEAAXXZ 00000001400ff480 f   libconcrtd:utils.obj
 0001:000fe4a0       ?_Release@_NonReentrantLock@details@Concurrency@@QEAAXXZ 00000001400ff4a0 f i libconcrtd:utils.obj
 0001:000fe4c0       ?_Sleep0@details@Concurrency@@YAXXZ 00000001400ff4c0 f   libconcrtd:utils.obj
 0001:000fe4d0       ?_TryAcquire@_CriticalNonReentrantLock@details@Concurrency@@QEAA_NXZ 00000001400ff4d0 f   libconcrtd:utils.obj
 0001:000fe510       ?_TryAcquire@_NonReentrantLock@details@Concurrency@@QEAA_NXZ 00000001400ff510 f i libconcrtd:utils.obj
 0001:000fe530       ?_UnderlyingYield@details@Concurrency@@YAXXZ 00000001400ff530 f   libconcrtd:utils.obj
 0001:000fe580       fwprintf                   00000001400ff580 f i libconcrtd:utils.obj
 0001:000fe5d0       ??0context_self_unblock@Concurrency@@QEAA@XZ 00000001400ff5d0 f   libconcrtd:Exceptions.obj
 0001:000fe600       ??0context_unblock_unbalanced@Concurrency@@QEAA@XZ 00000001400ff600 f   libconcrtd:Exceptions.obj
 0001:000fe630       ??0improper_lock@Concurrency@@QEAA@PEBD@Z 00000001400ff630 f   libconcrtd:Exceptions.obj
 0001:000fe670       ??0improper_scheduler_attach@Concurrency@@QEAA@XZ 00000001400ff670 f   libconcrtd:Exceptions.obj
 0001:000fe6a0       ??0improper_scheduler_reference@Concurrency@@QEAA@XZ 00000001400ff6a0 f   libconcrtd:Exceptions.obj
 0001:000fe6d0       ??0invalid_oversubscribe_operation@Concurrency@@QEAA@XZ 00000001400ff6d0 f   libconcrtd:Exceptions.obj
 0001:000fe700       ??0invalid_scheduler_policy_key@Concurrency@@QEAA@PEBD@Z 00000001400ff700 f   libconcrtd:Exceptions.obj
 0001:000fe740       ??0invalid_scheduler_policy_thread_specification@Concurrency@@QEAA@XZ 00000001400ff740 f   libconcrtd:Exceptions.obj
 0001:000fe770       ??0invalid_scheduler_policy_value@Concurrency@@QEAA@PEBD@Z 00000001400ff770 f   libconcrtd:Exceptions.obj
 0001:000fe7b0       ??0invalid_scheduler_policy_value@Concurrency@@QEAA@XZ 00000001400ff7b0 f   libconcrtd:Exceptions.obj
 0001:000fe7e0       ??0missing_wait@Concurrency@@QEAA@XZ 00000001400ff7e0 f   libconcrtd:Exceptions.obj
 0001:000fe810       ??0nested_scheduler_missing_detach@Concurrency@@QEAA@XZ 00000001400ff810 f   libconcrtd:Exceptions.obj
 0001:000fe840       ??0scheduler_resource_allocation_error@Concurrency@@QEAA@J@Z 00000001400ff840 f   libconcrtd:Exceptions.obj
 0001:000fe880       ??0scheduler_worker_creation_error@Concurrency@@QEAA@J@Z 00000001400ff880 f   libconcrtd:Exceptions.obj
 0001:000fe8c0       ??0unsupported_os@Concurrency@@QEAA@XZ 00000001400ff8c0 f   libconcrtd:Exceptions.obj
 0001:000fe8f0       ??_Gscheduler_worker_creation_error@Concurrency@@UEAAPEAXI@Z 00000001400ff8f0 f i libconcrtd:Exceptions.obj
 0001:000fe8f0       ??_Escheduler_worker_creation_error@Concurrency@@UEAAPEAXI@Z 00000001400ff8f0 f i libconcrtd:Exceptions.obj
 0001:000fe930       ?Block@Context@Concurrency@@SAXXZ 00000001400ff930 f   libconcrtd:Context.obj
 0001:000fe970       ?CurrentContext@Context@Concurrency@@SAPEAV12@XZ 00000001400ff970 f   libconcrtd:Context.obj
 0001:000fe980       ?GetExecutingCollection@ContextBase@details@Concurrency@@QEAAPEAV_TaskCollectionBase@23@XZ 00000001400ff980 f i libconcrtd:Context.obj
 0001:000fe990       ?_IsStructured@_TaskCollectionBase@details@Concurrency@@QEAA_NXZ 00000001400ff990 f i libconcrtd:Context.obj
 0001:000fe9d0       ??0?$List@VExecutionResource@details@Concurrency@@VCount@CollectionTypes@23@@details@Concurrency@@QEAA@XZ 00000001400ff9d0 f i libconcrtd:ResourceManager.obj
 0001:000fe9d0       ??0?$List@VSchedulerProxy@details@Concurrency@@VCount@CollectionTypes@23@@details@Concurrency@@QEAA@XZ 00000001400ff9d0 f i libconcrtd:ResourceManager.obj
 0001:000fea00       ??0AffinityRestriction@ResourceManager@details@Concurrency@@QEAA@GPEAUHardwareAffinity@23@@Z 00000001400ffa00 f i libconcrtd:ResourceManager.obj
 0001:000fea30       ??0ClaimTicket@VirtualProcessor@details@Concurrency@@QEAA@XZ 00000001400ffa30 f i libconcrtd:SchedulerBase.obj
 0001:000fea30       ??0Count@CollectionTypes@details@Concurrency@@QEAA@XZ 00000001400ffa30 f i libconcrtd:ResourceManager.obj
 0001:000fea30       ??0_NonReentrantLock@details@Concurrency@@QEAA@XZ 00000001400ffa30 f i libconcrtd:SchedulerBase.obj
 0001:000fea50       ??0HardwareAffinity@details@Concurrency@@QEAA@AEBU012@@Z 00000001400ffa50 f i libconcrtd:ResourceManager.obj
 0001:000fea80       ??0HardwareAffinity@details@Concurrency@@QEAA@G_K@Z 00000001400ffa80 f i libconcrtd:ResourceManager.obj
 0001:000fead0       ??0HardwareAffinity@details@Concurrency@@QEAA@PEAX@Z 00000001400ffad0 f   libconcrtd:ResourceManager.obj
 0001:000feb10       ??0HardwareAffinity@details@Concurrency@@QEAA@XZ 00000001400ffb10 f i libconcrtd:ResourceManager.obj
 0001:000feb50       ??0HardwareAffinity@details@Concurrency@@QEAA@_K@Z 00000001400ffb50 f i libconcrtd:ResourceManager.obj
 0001:000feba0       ??0IResourceManager@Concurrency@@QEAA@XZ 00000001400ffba0 f i libconcrtd:ResourceManager.obj
 0001:000febc0       ??0ITopologyExecutionResource@Concurrency@@QEAA@XZ 00000001400ffbc0 f i libconcrtd:ResourceManager.obj
 0001:000febe0       ??0ITopologyNode@Concurrency@@QEAA@XZ 00000001400ffbe0 f i libconcrtd:ResourceManager.obj
 0001:000fec00       ??0ResourceManager@details@Concurrency@@AEAA@XZ 00000001400ffc00 f   libconcrtd:ResourceManager.obj
 0001:000fee60       ??0SchedulerCore@details@Concurrency@@QEAA@XZ 00000001400ffe60 f i libconcrtd:ResourceManager.obj
 0001:000fee90       ??0TopologyObject@GlobalCore@details@Concurrency@@QEAA@PEAU123@@Z 00000001400ffe90 f i libconcrtd:ResourceManager.obj
 0001:000feed0       ??0TopologyObject@GlobalNode@details@Concurrency@@QEAA@PEAU123@@Z 00000001400ffed0 f i libconcrtd:ResourceManager.obj
 0001:000fef10       ??0_Scoped_lock@_ReentrantBlockingLock@details@Concurrency@@QEAA@AEAV123@@Z 00000001400fff10 f i libconcrtd:SchedulerProxy.obj
 0001:000fef10       ??0_Scoped_lock@_NonReentrantBlockingLock@details@Concurrency@@QEAA@AEAV123@@Z 00000001400fff10 f i libconcrtd:ResourceManager.obj
 0001:000fef50       ??0_Scoped_lock@_NonReentrantLock@details@Concurrency@@QEAA@AEAV123@@Z 00000001400fff50 f i libconcrtd:ResourceManager.obj
 0001:000fef90       ??0invalid_operation@Concurrency@@QEAA@AEBV01@@Z 00000001400fff90 f i libconcrtd:ResourceManager.obj
 0001:000fefd0       ??0invalid_operation@Concurrency@@QEAA@XZ 00000001400fffd0 f i libconcrtd:ResourceManager.obj
 0001:000ff000       ??0unsupported_os@Concurrency@@QEAA@AEBV01@@Z 0000000140100000 f i libconcrtd:ResourceManager.obj
 0001:000ff040       ??1AffinityRestriction@ResourceManager@details@Concurrency@@QEAA@XZ 0000000140100040 f i libconcrtd:ResourceManager.obj
 0001:000ff070       ??1GlobalNode@details@Concurrency@@QEAA@XZ 0000000140100070 f i libconcrtd:ResourceManager.obj
 0001:000ff0a0       ??1ResourceManager@details@Concurrency@@AEAA@XZ 00000001401000a0 f   libconcrtd:ResourceManager.obj
 0001:000ff320       ??1_Scoped_lock@_NonReentrantBlockingLock@details@Concurrency@@QEAA@XZ 0000000140100320 f i libconcrtd:ResourceManager.obj
 0001:000ff320       ??1_Scoped_lock@_ReentrantBlockingLock@details@Concurrency@@QEAA@XZ 0000000140100320 f i libconcrtd:SchedulerProxy.obj
 0001:000ff340       ??1_Scoped_lock@_NonReentrantLock@details@Concurrency@@QEAA@XZ 0000000140100340 f i libconcrtd:ResourceManager.obj
 0001:000ff360       ??4HardwareAffinity@details@Concurrency@@QEAAAEAU012@AEBU012@@Z 0000000140100360 f i libconcrtd:ResourceManager.obj
 0001:000ff3a0       ??_EGlobalNode@details@Concurrency@@QEAAPEAXI@Z 00000001401003a0 f i libconcrtd:ResourceManager.obj
 0001:000ff440       ??_GAffinityRestriction@ResourceManager@details@Concurrency@@QEAAPEAXI@Z 0000000140100440 f i libconcrtd:ResourceManager.obj
 0001:000ff480       ??_GResourceManager@details@Concurrency@@AEAAPEAXI@Z 0000000140100480 f i libconcrtd:ResourceManager.obj
 0001:000ff4c0       ??_V@YAXPEAXV_ConcRTNewMoniker@@PEBDH@Z 00000001401004c0 f i libconcrtd:ResourceManager.obj
 0001:000ff4f0       ?AddTail@?$List@VSchedulerProxy@details@Concurrency@@VCount@CollectionTypes@23@@details@Concurrency@@QEAAXPEAVSchedulerProxy@23@@Z 00000001401004f0 f i libconcrtd:ResourceManager.obj
 0001:000ff5f0       ?AdjustDynamicAllocation@ResourceManager@details@Concurrency@@AEAAIIII@Z 00000001401005f0 f   libconcrtd:ResourceManager.obj
 0001:000ff7c0       ?ApplyAffinityLimits@AffinityRestriction@ResourceManager@details@Concurrency@@QEAAXPEAU_GROUP_AFFINITY@@@Z 00000001401007c0 f i libconcrtd:ResourceManager.obj
 0001:000ff840       ?ApplyAffinityRestrictions@ResourceManager@details@Concurrency@@CAXPEAU_GROUP_AFFINITY@@@Z 0000000140100840 f   libconcrtd:ResourceManager.obj
 0001:000ff8f0       ?ApplyAffinityRestrictions@ResourceManager@details@Concurrency@@CAXPEA_K@Z 00000001401008f0 f   libconcrtd:ResourceManager.obj
 0001:000ff960       ?ApplyTo@HardwareAffinity@details@Concurrency@@QEAAXPEAX@Z 0000000140100960 f   libconcrtd:ResourceManager.obj
 0001:000ff990       ?CaptureProcessAffinity@ResourceManager@details@Concurrency@@CAXXZ 0000000140100990 f   libconcrtd:ResourceManager.obj
 0001:000ffd00       ?CleanupTopologyInformation@ResourceManager@details@Concurrency@@CAXXZ 0000000140100d00 f   libconcrtd:ResourceManager.obj
 0001:000ffd30       ?CommitStolenCores@ResourceManager@details@Concurrency@@AEAAXPEAVSchedulerProxy@23@@Z 0000000140100d30 f   libconcrtd:ResourceManager.obj
 0001:00100070       ?ComputeDesiredHWThreadsWithExternalThread@SchedulerProxy@details@Concurrency@@QEBAIXZ 0000000140101070 f i libconcrtd:ResourceManager.obj
 0001:001000d0       ?ComputeMinHWThreadsWithExternalThread@SchedulerProxy@details@Concurrency@@QEBAIXZ 00000001401010d0 f i libconcrtd:ResourceManager.obj
 0001:00100130       ?Count@?$List@VExecutionResource@details@Concurrency@@VCount@CollectionTypes@23@@details@Concurrency@@QEBAHXZ 0000000140101130 f i libconcrtd:ResourceManager.obj
 0001:00100150       ?CreateAllocatedNodeData@ResourceManager@details@Concurrency@@QEAAPEAUSchedulerNode@23@XZ 0000000140101150 f   libconcrtd:ResourceManager.obj
 0001:00100410       ?CreateDynamicRMWorker@ResourceManager@details@Concurrency@@AEAAXXZ 0000000140101410 f   libconcrtd:ResourceManager.obj
 0001:001004a0       ?CreateNodeTopology@ResourceManager@details@Concurrency@@UEAAXIPEAIPEAPEAI0@Z 00000001401014a0 f   libconcrtd:ResourceManager.obj
 0001:00100910       ?CreateResourceManager@Concurrency@@YAPEAUIResourceManager@1@XZ 0000000140101910 f   libconcrtd:ResourceManager.obj
 0001:00100920       ?CreateSchedulerProxy@ResourceManager@details@Concurrency@@AEAAPEAVSchedulerProxy@23@PEAUIScheduler@3@@Z 0000000140101920 f   libconcrtd:ResourceManager.obj
 0001:00100a00       ?CreateSingleton@ResourceManager@details@Concurrency@@SAPEAV123@XZ 0000000140101a00 f   libconcrtd:ResourceManager.obj
 0001:00100b70       ?CurrentSubscriptionLevel@ResourceManager@details@Concurrency@@QEAAIII@Z 0000000140101b70 f   libconcrtd:ResourceManager.obj
 0001:00100c50       ?Decrement@Count@CollectionTypes@details@Concurrency@@QEAAXXZ 0000000140101c50 f i libconcrtd:ResourceManager.obj
 0001:00100c70       ?DesiredHWThreads@SchedulerProxy@details@Concurrency@@QEBAIXZ 0000000140101c70 f i libconcrtd:ResourceManager.obj
 0001:00100d40       ?DestroyAllocatedNodeData@ResourceManager@details@Concurrency@@QEAAXPEAUSchedulerNode@23@@Z 0000000140101d40 f   libconcrtd:ResourceManager.obj
 0001:00100db0       ?DetermineTopology@ResourceManager@details@Concurrency@@AEAAXXZ 0000000140101db0 f   libconcrtd:ResourceManager.obj
 0001:00101a00       ?DiscardExistingSchedulerStatistics@ResourceManager@details@Concurrency@@AEAAXXZ 0000000140102a00 f   libconcrtd:ResourceManager.obj
 0001:00101b90       ?DistributeCoresToSurvivingScheduler@ResourceManager@details@Concurrency@@AEAA_NXZ 0000000140102b90 f   libconcrtd:ResourceManager.obj
 0001:001021d0       ?DistributeExclusiveCores@ResourceManager@details@Concurrency@@AEAAXIIIII@Z 00000001401031d0 f   libconcrtd:ResourceManager.obj
 0001:00102550       ?DistributeIdleCores@ResourceManager@details@Concurrency@@AEAAXII@Z 0000000140103550 f   libconcrtd:ResourceManager.obj
 0001:001029f0       ?DoCoreMigration@ResourceManager@details@Concurrency@@AEAAXXZ 00000001401039f0 f   libconcrtd:ResourceManager.obj
 0001:00103610       ?DoHillClimbing@SchedulerProxy@details@Concurrency@@QEAAIIIII@Z 0000000140104610 f i libconcrtd:ResourceManager.obj
 0001:00103660       ?DynamicAssignCores@ResourceManager@details@Concurrency@@AEAAXPEAVSchedulerProxy@23@II_N@Z 0000000140104660 f   libconcrtd:ResourceManager.obj
 0001:00103950       ?DynamicMigrateCores@ResourceManager@details@Concurrency@@AEAAXPEAUDynamicAllocationData@23@PEAVSchedulerProxy@23@II@Z 0000000140104950 f   libconcrtd:ResourceManager.obj
 0001:00104120       ?DynamicRMThreadProc@ResourceManager@details@Concurrency@@CAKPEAX@Z 0000000140105120 f   libconcrtd:ResourceManager.obj
 0001:00104150       ?DynamicResourceManager@ResourceManager@details@Concurrency@@AEAAXXZ 0000000140105150 f   libconcrtd:ResourceManager.obj
 0001:00104400       ?Empty@?$List@VSchedulerProxy@details@Concurrency@@VCount@CollectionTypes@23@@details@Concurrency@@QEBA_NXZ 0000000140105400 f i libconcrtd:ResourceManager.obj
 0001:00104430       ?FindBestFitExclusiveAllocation@ResourceManager@details@Concurrency@@AEAAIAEAI0PEAUDynamicAllocationData@23@II@Z 0000000140105430 f   libconcrtd:ResourceManager.obj
 0001:00105720       ?FindBestFitIdleAllocation@ResourceManager@details@Concurrency@@AEAAIIPEAUDynamicAllocationData@23@I@Z 0000000140106720 f   libconcrtd:ResourceManager.obj
 0001:00105d70       ?FindCoreForPartiallyFilledNode@ResourceManager@details@Concurrency@@AEAA_NAEAI0PEAUDynamicAllocationData@23@I@Z 0000000140106d70 f   libconcrtd:ResourceManager.obj
 0001:001061d0       ?FindGroupAffinity@AffinityRestriction@ResourceManager@details@Concurrency@@QEAAPEAUHardwareAffinity@34@G@Z 00000001401071d0 f i libconcrtd:ResourceManager.obj
 0001:00106250       ?First@?$List@VSchedulerProxy@details@Concurrency@@VCount@CollectionTypes@23@@details@Concurrency@@QEBAPEAVSchedulerProxy@23@XZ 0000000140107250 f i libconcrtd:ResourceManager.obj
 0001:00106290       ?FlushStoreBuffers@ResourceManager@details@Concurrency@@QEAAXXZ 0000000140107290 f   libconcrtd:ResourceManager.obj
 0001:001063f0       ?GetAvailableNodeCount@ResourceManager@details@Concurrency@@UEBAIXZ 00000001401073f0 f i libconcrtd:ResourceManager.obj
 0001:001063f0       ?GetNumberOfVirtualProcessors@SchedulerBase@details@Concurrency@@UEBAIXZ 00000001401073f0 f i libconcrtd:SchedulerBase.obj
 0001:00106400       ?GetCoreCount@ResourceManager@details@Concurrency@@SAIXZ 0000000140107400 f   libconcrtd:ResourceManager.obj
 0001:00106450       ?GetCurrentNodeAndCore@ResourceManager@details@Concurrency@@QEAAIPEAI@Z 0000000140107450 f   libconcrtd:ResourceManager.obj
 0001:00106760       ?GetStaticAllocationData@SchedulerProxy@details@Concurrency@@QEAAPEAUStaticAllocationData@23@XZ 0000000140107760 f i libconcrtd:ResourceManager.obj
 0001:00106760       ?GetDynamicAllocationData@SchedulerProxy@details@Concurrency@@QEAAPEAUDynamicAllocationData@23@XZ 0000000140107760 f i libconcrtd:ResourceManager.obj
 0001:00106770       ?GetExecutionResourceCount@TopologyObject@GlobalNode@details@Concurrency@@UEBAIXZ 0000000140107770 f i libconcrtd:ResourceManager.obj
 0001:00106790       ?GetFirstExecutionResource@TopologyObject@GlobalNode@details@Concurrency@@UEBAPEAUITopologyExecutionResource@4@XZ 0000000140107790 f i libconcrtd:ResourceManager.obj
 0001:001067b0       ?GetFirstNode@ResourceManager@details@Concurrency@@UEBAPEAUITopologyNode@3@XZ 00000001401077b0 f i libconcrtd:ResourceManager.obj
 0001:001067d0       ?GetGroup@HardwareAffinity@details@Concurrency@@QEAAGXZ 00000001401077d0 f i libconcrtd:ResourceManager.obj
 0001:001067e0       ?GetId@TopologyObject@GlobalCore@details@Concurrency@@UEBAIXZ 00000001401077e0 f i libconcrtd:ResourceManager.obj
 0001:00106800       ?GetId@TopologyObject@GlobalNode@details@Concurrency@@UEBAIXZ 0000000140107800 f i libconcrtd:ResourceManager.obj
 0001:00106820       ?GetNext@TopologyObject@GlobalCore@details@Concurrency@@UEBAPEAUITopologyExecutionResource@4@XZ 0000000140107820 f   libconcrtd:ResourceManager.obj
 0001:00106880       ?GetNext@TopologyObject@GlobalNode@details@Concurrency@@UEBAPEAUITopologyNode@4@XZ 0000000140107880 f   libconcrtd:ResourceManager.obj
 0001:001068e0       ?GetNextGlobalCore@GlobalNode@details@Concurrency@@QEAAPEAUGlobalCore@23@PEBU423@@Z 00000001401078e0 f i libconcrtd:ResourceManager.obj
 0001:00106950       ?GetNextGlobalNode@ResourceManager@details@Concurrency@@QEAAPEAUGlobalNode@23@PEBU423@@Z 0000000140107950 f i libconcrtd:ResourceManager.obj
 0001:001069c0       ?GetNodeCount@ResourceManager@details@Concurrency@@SAIXZ 00000001401079c0 f   libconcrtd:ResourceManager.obj
 0001:00106a10       ?GetNumAllocatedCores@SchedulerProxy@details@Concurrency@@QEBAIXZ 0000000140107a10 f i libconcrtd:ResourceManager.obj
 0001:00106a10       ?GetExecutionResourceId@VirtualProcessor@details@Concurrency@@QEBAIXZ 0000000140107a10 f i libconcrtd:SchedulingNode.obj
 0001:00106a30       ?GetStackSize@ThreadProxy@details@Concurrency@@QEAAIXZ 0000000140107a30 f i libconcrtd:ThreadProxyFactoryManager.obj
 0001:00106a30       ?GetNumBorrowedCores@SchedulerNode@details@Concurrency@@QEAAIXZ 0000000140107a30 f i libconcrtd:ResourceManager.obj
 0001:00106a40       ?GetNumBorrowedCores@SchedulerProxy@details@Concurrency@@QEBAIXZ 0000000140107a40 f i libconcrtd:ResourceManager.obj
 0001:00106a60       ?GetNumBorrowedIdleCores@SchedulerNode@details@Concurrency@@QEAAIXZ 0000000140107a60 f i libconcrtd:ResourceManager.obj
 0001:00106a70       ?GetNumBorrowedInUseCores@SchedulerNode@details@Concurrency@@QEAAIXZ 0000000140107a70 f i libconcrtd:ResourceManager.obj
 0001:00106af0       ?GetNumExternalThreads@SchedulerProxy@details@Concurrency@@QEAAIXZ 0000000140107af0 f i libconcrtd:ResourceManager.obj
 0001:00106b10       ?GetNumMigratableCores@SchedulerNode@details@Concurrency@@QEAAIXZ 0000000140107b10 f i libconcrtd:ResourceManager.obj
 0001:00106b30       ?GetNumNestedThreadSubscriptions@SchedulerProxy@details@Concurrency@@QEAAIXZ 0000000140107b30 f i libconcrtd:ResourceManager.obj
 0001:00106b60       ?GetNumOwnedCores@SchedulerProxy@details@Concurrency@@QEBAIXZ 0000000140107b60 f i libconcrtd:ResourceManager.obj
 0001:00106b80       ?GetNumOwnedMigratableCores@SchedulerNode@details@Concurrency@@QEAAIXZ 0000000140107b80 f i libconcrtd:ResourceManager.obj
 0001:00106ba0       ?GetNumaNode@TopologyObject@GlobalNode@details@Concurrency@@UEBAKXZ 0000000140107ba0 f i libconcrtd:ResourceManager.obj
 0001:00106bc0       ?GetOSVersion@Concurrency@@YA?AW4OSVersion@IResourceManager@1@XZ 0000000140107bc0 f   libconcrtd:ResourceManager.obj
 0001:00106bd0       ?GetProcessorCount@Concurrency@@YAIXZ 0000000140107bd0 f   libconcrtd:ResourceManager.obj
 0001:00106be0       ?GetProcessorNodeCount@Concurrency@@YAIXZ 0000000140107be0 f   libconcrtd:ResourceManager.obj
 0001:00106bf0       ?GetQueueLength@SchedulerProxy@details@Concurrency@@QEAAIXZ 0000000140107bf0 f i libconcrtd:ResourceManager.obj
 0001:00106c10       ?GetSchedulerId@Concurrency@@YAIXZ 0000000140107c10 f   libconcrtd:ResourceManager.obj
 0001:00106c20       ?GetSchedulerId@ResourceManager@details@Concurrency@@SAIXZ 0000000140107c20 f i libconcrtd:ResourceManager.obj
 0001:00106c40       ?GetSortedNodeOrder@SchedulerProxy@details@Concurrency@@QEBAPEAIXZ 0000000140107c40 f i libconcrtd:ResourceManager.obj
 0001:00106c50       ?GetTopologyInformation@ResourceManager@details@Concurrency@@CAXW4_LOGICAL_PROCESSOR_RELATIONSHIP@@@Z 0000000140107c50 f   libconcrtd:ResourceManager.obj
 0001:00106d40       ?HandleBorrowedCores@ResourceManager@details@Concurrency@@AEAAXPEAVSchedulerProxy@23@PEAUAllocationData@23@@Z 0000000140107d40 f   libconcrtd:ResourceManager.obj
 0001:00107120       ?HandleSharedCores@ResourceManager@details@Concurrency@@AEAAXPEAVSchedulerProxy@23@PEAUDynamicAllocationData@23@@Z 0000000140108120 f   libconcrtd:ResourceManager.obj
 0001:00107600       ?IncreaseFullyLoadedSchedulerAllocations@ResourceManager@details@Concurrency@@AEAAXXZ 0000000140108600 f   libconcrtd:ResourceManager.obj
 0001:00107740       ?Increment@Count@CollectionTypes@details@Concurrency@@QEAAXXZ 0000000140108740 f i libconcrtd:ResourceManager.obj
 0001:00107760       ?Initialize@GlobalCore@details@Concurrency@@QEAAXPEAUGlobalNode@23@IE@Z 0000000140108760 f i libconcrtd:ResourceManager.obj
 0001:00107820       ?Initialize@GlobalNode@details@Concurrency@@QEAAXPEAVResourceManager@23@GG_KII@Z 0000000140108820 f i libconcrtd:ResourceManager.obj
 0001:00107ba0       ?Initialize@GlobalNumaNode@details@Concurrency@@QEAAXKG_K@Z 0000000140108ba0 f i libconcrtd:ResourceManager.obj
 0001:00107be0       ?InitializeRMBuffers@ResourceManager@details@Concurrency@@AEAAXXZ 0000000140108be0 f   libconcrtd:ResourceManager.obj
 0001:00107f00       ?InitializeSystemInformation@ResourceManager@details@Concurrency@@CAX_N@Z 0000000140108f00 f   libconcrtd:ResourceManager.obj
 0001:001086c0       ?IsBorrowed@SchedulerCore@details@Concurrency@@QEAA_NXZ 00000001401096c0 f i libconcrtd:ResourceManager.obj
 0001:001086d0       ?IsFixed@SchedulerCore@details@Concurrency@@QEAA_NXZ 00000001401096d0 f i libconcrtd:ResourceManager.obj
 0001:00108700       ?IsHillClimbingEnabled@SchedulerProxy@details@Concurrency@@QEAA_NXZ 0000000140109700 f i libconcrtd:ResourceManager.obj
 0001:00108720       ?IsIdle@SchedulerCore@details@Concurrency@@QEAA_NXZ 0000000140109720 f i libconcrtd:ResourceManager.obj
 0001:00108730       ?MinHWThreads@SchedulerProxy@details@Concurrency@@QEBAIXZ 0000000140109730 f i libconcrtd:ResourceManager.obj
 0001:001087c0       ?MinVprocHWThreads@SchedulerProxy@details@Concurrency@@QEBAIXZ 00000001401097c0 f i libconcrtd:ResourceManager.obj
 0001:00108880       ?Next@?$List@VSchedulerProxy@details@Concurrency@@VCount@CollectionTypes@23@@details@Concurrency@@QEBAPEAVSchedulerProxy@23@PEAV423@@Z 0000000140109880 f i libconcrtd:ResourceManager.obj
 0001:001088c0       ?NumberOfBitsSet@details@Concurrency@@YAG_K@Z 00000001401098c0 f i libconcrtd:ResourceManager.obj
 0001:00108910       ?PerformAllocation@ResourceManager@details@Concurrency@@QEAAPEAVExecutionResource@23@PEAVSchedulerProxy@23@_N1@Z 0000000140109910 f   libconcrtd:ResourceManager.obj
 0001:001090f0       ?PopulateCommonAllocationData@ResourceManager@details@Concurrency@@AEAAXIPEAVSchedulerProxy@23@PEAUAllocationData@23@@Z 000000014010a0f0 f   libconcrtd:ResourceManager.obj
 0001:00109290       ?PopulateDynamicAllocationData@ResourceManager@details@Concurrency@@AEAAXXZ 000000014010a290 f   libconcrtd:ResourceManager.obj
 0001:001096c0       ?PreProcessDynamicAllocationData@ResourceManager@details@Concurrency@@AEAAXXZ 000000014010a6c0 f   libconcrtd:ResourceManager.obj
 0001:00109a30       ?PreProcessStaticAllocationData@ResourceManager@details@Concurrency@@AEAAXXZ 000000014010aa30 f   libconcrtd:ResourceManager.obj
 0001:00109b20       ?PrepareReceiversForCoreTransfer@ResourceManager@details@Concurrency@@AEAAII@Z 000000014010ab20 f   libconcrtd:ResourceManager.obj
 0001:0010a160       ?RedistributeCoresAmongAll@ResourceManager@details@Concurrency@@AEAAIPEAVSchedulerProxy@23@III@Z 000000014010b160 f   libconcrtd:ResourceManager.obj
 0001:0010afa0       ?Reference@ResourceManager@details@Concurrency@@UEAAIXZ 000000014010bfa0 f   libconcrtd:ResourceManager.obj
 0001:0010afc0       ?RegisterScheduler@ResourceManager@details@Concurrency@@UEAAPEAUISchedulerProxy@3@PEAUIScheduler@3@I@Z 000000014010bfc0 f   libconcrtd:ResourceManager.obj
 0001:0010b040       ?Release@ResourceManager@details@Concurrency@@UEAAIXZ 000000014010c040 f   libconcrtd:ResourceManager.obj
 0001:0010b1e0       ?ReleaseCoresOnExistingSchedulers@ResourceManager@details@Concurrency@@AEAAIPEAVSchedulerProxy@23@II@Z 000000014010c1e0 f   libconcrtd:ResourceManager.obj
 0001:0010b3c0       ?ReleaseSchedulerResources@ResourceManager@details@Concurrency@@AEAA_NPEAVSchedulerProxy@23@0I@Z 000000014010c3c0 f   libconcrtd:ResourceManager.obj
 0001:0010bc50       ?Remove@?$List@VSchedulerProxy@details@Concurrency@@VCount@CollectionTypes@23@@details@Concurrency@@QEAAXPEAVSchedulerProxy@23@@Z 000000014010cc50 f i libconcrtd:ResourceManager.obj
 0001:0010bd50       ?RemoveExecutionResource@ResourceManager@details@Concurrency@@QEAAXPEAVExecutionResource@23@@Z 000000014010cd50 f   libconcrtd:ResourceManager.obj
 0001:0010be50       ?RequestInitialVirtualProcessors@ResourceManager@details@Concurrency@@QEAAPEAUIExecutionResource@3@PEAVSchedulerProxy@23@_N@Z 000000014010ce50 f   libconcrtd:ResourceManager.obj
 0001:0010c230       ?ReserveAtHigherUseCounts@ResourceManager@details@Concurrency@@AEAAIPEAVSchedulerProxy@23@I@Z 000000014010d230 f   libconcrtd:ResourceManager.obj
 0001:0010c2b0       ?ReserveCores@ResourceManager@details@Concurrency@@AEAAIPEAVSchedulerProxy@23@II@Z 000000014010d2b0 f   libconcrtd:ResourceManager.obj
 0001:0010c880       ?ResetGlobalAllocationData@ResourceManager@details@Concurrency@@AEAAXXZ 000000014010d880 f   libconcrtd:ResourceManager.obj
 0001:0010c940       ?RetrieveSystemVersionInformation@ResourceManager@details@Concurrency@@CAXXZ 000000014010d940 f   libconcrtd:ResourceManager.obj
 0001:0010ca90       ?RoundUpScaledAllocations@ResourceManager@details@Concurrency@@CAXPEAPEAUAllocationData@23@II@Z 000000014010da90 f   libconcrtd:ResourceManager.obj
 0001:0010d220       ?SafeInterlockedIncrement@details@Concurrency@@YA_NPECJ@Z 000000014010e220 f i libconcrtd:ResourceManager.obj
 0001:0010d270       ?SafeReference@ResourceManager@details@Concurrency@@AEAA_NXZ 000000014010e270 f   libconcrtd:ResourceManager.obj
 0001:0010d290       ?SchedulersNeedNotifications@ResourceManager@details@Concurrency@@QEAA_NXZ 000000014010e290 f i libconcrtd:ResourceManager.obj
 0001:0010d2c0       ?SendResourceNotifications@ResourceManager@details@Concurrency@@QEAAXPEAVSchedulerProxy@23@@Z 000000014010e2c0 f   libconcrtd:ResourceManager.obj
 0001:0010d700       ?SetAllocatedNodes@SchedulerProxy@details@Concurrency@@QEAAXPEAUSchedulerNode@23@@Z 000000014010e700 f i libconcrtd:ResourceManager.obj
 0001:0010d780       ?SetQueueLength@SchedulerProxy@details@Concurrency@@QEAAXI@Z 000000014010e780 f i libconcrtd:ResourceManager.obj
 0001:0010d7a0       ?SetupStaticAllocationData@ResourceManager@details@Concurrency@@AEAAXPEAVSchedulerProxy@23@_N@Z 000000014010e7a0 f   libconcrtd:ResourceManager.obj
 0001:0010d980       ?ShouldReceiveNotifications@SchedulerProxy@details@Concurrency@@QEAA_NXZ 000000014010e980 f i libconcrtd:ResourceManager.obj
 0001:0010d9c0       ?Shutdown@ResourceManager@details@Concurrency@@QEAAXPEAVSchedulerProxy@23@@Z 000000014010e9c0 f   libconcrtd:ResourceManager.obj
 0001:0010dc50       ?SubscribeCurrentThread@ResourceManager@details@Concurrency@@QEAAPEAVExecutionResource@23@PEAVSchedulerProxy@23@@Z 000000014010ec50 f   libconcrtd:ResourceManager.obj
 0001:0010dcd0       ?ToggleRMIdleState@ResourceManager@details@Concurrency@@AEAAXPEAUSchedulerNode@23@PEAUSchedulerCore@23@PEAUGlobalNode@23@PEAUGlobalCore@23@PEAUAllocationData@23@@Z 000000014010ecd0 f   libconcrtd:ResourceManager.obj
 0001:0010ded0       ?ValidateBorrowedCores@ResourceManager@details@Concurrency@@AEAAXXZ 000000014010eed0 f   libconcrtd:ResourceManager.obj
 0001:0010e030       ?ValidateDRMSchedulerState@ResourceManager@details@Concurrency@@AEAAXXZ 000000014010f030 f   libconcrtd:ResourceManager.obj
 0001:0010e0d0       ?ValidateStaticSchedulerState@ResourceManager@details@Concurrency@@AEAAXPEAVSchedulerProxy@23@@Z 000000014010f0d0 f   libconcrtd:ResourceManager.obj
 0001:0010e1e0       ?Version@ResourceManager@details@Concurrency@@SA?AW4OSVersion@IResourceManager@3@XZ 000000014010f1e0 f   libconcrtd:ResourceManager.obj
 0001:0010e230       ?WakeupDynamicRMWorker@ResourceManager@details@Concurrency@@QEAAXXZ 000000014010f230 f i libconcrtd:ResourceManager.obj
 0001:0010e250       ??$_InternalDeleteHelper@VExternalContextBase@details@Concurrency@@@details@Concurrency@@YAXPEAVExternalContextBase@01@@Z 000000014010f250 f i libconcrtd:SchedulerBase.obj
 0001:0010e2b0       ??$_InternalDeleteHelper@VExternalStatistics@details@Concurrency@@@details@Concurrency@@YAXPEAVExternalStatistics@01@@Z 000000014010f2b0 f i libconcrtd:SchedulerBase.obj
 0001:0010e2e0       ??$_InternalDeleteHelper@VInternalContextBase@details@Concurrency@@@details@Concurrency@@YAXPEAVInternalContextBase@01@@Z 000000014010f2e0 f i libconcrtd:SchedulerBase.obj
 0001:0010e350       ??$_InternalDeleteHelper@VScheduleGroupBase@details@Concurrency@@@details@Concurrency@@YAXPEAVScheduleGroupBase@01@@Z 000000014010f350 f i libconcrtd:SchedulerBase.obj
 0001:0010e3b0       ??0?$Hash@PEAV_TaskCollection@details@Concurrency@@PEAV123@@details@Concurrency@@QEAA@H@Z 000000014010f3b0 f i libconcrtd:ContextBase.obj
 0001:0010e3b0       ??0?$Hash@II@details@Concurrency@@QEAA@H@Z 000000014010f3b0 f i libconcrtd:SchedulerBase.obj
 0001:0010e450       ??0?$ListArray@VExternalStatistics@details@Concurrency@@@details@Concurrency@@QEAA@PEAVSchedulerBase@12@HH@Z 000000014010f450 f i libconcrtd:SchedulerBase.obj
 0001:0010e450       ??0?$ListArray@VScheduleGroupBase@details@Concurrency@@@details@Concurrency@@QEAA@PEAVSchedulerBase@12@HH@Z 000000014010f450 f i libconcrtd:SchedulerBase.obj
 0001:0010e450       ??0?$ListArray@U?$ListArrayInlineLink@VWorkQueue@details@Concurrency@@@details@Concurrency@@@details@Concurrency@@QEAA@PEAVSchedulerBase@12@HH@Z 000000014010f450 f i libconcrtd:ScheduleGroupBase.obj
 0001:0010e450       ??0?$ListArray@VWorkQueue@details@Concurrency@@@details@Concurrency@@QEAA@PEAVSchedulerBase@12@HH@Z 000000014010f450 f i libconcrtd:ScheduleGroupBase.obj
 0001:0010e450       ??0?$ListArray@VVirtualProcessor@details@Concurrency@@@details@Concurrency@@QEAA@PEAVSchedulerBase@12@HH@Z 000000014010f450 f i libconcrtd:SchedulingNode.obj
 0001:0010e450       ??0?$ListArray@VScheduleGroupSegmentBase@details@Concurrency@@@details@Concurrency@@QEAA@PEAVSchedulerBase@12@HH@Z 000000014010f450 f i libconcrtd:SchedulingRing.obj
 0001:0010e780       ??0?$LockFreeStack@VFreeThreadProxy@details@Concurrency@@@details@Concurrency@@QEAA@XZ 000000014010f780 f i libconcrtd:ThreadProxyFactoryManager.obj
 0001:0010e780       ??0?$LockFreeStack@VSubAllocator@details@Concurrency@@@details@Concurrency@@QEAA@XZ 000000014010f780 f i libconcrtd:staticinits.obj
 0001:0010e780       ??0?$LockFreeStack@VExternalContextBase@details@Concurrency@@@details@Concurrency@@QEAA@XZ 000000014010f780 f i libconcrtd:SchedulerBase.obj
 0001:0010e780       ??0?$LockFreeStack@VRealizedChore@details@Concurrency@@@details@Concurrency@@QEAA@XZ 000000014010f780 f i libconcrtd:SchedulerBase.obj
 0001:0010e780       ??0?$LockFreeStack@VInternalContextBase@details@Concurrency@@@details@Concurrency@@QEAA@XZ 000000014010f780 f i libconcrtd:SchedulerBase.obj
 0001:0010e7b0       ??0?$SQueue@VSafePointInvocation@details@Concurrency@@@details@Concurrency@@QEAA@XZ 000000014010f7b0 f i libconcrtd:SchedulerBase.obj
 0001:0010e7b0       ??0?$SQueue@VInternalContextBase@details@Concurrency@@@details@Concurrency@@QEAA@XZ 000000014010f7b0 f i libconcrtd:SchedulerBase.obj
 0001:0010e7b0       ??0?$SQueue@VRealizedChore@details@Concurrency@@@details@Concurrency@@QEAA@XZ 000000014010f7b0 f i libconcrtd:ScheduleGroupBase.obj
 0001:0010e7e0       ??0?$SafeRWList@UListEntry@details@Concurrency@@VNoCount@CollectionTypes@23@V_ReaderWriterLock@23@@details@Concurrency@@QEAA@XZ 000000014010f7e0 f i libconcrtd:ContextBase.obj
 0001:0010e7e0       ??0?$SafeRWList@VWaitNode@SchedulerBase@details@Concurrency@@VNoCount@CollectionTypes@34@V_ReaderWriterLock@34@@details@Concurrency@@QEAA@XZ 000000014010f7e0 f i libconcrtd:SchedulerBase.obj
 0001:0010e7e0       ??0?$SafeRWList@UBoostedObject@details@Concurrency@@VNoCount@CollectionTypes@23@V_ReaderWriterLock@23@@details@Concurrency@@QEAA@XZ 000000014010f7e0 f i libconcrtd:SchedulerBase.obj
 0001:0010e810       ??0?$SafeSQueue@VSafePointInvocation@details@Concurrency@@V_HyperNonReentrantLock@23@@details@Concurrency@@QEAA@XZ 000000014010f810 f i libconcrtd:SchedulerBase.obj
 0001:0010e810       ??0?$SafeSQueue@VInternalContextBase@details@Concurrency@@V_HyperNonReentrantLock@23@@details@Concurrency@@QEAA@XZ 000000014010f810 f i libconcrtd:SchedulerBase.obj
 0001:0010e810       ??0?$SafeSQueue@VRealizedChore@details@Concurrency@@V_HyperNonReentrantLock@23@@details@Concurrency@@QEAA@XZ 000000014010f810 f i libconcrtd:ScheduleGroupBase.obj
 0001:0010e840       ??0ArrayNode@?$ListArray@VScheduleGroupSegmentBase@details@Concurrency@@@details@Concurrency@@QEAA@PEAPEAVScheduleGroupSegmentBase@23@@Z 000000014010f840 f i libconcrtd:SchedulingRing.obj
 0001:0010e840       ??0ArrayNode@?$ListArray@VVirtualProcessor@details@Concurrency@@@details@Concurrency@@QEAA@PEAPEAVVirtualProcessor@23@@Z 000000014010f840 f i libconcrtd:SchedulingNode.obj
 0001:0010e840       ??0ArrayNode@?$ListArray@VExternalStatistics@details@Concurrency@@@details@Concurrency@@QEAA@PEAPEAVExternalStatistics@23@@Z 000000014010f840 f i libconcrtd:SchedulerBase.obj
 0001:0010e840       ??0ArrayNode@?$ListArray@VScheduleGroupBase@details@Concurrency@@@details@Concurrency@@QEAA@PEAPEAVScheduleGroupBase@23@@Z 000000014010f840 f i libconcrtd:SchedulerBase.obj
 0001:0010e840       ??0ArrayNode@?$ListArray@VWorkQueue@details@Concurrency@@@details@Concurrency@@QEAA@PEAPEAVWorkQueue@23@@Z 000000014010f840 f i libconcrtd:ContextBase.obj
 0001:0010e840       ??0ArrayNode@?$ListArray@U?$ListArrayInlineLink@VWorkQueue@details@Concurrency@@@details@Concurrency@@@details@Concurrency@@QEAA@PEAPEAU?$ListArrayInlineLink@VWorkQueue@details@Concurrency@@@23@@Z 000000014010f840 f i libconcrtd:ScheduleGroupBase.obj
 0001:0010e880       ??0CacheLocalScheduleGroup@details@Concurrency@@QEAA@PEAVSchedulerBase@12@PEAVlocation@2@@Z 000000014010f880 f i libconcrtd:SchedulerBase.obj
 0001:0010e8d0       ??0CacheLocalScheduleGroupSegment@details@Concurrency@@QEAA@PEAVScheduleGroupBase@12@PEAVSchedulingRing@12@PEAVlocation@2@@Z 000000014010f8d0 f i libconcrtd:SchedulerBase.obj
 0001:0010e930       ??0ContextNode@SchedulerBase@details@Concurrency@@QEAA@PEAVInternalContextBase@23@@Z 000000014010f930 f i libconcrtd:SchedulerBase.obj
 0001:0010e950       ??0FairScheduleGroup@details@Concurrency@@QEAA@PEAVSchedulerBase@12@PEAVlocation@2@@Z 000000014010f950 f i libconcrtd:SchedulerBase.obj
 0001:0010ea00       ??0FairScheduleGroupSegment@details@Concurrency@@QEAA@PEAVScheduleGroupBase@12@PEAVSchedulingRing@12@PEAVlocation@2@@Z 000000014010fa00 f i libconcrtd:SchedulerBase.obj
 0001:0010ea60       ??0ListNode@?$Hash@II@details@Concurrency@@QEAA@AEBI0@Z 000000014010fa60 f i libconcrtd:SchedulerBase.obj
 0001:0010eaa0       ??0NumaInformation@SchedulerBase@details@Concurrency@@QEAA@XZ 000000014010faa0 f i libconcrtd:SchedulerBase.obj
 0001:0010eae0       ??0QuickBitSet@details@Concurrency@@QEAA@$$QEAV012@@Z 000000014010fae0 f i libconcrtd:SchedulerBase.obj
 0001:0010eb30       ??0QuickBitSet@details@Concurrency@@QEAA@I@Z 000000014010fb30 f i libconcrtd:SchedulerBase.obj
 0001:0010ebe0       ??0QuickBitSet@details@Concurrency@@QEAA@XZ 000000014010fbe0 f i libconcrtd:SchedulerBase.obj
 0001:0010ec10       ??0RealizedChore@details@Concurrency@@QEAA@P6AXPEAX@Z0@Z 000000014010fc10 f i libconcrtd:SchedulerBase.obj
 0001:0010ec60       ??0ReferenceCountedQuickBitSet@details@Concurrency@@QEAA@XZ 000000014010fc60 f i libconcrtd:SchedulerBase.obj
 0001:0010ec90       ??0Scheduler@Concurrency@@IEAA@XZ 000000014010fc90 f i libconcrtd:SchedulerBase.obj
 0001:0010ecb0       ??0SchedulerBase@details@Concurrency@@QEAA@AEBVSchedulerPolicy@2@@Z 000000014010fcb0 f   libconcrtd:SchedulerBase.obj
 0001:0010f2f0       ??0Slot@?$Mailbox@V_UnrealizedChore@details@Concurrency@@@details@Concurrency@@QEAA@XZ 00000001401102f0 f i libconcrtd:SchedulerBase.obj
 0001:0010f2f0       ??0Slot@?$Mailbox@VInternalContextBase@details@Concurrency@@@details@Concurrency@@QEAA@XZ 00000001401102f0 f i libconcrtd:InternalContextBase.obj
 0001:0010f320       ??0SubAllocator@details@Concurrency@@QEAA@XZ 0000000140110320 f i libconcrtd:SchedulerBase.obj
 0001:0010f370       ??0_Chore@details@Concurrency@@IEAA@XZ 0000000140110370 f i libconcrtd:SchedulerBase.obj
 0001:0010f390       ??0_HyperNonReentrantLock@details@Concurrency@@QEAA@XZ 0000000140110390 f i libconcrtd:SchedulerBase.obj
 0001:0010f390       ??0_CriticalNonReentrantLock@details@Concurrency@@QEAA@XZ 0000000140110390 f i libconcrtd:WorkQueue.obj
 0001:0010f3b0       ??0_Scoped_lock@_HyperNonReentrantLock@details@Concurrency@@QEAA@AEAV123@@Z 00000001401103b0 f i libconcrtd:SchedulerBase.obj
 0001:0010f3f0       ??0_Scoped_lock@_ReaderWriterLock@details@Concurrency@@QEAA@AEAV123@@Z 00000001401103f0 f i libconcrtd:SchedulerBase.obj
 0001:0010f430       ??0improper_scheduler_attach@Concurrency@@QEAA@AEBV01@@Z 0000000140110430 f i libconcrtd:SchedulerBase.obj
 0001:0010f470       ??0improper_scheduler_reference@Concurrency@@QEAA@AEBV01@@Z 0000000140110470 f i libconcrtd:SchedulerBase.obj
 0001:0010f4b0       ??4location@Concurrency@@QEAAAEAV01@AEBV01@@Z 00000001401104b0 f i libconcrtd:VirtualProcessor.obj
 0001:0010f4b0       ??0location@Concurrency@@QEAA@AEBV01@@Z 00000001401104b0 f i libconcrtd:SchedulerBase.obj
 0001:0010f4e0       ??0location@Concurrency@@QEAA@XZ 00000001401104e0 f i libconcrtd:SchedulerBase.obj
 0001:0010f540       ??1?$Hash@II@details@Concurrency@@QEAA@XZ 0000000140110540 f i libconcrtd:SchedulerBase.obj
 0001:0010f580       ??1?$ListArray@VExternalStatistics@details@Concurrency@@@details@Concurrency@@QEAA@XZ 0000000140110580 f i libconcrtd:SchedulerBase.obj
 0001:0010f6b0       ??1?$ListArray@VScheduleGroupBase@details@Concurrency@@@details@Concurrency@@QEAA@XZ 00000001401106b0 f i libconcrtd:SchedulerBase.obj
 0001:0010f7e0       ??1?$LockFreePushStack@VContextNode@SchedulerBase@details@Concurrency@@@details@Concurrency@@QEAA@XZ 00000001401107e0 f i libconcrtd:SchedulerBase.obj
 0001:0010f850       ??1CacheLocalScheduleGroup@details@Concurrency@@UEAA@XZ 0000000140110850 f i libconcrtd:SchedulerBase.obj
 0001:0010f850       ??1FairScheduleGroup@details@Concurrency@@UEAA@XZ 0000000140110850 f i libconcrtd:SchedulerBase.obj
 0001:0010f870       ??1CacheLocalScheduleGroupSegment@details@Concurrency@@UEAA@XZ 0000000140110870 f i libconcrtd:SchedulerBase.obj
 0001:0010f870       ??1FairScheduleGroupSegment@details@Concurrency@@UEAA@XZ 0000000140110870 f i libconcrtd:SchedulerBase.obj
 0001:0010f890       ??1NumaInformation@SchedulerBase@details@Concurrency@@QEAA@XZ 0000000140110890 f i libconcrtd:SchedulerBase.obj
 0001:0010f8c0       ??1QuickBitSet@details@Concurrency@@QEAA@XZ 00000001401108c0 f i libconcrtd:SchedulerBase.obj
 0001:0010f8f0       ??1RealizedChore@details@Concurrency@@UEAA@XZ 00000001401108f0 f i libconcrtd:SchedulerBase.obj
 0001:0010f910       ??1ReferenceCountedQuickBitSet@details@Concurrency@@QEAA@XZ 0000000140110910 f i libconcrtd:SchedulerBase.obj
 0001:0010f940       ??1ScheduleGroup@Concurrency@@MEAA@XZ 0000000140110940 f i libconcrtd:SchedulerBase.obj
 0001:0010f960       ??1ScheduleGroupBase@details@Concurrency@@UEAA@XZ 0000000140110960 f i libconcrtd:SchedulerBase.obj
 0001:0010f9a0       ??1Scheduler@Concurrency@@MEAA@XZ 00000001401109a0 f i libconcrtd:SchedulerBase.obj
 0001:0010f9c0       ??1SchedulerBase@details@Concurrency@@UEAA@XZ 00000001401109c0 f   libconcrtd:SchedulerBase.obj
 0001:0010fac0       ??1SubAllocator@details@Concurrency@@QEAA@XZ 0000000140110ac0 f i libconcrtd:SchedulerBase.obj
 0001:0010fb00       ??1_Chore@details@Concurrency@@MEAA@XZ 0000000140110b00 f i libconcrtd:SchedulerBase.obj
 0001:0010fb20       ??1_Scoped_lock@_HyperNonReentrantLock@details@Concurrency@@QEAA@XZ 0000000140110b20 f i libconcrtd:SchedulerBase.obj
 0001:0010fb40       ??1_Scoped_lock@_ReaderWriterLock@details@Concurrency@@QEAA@XZ 0000000140110b40 f i libconcrtd:SchedulerBase.obj
 0001:0010fb60       ??4QuickBitSet@details@Concurrency@@QEAAAEAV012@AEBV012@@Z 0000000140110b60 f i libconcrtd:SchedulerBase.obj
 0001:0010fb90       ??A?$ListArray@VWorkQueue@details@Concurrency@@@details@Concurrency@@QEBAPEAVWorkQueue@12@H@Z 0000000140110b90 f i libconcrtd:ScheduleGroupBase.obj
 0001:0010fb90       ??A?$ListArray@VExternalStatistics@details@Concurrency@@@details@Concurrency@@QEBAPEAVExternalStatistics@12@H@Z 0000000140110b90 f i libconcrtd:SchedulerBase.obj
 0001:0010fb90       ??A?$ListArray@VScheduleGroupSegmentBase@details@Concurrency@@@details@Concurrency@@QEBAPEAVScheduleGroupSegmentBase@12@H@Z 0000000140110b90 f i libconcrtd:SchedulerBase.obj
 0001:0010fb90       ??A?$ListArray@VVirtualProcessor@details@Concurrency@@@details@Concurrency@@QEBAPEAVVirtualProcessor@12@H@Z 0000000140110b90 f i libconcrtd:SchedulerBase.obj
 0001:0010fb90       ??A?$ListArray@U?$ListArrayInlineLink@VWorkQueue@details@Concurrency@@@details@Concurrency@@@details@Concurrency@@QEBAPEAU?$ListArrayInlineLink@VWorkQueue@details@Concurrency@@@12@H@Z 0000000140110b90 f i libconcrtd:ScheduleGroupBase.obj
 0001:0010fc70       ??_ENumaInformation@SchedulerBase@details@Concurrency@@QEAAPEAXI@Z 0000000140110c70 f i libconcrtd:SchedulerBase.obj
 0001:0010fd10       ??_ECacheLocalScheduleGroup@details@Concurrency@@UEAAPEAXI@Z 0000000140110d10 f i libconcrtd:SchedulerBase.obj
 0001:0010fd10       ??_GCacheLocalScheduleGroup@details@Concurrency@@UEAAPEAXI@Z 0000000140110d10 f i libconcrtd:SchedulerBase.obj
 0001:0010fd50       ??_EFairScheduleGroupSegment@details@Concurrency@@UEAAPEAXI@Z 0000000140110d50 f i libconcrtd:SchedulerBase.obj
 0001:0010fd50       ??_GFairScheduleGroupSegment@details@Concurrency@@UEAAPEAXI@Z 0000000140110d50 f i libconcrtd:SchedulerBase.obj
 0001:0010fd50       ??_GCacheLocalScheduleGroupSegment@details@Concurrency@@UEAAPEAXI@Z 0000000140110d50 f i libconcrtd:SchedulerBase.obj
 0001:0010fd50       ??_ECacheLocalScheduleGroupSegment@details@Concurrency@@UEAAPEAXI@Z 0000000140110d50 f i libconcrtd:SchedulerBase.obj
 0001:0010fd90       ??_GFairScheduleGroup@details@Concurrency@@UEAAPEAXI@Z 0000000140110d90 f i libconcrtd:SchedulerBase.obj
 0001:0010fd90       ??_EFairScheduleGroup@details@Concurrency@@UEAAPEAXI@Z 0000000140110d90 f i libconcrtd:SchedulerBase.obj
 0001:0010fdd0       ??_ERealizedChore@details@Concurrency@@UEAAPEAXI@Z 0000000140110dd0 f i libconcrtd:SchedulerBase.obj
 0001:0010fdd0       ??_GRealizedChore@details@Concurrency@@UEAAPEAXI@Z 0000000140110dd0 f i libconcrtd:SchedulerBase.obj
 0001:0010fe10       ??_GScheduleGroup@Concurrency@@MEAAPEAXI@Z 0000000140110e10 f i libconcrtd:SchedulerBase.obj
 0001:0010fe10       ??_EScheduleGroup@Concurrency@@MEAAPEAXI@Z 0000000140110e10 f i libconcrtd:SchedulerBase.obj
 0001:0010fe50       ??_GScheduleGroupBase@details@Concurrency@@UEAAPEAXI@Z 0000000140110e50 f i libconcrtd:SchedulerBase.obj
 0001:0010fe50       ??_EScheduleGroupBase@details@Concurrency@@UEAAPEAXI@Z 0000000140110e50 f i libconcrtd:SchedulerBase.obj
 0001:0010fe90       ??_EScheduler@Concurrency@@MEAAPEAXI@Z 0000000140110e90 f i libconcrtd:SchedulerBase.obj
 0001:0010fe90       ??_GScheduler@Concurrency@@MEAAPEAXI@Z 0000000140110e90 f i libconcrtd:SchedulerBase.obj
 0001:0010fed0       ??_GSchedulerBase@details@Concurrency@@UEAAPEAXI@Z 0000000140110ed0 f i libconcrtd:SchedulerBase.obj
 0001:0010fed0       ??_ESchedulerBase@details@Concurrency@@UEAAPEAXI@Z 0000000140110ed0 f i libconcrtd:SchedulerBase.obj
 0001:0010ff10       ??_GSchedulingNode@details@Concurrency@@QEAAPEAXI@Z 0000000140110f10 f i libconcrtd:SchedulerBase.obj
 0001:0010ff50       ??_GSchedulingRing@details@Concurrency@@QEAAPEAXI@Z 0000000140110f50 f i libconcrtd:SchedulerBase.obj
 0001:0010ff90       ??_GSubAllocator@details@Concurrency@@QEAAPEAXI@Z 0000000140110f90 f i libconcrtd:SchedulerBase.obj
 0001:0010ffd0       ??_E_Chore@details@Concurrency@@MEAAPEAXI@Z 0000000140110fd0 f i libconcrtd:SchedulerBase.obj
 0001:0010ffd0       ??_G_Chore@details@Concurrency@@MEAAPEAXI@Z 0000000140110fd0 f i libconcrtd:SchedulerBase.obj
 0001:00110010       ?ASIZE@QuickBitSet@details@Concurrency@@IEBAIXZ 0000000140111010 f i libconcrtd:SchedulerBase.obj
 0001:00110030       ?Acquire@?$SafeSQueue@VSafePointInvocation@details@Concurrency@@V_HyperNonReentrantLock@23@@details@Concurrency@@QEBAXXZ 0000000140111030 f i libconcrtd:SchedulerBase.obj
 0001:00110050       ?AcquireWrite@?$SafeRWList@UListEntry@details@Concurrency@@VNoCount@CollectionTypes@23@V_ReaderWriterLock@23@@details@Concurrency@@QEBAXXZ 0000000140111050 f i libconcrtd:ContextBase.obj
 0001:00110050       ?AcquireWrite@?$SafeRWList@UBoostedObject@details@Concurrency@@VNoCount@CollectionTypes@23@V_ReaderWriterLock@23@@details@Concurrency@@QEBAXXZ 0000000140111050 f i libconcrtd:SchedulerBase.obj
 0001:00110070       ?Add@?$ListArray@VScheduleGroupBase@details@Concurrency@@@details@Concurrency@@QEAAHPEAVScheduleGroupBase@23@@Z 0000000140111070 f i libconcrtd:SchedulerBase.obj
 0001:00110520       ?AddContext@SchedulerBase@details@Concurrency@@QEAAXPEAVInternalContextBase@23@@Z 0000000140111520 f   libconcrtd:SchedulerBase.obj
 0001:001105c0       ?AddHead@?$List@UBoostedObject@details@Concurrency@@VNoCount@CollectionTypes@23@@details@Concurrency@@QEAAXPEAUBoostedObject@23@@Z 00000001401115c0 f i libconcrtd:SchedulerBase.obj
 0001:001106c0       ?AddTail@?$List@VWaitNode@SchedulerBase@details@Concurrency@@VNoCount@CollectionTypes@34@@details@Concurrency@@QEAAXPEAVWaitNode@SchedulerBase@23@@Z 00000001401116c0 f i libconcrtd:SchedulerBase.obj
 0001:001107b0       ?AddTail@?$SafeRWList@VWaitNode@SchedulerBase@details@Concurrency@@VNoCount@CollectionTypes@34@V_ReaderWriterLock@34@@details@Concurrency@@QEAAXPEAVWaitNode@SchedulerBase@23@@Z 00000001401117b0 f i libconcrtd:SchedulerBase.obj
 0001:00110800       ?AddVirtualProcessors@SchedulerBase@details@Concurrency@@IEAAXPEAPEAUIVirtualProcessorRoot@3@I@Z 0000000140111800 f   libconcrtd:SchedulerBase.obj
 0001:001109f0       ?AllocateSegment@CacheLocalScheduleGroup@details@Concurrency@@MEAAPEAVScheduleGroupSegmentBase@23@PEAVSchedulingRing@23@PEAVlocation@3@@Z 00000001401119f0 f i libconcrtd:SchedulerBase.obj
 0001:00110a80       ?AllocateSegment@FairScheduleGroup@details@Concurrency@@MEAAPEAVScheduleGroupSegmentBase@23@PEAVSchedulingRing@23@PEAVlocation@3@@Z 0000000140111a80 f i libconcrtd:SchedulerBase.obj
 0001:00110b30       ?Attach@SchedulerBase@details@Concurrency@@UEAAXXZ 0000000140111b30 f   libconcrtd:SchedulerBase.obj
 0001:00110bf0       ?AttachExternalContext@SchedulerBase@details@Concurrency@@AEAAPEAVExternalContextBase@23@_N@Z 0000000140111bf0 f   libconcrtd:SchedulerBase.obj
 0001:00110d10       ?AttemptSchedulerSweep@SchedulerBase@details@Concurrency@@IEAAXXZ 0000000140111d10 f   libconcrtd:SchedulerBase.obj
 0001:00110df0       ?CancelAllContexts@SchedulerBase@details@Concurrency@@MEAAXXZ 0000000140111df0 f   libconcrtd:SchedulerBase.obj
 0001:00110e70       ?ChangeThrottlingTimer@SchedulerBase@details@Concurrency@@AEAAXK@Z 0000000140111e70 f   libconcrtd:SchedulerBase.obj
 0001:00110f00       ?CheckForDeletion@?$ListArray@VExternalStatistics@details@Concurrency@@@details@Concurrency@@AEAAXXZ 0000000140111f00 f i libconcrtd:SchedulerBase.obj
 0001:00110f60       ?CheckForDeletion@?$ListArray@VScheduleGroupBase@details@Concurrency@@@details@Concurrency@@AEAAXXZ 0000000140111f60 f i libconcrtd:SchedulerBase.obj
 0001:00110fc0       ?CheckForDeletionBridge@?$ListArray@VExternalStatistics@details@Concurrency@@@details@Concurrency@@CAXPEAV123@@Z 0000000140111fc0 f i libconcrtd:SchedulerBase.obj
 0001:00110fe0       ?CheckForDeletionBridge@?$ListArray@VScheduleGroupBase@details@Concurrency@@@details@Concurrency@@CAXPEAV123@@Z 0000000140111fe0 f i libconcrtd:SchedulerBase.obj
 0001:00111000       ?CheckOneShotStaticDestruction@SchedulerBase@details@Concurrency@@SAXXZ 0000000140112000 f   libconcrtd:SchedulerBase.obj
 0001:001110b0       ?CheckStaticConstruction@SchedulerBase@details@Concurrency@@CAXXZ 00000001401120b0 f   libconcrtd:SchedulerBase.obj
 0001:00111120       ?Cleanup@SchedulerBase@details@Concurrency@@AEAAXXZ 0000000140112120 f   libconcrtd:SchedulerBase.obj
 0001:001112f0       ?ClearCriticalRegion@ContextBase@details@Concurrency@@QEAAXXZ 00000001401122f0 f i libconcrtd:SchedulerBase.obj
 0001:00111310       ?CommitSafePoints@SchedulerBase@details@Concurrency@@QEAAXXZ 0000000140112310 f   libconcrtd:SchedulerBase.obj
 0001:001113b0       ?CommitToVersion@SchedulerBase@details@Concurrency@@AEAAXK@Z 00000001401123b0 f   libconcrtd:SchedulerBase.obj
 0001:001114a0       ?ComputeSafePointCommitVersion@SchedulerBase@details@Concurrency@@AEAAKXZ 00000001401124a0 f   libconcrtd:SchedulerBase.obj
 0001:001115b0       ?CopyFrom@QuickBitSet@details@Concurrency@@IEAAXAEBV123@@Z 00000001401125b0 f i libconcrtd:SchedulerBase.obj
 0001:00111640       ?Count@?$LockFreeStack@VFreeThreadProxy@details@Concurrency@@@details@Concurrency@@QEBAHXZ 0000000140112640 f i libconcrtd:ThreadProxyFactoryManager.obj
 0001:00111640       ?Count@?$LockFreeStack@VRealizedChore@details@Concurrency@@@details@Concurrency@@QEBAHXZ 0000000140112640 f i libconcrtd:SchedulerBase.obj
 0001:00111640       ?Count@?$LockFreeStack@VSubAllocator@details@Concurrency@@@details@Concurrency@@QEBAHXZ 0000000140112640 f i libconcrtd:SchedulerBase.obj
 0001:00111640       ?Count@?$LockFreeStack@VExternalContextBase@details@Concurrency@@@details@Concurrency@@QEBAHXZ 0000000140112640 f i libconcrtd:SchedulerBase.obj
 0001:00111660       ?CreateContextFromDefaultScheduler@SchedulerBase@details@Concurrency@@SAPEAVContextBase@23@XZ 0000000140112660 f   libconcrtd:SchedulerBase.obj
 0001:00111710       ?CreateScheduleGroup@SchedulerBase@details@Concurrency@@UEAAPEAVScheduleGroup@3@AEAVlocation@3@@Z 0000000140112710 f i libconcrtd:SchedulerBase.obj
 0001:00111740       ?CreateScheduleGroup@SchedulerBase@details@Concurrency@@UEAAPEAVScheduleGroup@3@XZ 0000000140112740 f i libconcrtd:SchedulerBase.obj
 0001:00111780       ?CreateWithoutInitializing@SchedulerBase@details@Concurrency@@SAPEAV123@AEBVSchedulerPolicy@3@@Z 0000000140112780 f   libconcrtd:SchedulerBase.obj
 0001:001117e0       ?DecrementInternalContextCount@SchedulerBase@details@Concurrency@@QEAAXXZ 00000001401127e0 f   libconcrtd:SchedulerBase.obj
 0001:00111870       ?DeferredGetInternalContext@SchedulerBase@details@Concurrency@@QEAAXXZ 0000000140112870 f   libconcrtd:SchedulerBase.obj
 0001:001118b0       ?DeleteElements@?$ListArray@VExternalStatistics@details@Concurrency@@@details@Concurrency@@AEAAXPEAU_SLIST_ENTRY@@@Z 00000001401128b0 f i libconcrtd:SchedulerBase.obj
 0001:00111900       ?DeleteElements@?$ListArray@VScheduleGroupBase@details@Concurrency@@@details@Concurrency@@AEAAXPEAU_SLIST_ENTRY@@@Z 0000000140112900 f i libconcrtd:SchedulerBase.obj
 0001:00111950       ?Delta@?$LockFreePushStack@VContextNode@SchedulerBase@details@Concurrency@@@details@Concurrency@@CAPEAVContextNode@SchedulerBase@23@PEAX@Z 0000000140112950 f i libconcrtd:SchedulerBase.obj
 0001:00111950       ?Delta@?$LockFreeStack@VSubAllocator@details@Concurrency@@@details@Concurrency@@CAPEAVSubAllocator@23@PEAX@Z 0000000140112950 f i libconcrtd:SchedulerBase.obj
 0001:00111980       ?Delta@?$LockFreeStack@VExternalContextBase@details@Concurrency@@@details@Concurrency@@CAPEAVExternalContextBase@23@PEAX@Z 0000000140112980 f i libconcrtd:SchedulerBase.obj
 0001:001119c0       ?Delta@?$LockFreeStack@VRealizedChore@details@Concurrency@@@details@Concurrency@@CAPEAVRealizedChore@23@PEAX@Z 00000001401129c0 f i libconcrtd:SchedulerBase.obj
 0001:001119c0       ?Delta@?$LockFreeStack@VInternalContextBase@details@Concurrency@@@details@Concurrency@@CAPEAVInternalContextBase@23@PEAX@Z 00000001401129c0 f i libconcrtd:SchedulerBase.obj
 0001:00111a00       ?Dequeue@?$SQueue@VInternalContextBase@details@Concurrency@@@details@Concurrency@@QEAAPEAVInternalContextBase@23@XZ 0000000140112a00 f i libconcrtd:SchedulerBase.obj
 0001:00111a60       ?Dequeue@?$SQueue@VSafePointInvocation@details@Concurrency@@@details@Concurrency@@QEAAPEAVSafePointInvocation@23@XZ 0000000140112a60 f i libconcrtd:SchedulerBase.obj
 0001:00111ac0       ?Dequeue@?$SafeSQueue@VInternalContextBase@details@Concurrency@@V_HyperNonReentrantLock@23@@details@Concurrency@@QEAAPEAVInternalContextBase@23@XZ 0000000140112ac0 f i libconcrtd:SchedulerBase.obj
 0001:00111b10       ?DereferenceStaticOneShot@SchedulerBase@details@Concurrency@@SAJXZ 0000000140112b10 f i libconcrtd:SchedulerBase.obj
 0001:00111b30       ?DestroySchedulerEventHandlers@SchedulerBase@details@Concurrency@@MEAAXXZ 0000000140112b30 f   libconcrtd:SchedulerBase.obj
 0001:00111bb0       ?DetachExternalContext@SchedulerBase@details@Concurrency@@AEAAXPEAVExternalContextBase@23@_N@Z 0000000140112bb0 f   libconcrtd:SchedulerBase.obj
 0001:00111ca0       ?Empty@?$List@VWaitNode@SchedulerBase@details@Concurrency@@VNoCount@CollectionTypes@34@@details@Concurrency@@QEBA_NXZ 0000000140112ca0 f i libconcrtd:SchedulerBase.obj
 0001:00111ca0       ?IsEmpty@Slot@?$Mailbox@V_UnrealizedChore@details@Concurrency@@@details@Concurrency@@QEBA_NXZ 0000000140112ca0 f i libconcrtd:ContextBase.obj
 0001:00111ca0       ?Empty@?$SQueue@VRealizedChore@details@Concurrency@@@details@Concurrency@@QEBA_NXZ 0000000140112ca0 f i libconcrtd:ScheduleGroupBase.obj
 0001:00111ca0       ?Empty@?$SQueue@VSafePointInvocation@details@Concurrency@@@details@Concurrency@@QEBA_NXZ 0000000140112ca0 f i libconcrtd:SchedulerBase.obj
 0001:00111ca0       ?Empty@?$SQueue@VInternalContextBase@details@Concurrency@@@details@Concurrency@@QEBA_NXZ 0000000140112ca0 f i libconcrtd:SchedulerBase.obj
 0001:00111ca0       ?Empty@?$List@UBoostedObject@details@Concurrency@@VNoCount@CollectionTypes@23@@details@Concurrency@@QEBA_NXZ 0000000140112ca0 f i libconcrtd:SearchAlgorithms.obj
 0001:00111ca0       ?IsEmpty@Slot@?$Mailbox@VInternalContextBase@details@Concurrency@@@details@Concurrency@@QEBA_NXZ 0000000140112ca0 f i libconcrtd:InternalContextBase.obj
 0001:00111ca0       ?Empty@?$List@UListEntry@details@Concurrency@@VNoCount@CollectionTypes@23@@details@Concurrency@@QEBA_NXZ 0000000140112ca0 f i libconcrtd:ContextBase.obj
 0001:00111ca0       ?empty@TokenRegistrationContainer@_CancellationTokenState@details@Concurrency@@QEAA_NXZ 0000000140112ca0 f i libconcrtd:TaskCollection.obj
 0001:00111cd0       ?Enqueue@?$SQueue@VSafePointInvocation@details@Concurrency@@@details@Concurrency@@QEAAXPEAVSafePointInvocation@23@@Z 0000000140112cd0 f i libconcrtd:SchedulerBase.obj
 0001:00111d70       ?Exercise@ClaimTicket@VirtualProcessor@details@Concurrency@@QEAA_NPEAVScheduleGroupSegmentBase@34@@Z 0000000140112d70 f i libconcrtd:SchedulerBase.obj
 0001:00111e10       ?ExerciseWakesExisting@ClaimTicket@VirtualProcessor@details@Concurrency@@QEBA_NXZ 0000000140112e10 f i libconcrtd:SchedulerBase.obj
 0001:00111e50       ?FastCurrentContext@SchedulerBase@details@Concurrency@@SAPEAVContextBase@23@XZ 0000000140112e50 f   libconcrtd:SchedulerBase.obj
 0001:00111e90       ?FastCurrentScheduler@SchedulerBase@details@Concurrency@@SAPEAV123@XZ 0000000140112e90 f   libconcrtd:SchedulerBase.obj
 0001:00111ed0       ?Fill@QuickBitSet@details@Concurrency@@QEAAXXZ 0000000140112ed0 f i libconcrtd:SchedulerBase.obj
 0001:00111f20       ?Finalize@SchedulerBase@details@Concurrency@@AEAAXXZ 0000000140112f20 f   libconcrtd:SchedulerBase.obj
 0001:001121d0       ?Find@?$Hash@II@details@Concurrency@@QEAAPEAUListNode@123@AEBIPEAI@Z 00000001401131d0 f i libconcrtd:SchedulerBase.obj
 0001:00112240       ?FindCurrentNode@SchedulerBase@details@Concurrency@@QEAAPEAVSchedulingNode@23@XZ 0000000140113240 f   libconcrtd:SchedulerBase.obj
 0001:00112300       ?FindNodeByLocation@SchedulerBase@details@Concurrency@@QEAAPEAVSchedulingNode@23@PEAVlocation@3@@Z 0000000140113300 f   libconcrtd:SchedulerBase.obj
 0001:00112420       ?FindScheduleGroupSegment@SchedulingRing@details@Concurrency@@AEAAPEAVScheduleGroupSegmentBase@23@HHPEAHPEAV?$ListArray@VScheduleGroupSegmentBase@details@Concurrency@@@23@@Z 0000000140113420 f i libconcrtd:SchedulerBase.obj
 0001:001124a0       ?FindVirtualProcessor@SchedulingNode@details@Concurrency@@QEAAPEAVVirtualProcessor@23@HHPEAH@Z 00000001401134a0 f i libconcrtd:SchedulerBase.obj
 0001:00112520       ?Flush@?$LockFreePushStack@VContextNode@SchedulerBase@details@Concurrency@@@details@Concurrency@@QEAAPEAVContextNode@SchedulerBase@23@XZ 0000000140113520 f i libconcrtd:SchedulerBase.obj
 0001:00112550       ?Flush@?$LockFreeStack@VExternalContextBase@details@Concurrency@@@details@Concurrency@@QEAAPEAVExternalContextBase@23@XZ 0000000140113550 f i libconcrtd:SchedulerBase.obj
 0001:00112580       ?Flush@?$LockFreeStack@VRealizedChore@details@Concurrency@@@details@Concurrency@@QEAAPEAVRealizedChore@23@XZ 0000000140113580 f i libconcrtd:SchedulerBase.obj
 0001:001125b0       ?FoundAvailableVirtualProcessor@SchedulerBase@details@Concurrency@@QEAA_NAEAVClaimTicket@VirtualProcessor@23@Vlocation@3@K@Z 00000001401135b0 f   libconcrtd:SchedulerBase.obj
 0001:00112880       ?FoundBlockedContexts@SchedulerBase@details@Concurrency@@AEAA_NXZ 0000000140113880 f   libconcrtd:SchedulerBase.obj
 0001:00112a30       ?FoundUnstartedChores@SchedulerBase@details@Concurrency@@AEAA_NXZ 0000000140113a30 f   libconcrtd:SchedulerBase.obj
 0001:00112c70       ?FreeNode@?$Hash@II@details@Concurrency@@CAXPEAUListNode@123@@Z 0000000140113c70 f i libconcrtd:SchedulerBase.obj
 0001:00112cc0       ?GetAnonymousScheduleGroup@SchedulerBase@details@Concurrency@@QEAAPEAVScheduleGroupBase@23@XZ 0000000140113cc0 f i libconcrtd:SchedulerBase.obj
 0001:00112ce0       ?GetAnonymousScheduleGroupSegment@SchedulerBase@details@Concurrency@@QEAAPEAVScheduleGroupSegmentBase@23@XZ 0000000140113ce0 f   libconcrtd:SchedulerBase.obj
 0001:00112d00       ?GetBitSet@SchedulerBase@details@Concurrency@@QEAA?AVQuickBitSet@23@PEBVlocation@3@@Z 0000000140113d00 f   libconcrtd:SchedulerBase.obj
 0001:00112ef0       ?GetDefaultScheduler@SchedulerBase@details@Concurrency@@CAPEAV123@XZ 0000000140113ef0 f   libconcrtd:SchedulerBase.obj
 0001:00113010       ?GetDequeuedTaskCount@ExternalStatistics@details@Concurrency@@QEAAIXZ 0000000140114010 f i libconcrtd:SchedulerBase.obj
 0001:001130a0       ?GetDequeuedTaskCount@SchedulerBase@details@Concurrency@@QEAAIXZ 00000001401140a0 f i libconcrtd:SchedulerBase.obj
 0001:00113140       ?GetDequeuedTaskCount@VirtualProcessor@details@Concurrency@@AEAAIXZ 0000000140114140 f i libconcrtd:SchedulerBase.obj
 0001:001131e0       ?GetEnqueuedTaskCount@ExternalStatistics@details@Concurrency@@QEAAIXZ 00000001401141e0 f i libconcrtd:SchedulerBase.obj
 0001:00113270       ?GetEnqueuedTaskCount@SchedulerBase@details@Concurrency@@QEAAIXZ 0000000140114270 f i libconcrtd:SchedulerBase.obj
 0001:00113310       ?GetEnqueuedTaskCount@VirtualProcessor@details@Concurrency@@AEAAIXZ 0000000140114310 f i libconcrtd:SchedulerBase.obj
 0001:001133b0       ?GetExternalContext@SchedulerBase@details@Concurrency@@AEAAPEAVExternalContextBase@23@_N@Z 00000001401143b0 f   libconcrtd:SchedulerBase.obj
 0001:00113470       ?GetFirstAffineScheduleGroupSegment@SchedulingRing@details@Concurrency@@QEAAPEAVScheduleGroupSegmentBase@23@PEAH@Z 0000000140114470 f i libconcrtd:SchedulerBase.obj
 0001:001134a0       ?GetFirstNonAffineScheduleGroupSegment@SchedulingRing@details@Concurrency@@QEAAPEAVScheduleGroupSegmentBase@23@PEAH@Z 00000001401144a0 f i libconcrtd:SchedulerBase.obj
 0001:001134d0       ?GetFirstScheduleGroupSegment@SchedulingRing@details@Concurrency@@AEAAPEAVScheduleGroupSegmentBase@23@PEAHPEAV?$ListArray@VScheduleGroupSegmentBase@details@Concurrency@@@23@@Z 00000001401144d0 f i libconcrtd:SchedulerBase.obj
 0001:00113510       ?GetFirstVirtualProcessor@SchedulingNode@details@Concurrency@@QEAAPEAVVirtualProcessor@23@PEAH@Z 0000000140114510 f i libconcrtd:SchedulerBase.obj
 0001:00113550       ?GetInternalContext@SchedulerBase@details@Concurrency@@QEAAPEAVInternalContextBase@23@_N@Z 0000000140114550 f   libconcrtd:SchedulerBase.obj
 0001:001137a0       ?GetMaskIdCount@SchedulerBase@details@Concurrency@@QEBAIXZ 00000001401147a0 f i libconcrtd:SchedulerBase.obj
 0001:001137c0       ?GetNewContextId@SchedulerBase@details@Concurrency@@QEAAIXZ 00000001401147c0 f   libconcrtd:SchedulerBase.obj
 0001:001137e0       ?GetNewScheduleGroupId@SchedulerBase@details@Concurrency@@QEAAIXZ 00000001401147e0 f   libconcrtd:SchedulerBase.obj
 0001:00113800       ?GetNewWorkQueueId@SchedulerBase@details@Concurrency@@SAIXZ 0000000140114800 f   libconcrtd:SchedulerBase.obj
 0001:00113820       ?GetNextAffineScheduleGroupSegment@SchedulingRing@details@Concurrency@@QEAAPEAVScheduleGroupSegmentBase@23@PEAHH@Z 0000000140114820 f i libconcrtd:SchedulerBase.obj
 0001:00113860       ?GetNextNonAffineScheduleGroupSegment@SchedulingRing@details@Concurrency@@QEAAPEAVScheduleGroupSegmentBase@23@PEAHH@Z 0000000140114860 f i libconcrtd:SchedulerBase.obj
 0001:001138a0       ?GetNextPriorityObject@SchedulerBase@details@Concurrency@@QEAAPEAUBoostedObject@23@XZ 00000001401148a0 f   libconcrtd:SchedulerBase.obj
 0001:00113960       ?GetNextScheduleGroupSegment@SchedulingRing@details@Concurrency@@AEAAPEAVScheduleGroupSegmentBase@23@PEAHHPEAV?$ListArray@VScheduleGroupSegmentBase@details@Concurrency@@@23@@Z 0000000140114960 f i libconcrtd:SchedulerBase.obj
 0001:00113a10       ?GetNextSchedulingRing@SchedulerBase@details@Concurrency@@QEAAPEAVSchedulingRing@23@PEBV423@PEAV423@@Z 0000000140114a10 f   libconcrtd:SchedulerBase.obj
 0001:00113b30       ?GetNextSchedulingRing@SchedulerBase@details@Concurrency@@QEAAPEAVSchedulingRing@23@XZ 0000000140114b30 f   libconcrtd:SchedulerBase.obj
 0001:00113bd0       ?GetNextValidSchedulingRingIndex@SchedulerBase@details@Concurrency@@AEAAHH@Z 0000000140114bd0 f   libconcrtd:SchedulerBase.obj
 0001:00113ce0       ?GetNextVirtualProcessor@SchedulingNode@details@Concurrency@@QEAAPEAVVirtualProcessor@23@PEAHH@Z 0000000140114ce0 f i libconcrtd:SchedulerBase.obj
 0001:00113d80       ?GetNumberOfBoundContexts@SchedulerBase@details@Concurrency@@IEBAKXZ 0000000140114d80 f i libconcrtd:SchedulerBase.obj
 0001:00113da0       ?GetOwningNode@VirtualProcessor@details@Concurrency@@QEAAPEAVSchedulingNode@23@XZ 0000000140114da0 f i libconcrtd:SchedulerBase.obj
 0001:00113db0       ?GetOwningRoot@VirtualProcessor@details@Concurrency@@QEAAPEAUIVirtualProcessorRoot@3@XZ 0000000140114db0 f i libconcrtd:SchedulerBase.obj
 0001:00113dd0       ?GetPolicy@SchedulerBase@details@Concurrency@@UEBA?AVSchedulerPolicy@3@XZ 0000000140114dd0 f   libconcrtd:SchedulerBase.obj
 0001:00113e20       ?GetRealizedChore@SchedulerBase@details@Concurrency@@QEAAPEAVRealizedChore@23@P6AXPEAX@Z0@Z 0000000140114e20 f   libconcrtd:SchedulerBase.obj
 0001:00113ef0       ?GetReservedContext@SchedulerBase@details@Concurrency@@QEAAPEAVInternalContextBase@23@XZ 0000000140114ef0 f i libconcrtd:SchedulerBase.obj
 0001:00113f20       ?GetResourceSet@SchedulingNode@details@Concurrency@@QEAAAEBVQuickBitSet@23@XZ 0000000140114f20 f i libconcrtd:SchedulerBase.obj
 0001:00113f20       ?GetExecutionResource@VirtualProcessorRoot@details@Concurrency@@QEAAPEAVExecutionResource@23@XZ 0000000140114f20 f i libconcrtd:SchedulerProxy.obj
 0001:00113f30       ?GetRunnableContext@CacheLocalScheduleGroupSegment@details@Concurrency@@EEAAPEAVInternalContextBase@23@XZ 0000000140114f30 f i libconcrtd:SchedulerBase.obj
 0001:00113f30       ?GetRunnableContext@FairScheduleGroupSegment@details@Concurrency@@EEAAPEAVInternalContextBase@23@XZ 0000000140114f30 f i libconcrtd:SchedulerBase.obj
 0001:00113f90       ?GetSchedulerProxy@SchedulerBase@details@Concurrency@@QEBAPEAUISchedulerProxy@3@XZ 0000000140114f90 f i libconcrtd:SchedulerBase.obj
 0001:00113fb0       ?GetSubAllocator@SchedulerBase@details@Concurrency@@SAPEAVSubAllocator@23@_N@Z 0000000140114fb0 f   libconcrtd:SchedulerBase.obj
 0001:001140d0       ?GetValidSchedulingRingIndex@SchedulerBase@details@Concurrency@@AEAAHH@Z 00000001401150d0 f   libconcrtd:SchedulerBase.obj
 0001:001141d0       ?Grow@QuickBitSet@details@Concurrency@@QEAAXI@Z 00000001401151d0 f i libconcrtd:SchedulerBase.obj
 0001:001142f0       ?Grow@ReferenceCountedQuickBitSet@details@Concurrency@@QEAAXI@Z 00000001401152f0 f i libconcrtd:SchedulerBase.obj
 0001:00114410       ?HasCompletedShutdown@SchedulerBase@details@Concurrency@@QEAA_NXZ 0000000140115410 f   libconcrtd:SchedulerBase.obj
 0001:00114450       ?HasVirtualProcessorAvailable@SchedulingNode@details@Concurrency@@QEBA_NXZ 0000000140115450 f i libconcrtd:SchedulerBase.obj
 0001:00114480       ?HasVirtualProcessorPendingThreadCreate@SchedulerBase@details@Concurrency@@QEBA_NXZ 0000000140115480 f i libconcrtd:SchedulerBase.obj
 0001:001144c0       ?HashValue@?$Hash@II@details@Concurrency@@CAIAEBIH@Z 00000001401154c0 f i libconcrtd:SchedulerBase.obj
 0001:001145d0       ?Id@ScheduleGroupBase@details@Concurrency@@UEBAIXZ 00000001401155d0 f i libconcrtd:SchedulerBase.obj
 0001:001145d0       ?GetId@InternalContextBase@details@Concurrency@@UEBAIXZ 00000001401155d0 f i libconcrtd:InternalContextBase.obj
 0001:001145e0       ?Id@SchedulerBase@details@Concurrency@@UEBAIXZ 00000001401155e0 f i libconcrtd:SchedulerBase.obj
 0001:00114600       ?Id@SchedulingRing@details@Concurrency@@QEBAHXZ 0000000140115600 f i libconcrtd:SchedulerBase.obj
 0001:00114620       ?InFinalizationSweep@SchedulerBase@details@Concurrency@@QEAA_NXZ 0000000140115620 f   libconcrtd:SchedulerBase.obj
 0001:00114660       ?IncrementInternalContextCount@SchedulerBase@details@Concurrency@@QEAAXXZ 0000000140115660 f   libconcrtd:SchedulerBase.obj
 0001:00114680       ?Initialize@RealizedChore@details@Concurrency@@QEAAXP6AXPEAX@Z0@Z 0000000140115680 f i libconcrtd:SchedulerBase.obj
 0001:001146c0       ?Initialize@SchedulerBase@details@Concurrency@@AEAAXXZ 00000001401156c0 f   libconcrtd:SchedulerBase.obj
 0001:00115290       ?InitializeSchedulerEventHandlers@SchedulerBase@details@Concurrency@@MEAAXXZ 0000000140116290 f   libconcrtd:SchedulerBase.obj
 0001:001152b0       ?Insert@?$Hash@II@details@Concurrency@@QEAAPEAUListNode@123@AEBI0@Z 00000001401162b0 f i libconcrtd:SchedulerBase.obj
 0001:001153c0       ?InternalCreateScheduleGroup@SchedulerBase@details@Concurrency@@AEAAPEAVScheduleGroup@3@PEAVlocation@3@@Z 00000001401163c0 f   libconcrtd:SchedulerBase.obj
 0001:001155d0       ?InternalReference@ScheduleGroupBase@details@Concurrency@@IEAAJXZ 00000001401165d0 f i libconcrtd:SchedulerBase.obj
 0001:00115670       ?InternalRelease@ScheduleGroupBase@details@Concurrency@@IEAAJXZ 0000000140116670 f i libconcrtd:SchedulerBase.obj
 0001:00115750       ?Intersects@QuickBitSet@details@Concurrency@@QEBA_NAEBV123@@Z 0000000140116750 f i libconcrtd:SchedulerBase.obj
 0001:00115850       ?Invoke@SafePointInvocation@details@Concurrency@@AEAAXXZ 0000000140116850 f i libconcrtd:SchedulerBase.obj
 0001:00115890       ?InvokeAtNextSafePoint@SafePointInvocation@details@Concurrency@@QEAAXP6AXPEAX@Z0PEAVSchedulerBase@23@@Z 0000000140116890 f   libconcrtd:SchedulerBase.obj
 0001:00115920       ?InvokeOnSafePoint@SchedulerBase@details@Concurrency@@AEAAXPEAVSafePointInvocation@23@@Z 0000000140116920 f   libconcrtd:SchedulerBase.obj
 0001:00115990       ?IsActive@ExternalStatistics@details@Concurrency@@QEAA_NXZ 0000000140116990 f i libconcrtd:SchedulerBase.obj
 0001:001159f0       ?IsActive@SchedulingRing@details@Concurrency@@QEBA_NXZ 00000001401169f0 f i libconcrtd:SchedulerBase.obj
 0001:00115a30       ?IsAvailableLocation@SchedulerBase@details@Concurrency@@UEBA_NAEBVlocation@3@@Z 0000000140116a30 f   libconcrtd:SchedulerBase.obj
 0001:00115a90       ?IsBlocked@ContextBase@details@Concurrency@@QEBA_NXZ 0000000140116a90 f i libconcrtd:SchedulerBase.obj
 0001:00115ac0       ?IsExternal@ContextBase@details@Concurrency@@QEBA_NXZ 0000000140116ac0 f i libconcrtd:SchedulerBase.obj
 0001:00115ae0       ?IsExternalAllocator@SubAllocator@details@Concurrency@@QEAA_NXZ 0000000140116ae0 f i libconcrtd:SchedulerBase.obj
 0001:00115b00       ?IsIdle@InternalContextBase@details@Concurrency@@QEBA_NXZ 0000000140116b00 f i libconcrtd:SchedulerBase.obj
 0001:00115b20       ?IsSet@QuickBitSet@details@Concurrency@@QEBA_NI@Z 0000000140116b20 f i libconcrtd:SchedulerBase.obj
 0001:00115b90       ?IsVisibleVersion@SchedulerBase@details@Concurrency@@AEAA_NK@Z 0000000140116b90 f i libconcrtd:SchedulerBase.obj
 0001:00115bd0       ?Lookup@?$Hash@II@details@Concurrency@@AEAAPEAUListNode@123@AEBIH@Z 0000000140116bd0 f i libconcrtd:SchedulerBase.obj
 0001:00115c90       ?MailChore@FairScheduleGroup@details@Concurrency@@UEAA?AVSlot@?$Mailbox@V_UnrealizedChore@details@Concurrency@@@23@PEAV_UnrealizedChore@23@PEAVlocation@3@PEAPEAVScheduleGroupSegmentBase@23@@Z 0000000140116c90 f i libconcrtd:SchedulerBase.obj
 0001:00115cc0       ?MarkSafePoint@SchedulerBase@details@Concurrency@@QEAA_NPEAVSafePointMarker@23@@Z 0000000140116cc0 f   libconcrtd:SchedulerBase.obj
 0001:00115d00       ?MaxIndex@?$ListArray@VExternalStatistics@details@Concurrency@@@details@Concurrency@@QEAAHXZ 0000000140116d00 f i libconcrtd:SchedulerBase.obj
 0001:00115d00       ?MaxIndex@?$ListArray@U?$ListArrayInlineLink@VWorkQueue@details@Concurrency@@@details@Concurrency@@@details@Concurrency@@QEAAHXZ 0000000140116d00 f i libconcrtd:ScheduleGroupBase.obj
 0001:00115d00       ?MaxIndex@?$ListArray@VWorkQueue@details@Concurrency@@@details@Concurrency@@QEAAHXZ 0000000140116d00 f i libconcrtd:ScheduleGroupBase.obj
 0001:00115d00       ?MaxIndex@?$ListArray@VVirtualProcessor@details@Concurrency@@@details@Concurrency@@QEAAHXZ 0000000140116d00 f i libconcrtd:SchedulerBase.obj
 0001:00115d00       ?MaxIndex@?$ListArray@VScheduleGroupSegmentBase@details@Concurrency@@@details@Concurrency@@QEAAHXZ 0000000140116d00 f i libconcrtd:SchedulerBase.obj
 0001:00115d10       ?Next@?$LockFreePushStack@VContextNode@SchedulerBase@details@Concurrency@@@details@Concurrency@@SAPEAVContextNode@SchedulerBase@23@PEAV4523@@Z 0000000140116d10 f i libconcrtd:SchedulerBase.obj
 0001:00115d10       ?Unsafe_Top@?$LockFreePushStack@VContextNode@SchedulerBase@details@Concurrency@@@details@Concurrency@@QEAAPEAVContextNode@SchedulerBase@23@XZ 0000000140116d10 f i libconcrtd:SchedulerBase.obj
 0001:00115d30       ?Next@?$LockFreeStack@VExternalContextBase@details@Concurrency@@@details@Concurrency@@SAPEAVExternalContextBase@23@PEAV423@@Z 0000000140116d30 f i libconcrtd:SchedulerBase.obj
 0001:00115d50       ?Next@?$LockFreeStack@VRealizedChore@details@Concurrency@@@details@Concurrency@@SAPEAVRealizedChore@23@PEAV423@@Z 0000000140116d50 f i libconcrtd:SchedulerBase.obj
 0001:00115d70       ?NotifyAcquired@InternalContextBase@details@Concurrency@@QEAAXXZ 0000000140116d70 f i libconcrtd:SchedulerBase.obj
 0001:00115d90       ?NotifyResource@SchedulingNode@details@Concurrency@@QEAAXII@Z 0000000140116d90 f i libconcrtd:SchedulerBase.obj
 0001:00115dd0       ?NotifyThrottledContext@SchedulerBase@details@Concurrency@@AEAA_NPEAVInternalContextBase@23@@Z 0000000140116dd0 f   libconcrtd:SchedulerBase.obj
 0001:00115eb0       ?ObservedVersion@SchedulerBase@details@Concurrency@@AEAAKK@Z 0000000140116eb0 f i libconcrtd:SchedulerBase.obj
 0001:00115ef0       ?OneShotStaticConstruction@SchedulerBase@details@Concurrency@@CAXXZ 0000000140116ef0 f   libconcrtd:SchedulerBase.obj
 0001:00115f10       ?OneShotStaticDestruction@SchedulerBase@details@Concurrency@@CAXXZ 0000000140116f10 f   libconcrtd:SchedulerBase.obj
 0001:00115f40       ?PerformServiceScan@SchedulerBase@details@Concurrency@@AEAAX_K@Z 0000000140116f40 f   libconcrtd:SchedulerBase.obj
 0001:00116210       ?PhaseOneShutdown@SchedulerBase@details@Concurrency@@AEAAXXZ 0000000140117210 f   libconcrtd:SchedulerBase.obj
 0001:001163a0       ?PhaseTwoShutdown@SchedulerBase@details@Concurrency@@AEAAXXZ 00000001401173a0 f   libconcrtd:SchedulerBase.obj
 0001:00116590       ?Pop@?$LockFreeStack@VExternalContextBase@details@Concurrency@@@details@Concurrency@@QEAAPEAVExternalContextBase@23@XZ 0000000140117590 f i libconcrtd:SchedulerBase.obj
 0001:001165c0       ?Pop@?$LockFreeStack@VInternalContextBase@details@Concurrency@@@details@Concurrency@@QEAAPEAVInternalContextBase@23@XZ 00000001401175c0 f i libconcrtd:SchedulerBase.obj
 0001:001165c0       ?Pop@?$LockFreeStack@VRealizedChore@details@Concurrency@@@details@Concurrency@@QEAAPEAVRealizedChore@23@XZ 00000001401175c0 f i libconcrtd:SchedulerBase.obj
 0001:001165f0       ?Pop@?$LockFreeStack@VSubAllocator@details@Concurrency@@@details@Concurrency@@QEAAPEAVSubAllocator@23@XZ 00000001401175f0 f i libconcrtd:SchedulerBase.obj
 0001:00116620       ?PublishNewDataVersion@SchedulerBase@details@Concurrency@@AEAAKXZ 0000000140117620 f i libconcrtd:SchedulerBase.obj
 0001:00116680       ?PullFromFreePool@?$ListArray@VScheduleGroupBase@details@Concurrency@@@details@Concurrency@@QEAAPEAVScheduleGroupBase@23@XZ 0000000140117680 f i libconcrtd:SchedulerBase.obj
 0001:001166c0       ?Push@?$LockFreePushStack@VContextNode@SchedulerBase@details@Concurrency@@@details@Concurrency@@QEAAXPEAVContextNode@SchedulerBase@23@@Z 00000001401176c0 f i libconcrtd:SchedulerBase.obj
 0001:00116710       ?Push@?$LockFreeStack@VExternalContextBase@details@Concurrency@@@details@Concurrency@@QEAAXPEAVExternalContextBase@23@@Z 0000000140117710 f i libconcrtd:SchedulerBase.obj
 0001:00116740       ?Push@?$LockFreeStack@VRealizedChore@details@Concurrency@@@details@Concurrency@@QEAAXPEAVRealizedChore@23@@Z 0000000140117740 f i libconcrtd:SchedulerBase.obj
 0001:00116740       ?Push@?$LockFreeStack@VInternalContextBase@details@Concurrency@@@details@Concurrency@@QEAAXPEAVInternalContextBase@23@@Z 0000000140117740 f i libconcrtd:SchedulerBase.obj
 0001:00116770       ?Push@?$LockFreeStack@VSubAllocator@details@Concurrency@@@details@Concurrency@@QEAAXPEAVSubAllocator@23@@Z 0000000140117770 f i libconcrtd:SchedulerBase.obj
 0001:001167a0       ?PushRunnableToInactive@SchedulerBase@details@Concurrency@@UEAA_NPEAVInternalContextBase@23@Vlocation@3@@Z 00000001401177a0 f   libconcrtd:SchedulerBase.obj
 0001:00116880       ?Reallocate@QuickBitSet@details@Concurrency@@IEAAXI@Z 0000000140117880 f i libconcrtd:SchedulerBase.obj
 0001:00116920       ?Reference@ScheduleGroupBase@details@Concurrency@@UEAAIXZ 0000000140117920 f i libconcrtd:SchedulerBase.obj
 0001:00116940       ?Reference@SchedulerBase@details@Concurrency@@UEAAIXZ 0000000140117940 f   libconcrtd:SchedulerBase.obj
 0001:00116a50       ?ReferenceForAttach@SchedulerBase@details@Concurrency@@IEAAXXZ 0000000140117a50 f   libconcrtd:SchedulerBase.obj
 0001:00116a90       ?RegisterShutdownEvent@SchedulerBase@details@Concurrency@@UEAAXPEAX@Z 0000000140117a90 f   libconcrtd:SchedulerBase.obj
 0001:00116bd0       ?Release@?$SafeSQueue@VSafePointInvocation@details@Concurrency@@V_HyperNonReentrantLock@23@@details@Concurrency@@QEBAXXZ 0000000140117bd0 f i libconcrtd:SchedulerBase.obj
 0001:00116bf0       ?Release@ScheduleGroupBase@details@Concurrency@@UEAAIXZ 0000000140117bf0 f i libconcrtd:SchedulerBase.obj
 0001:00116c10       ?Release@SchedulerBase@details@Concurrency@@UEAAIXZ 0000000140117c10 f   libconcrtd:SchedulerBase.obj
 0001:00116c50       ?ReleaseExternalContext@SchedulerBase@details@Concurrency@@AEAAXPEAVExternalContextBase@23@@Z 0000000140117c50 f   libconcrtd:SchedulerBase.obj
 0001:00116cc0       ?ReleaseForDetach@SchedulerBase@details@Concurrency@@IEAAXXZ 0000000140117cc0 f   libconcrtd:SchedulerBase.obj
 0001:00116d00       ?ReleaseInternalContext@SchedulerBase@details@Concurrency@@QEAAXPEAVInternalContextBase@23@_N@Z 0000000140117d00 f   libconcrtd:SchedulerBase.obj
 0001:00116e00       ?ReleaseRealizedChore@SchedulerBase@details@Concurrency@@QEAAXPEAVRealizedChore@23@@Z 0000000140117e00 f   libconcrtd:SchedulerBase.obj
 0001:00116eb0       ?ReleaseReservedContexts@SchedulerBase@details@Concurrency@@QEAAXXZ 0000000140117eb0 f   libconcrtd:SchedulerBase.obj
 0001:00116f50       ?ReleaseSuspendedVirtualProcessors@SchedulerBase@details@Concurrency@@AEAAXJ@Z 0000000140117f50 f   libconcrtd:SchedulerBase.obj
 0001:00116f90       ?ReleaseWrite@?$SafeRWList@UListEntry@details@Concurrency@@VNoCount@CollectionTypes@23@V_ReaderWriterLock@23@@details@Concurrency@@QEBAXXZ 0000000140117f90 f i libconcrtd:ContextBase.obj
 0001:00116f90       ?ReleaseWrite@?$SafeRWList@UBoostedObject@details@Concurrency@@VNoCount@CollectionTypes@23@V_ReaderWriterLock@23@@details@Concurrency@@QEBAXXZ 0000000140117f90 f i libconcrtd:SchedulerBase.obj
 0001:00116fb0       ?Remove@?$List@UBoostedObject@details@Concurrency@@VNoCount@CollectionTypes@23@@details@Concurrency@@QEAAXPEAUBoostedObject@23@@Z 0000000140117fb0 f i libconcrtd:SchedulerBase.obj
 0001:001170a0       ?Remove@?$ListArray@VExternalStatistics@details@Concurrency@@@details@Concurrency@@QEAA_NPEAVExternalStatistics@23@H_N@Z 00000001401180a0 f i libconcrtd:SchedulerBase.obj
 0001:00117420       ?Remove@?$ListArray@VExternalStatistics@details@Concurrency@@@details@Concurrency@@QEAA_NPEAVExternalStatistics@23@_N@Z 0000000140118420 f i libconcrtd:SchedulerBase.obj
 0001:00117460       ?Remove@?$ListArray@VScheduleGroupBase@details@Concurrency@@@details@Concurrency@@QEAA_NPEAVScheduleGroupBase@23@H_N@Z 0000000140118460 f i libconcrtd:SchedulerBase.obj
 0001:001177e0       ?Remove@?$ListArray@VScheduleGroupBase@details@Concurrency@@@details@Concurrency@@QEAA_NPEAVScheduleGroupBase@23@_N@Z 00000001401187e0 f i libconcrtd:SchedulerBase.obj
 0001:00117820       ?RemoveHead@?$List@UBoostedObject@details@Concurrency@@VNoCount@CollectionTypes@23@@details@Concurrency@@QEAAPEAUBoostedObject@23@XZ 0000000140118820 f i libconcrtd:SchedulerBase.obj
 0001:001178a0       ?RemoveHead@?$List@VWaitNode@SchedulerBase@details@Concurrency@@VNoCount@CollectionTypes@34@@details@Concurrency@@QEAAPEAVWaitNode@SchedulerBase@23@XZ 00000001401188a0 f i libconcrtd:SchedulerBase.obj
 0001:00117920       ?RemoveHead@?$SafeRWList@VWaitNode@SchedulerBase@details@Concurrency@@VNoCount@CollectionTypes@34@V_ReaderWriterLock@34@@details@Concurrency@@QEAAPEAVWaitNode@SchedulerBase@23@XZ 0000000140118920 f i libconcrtd:SchedulerBase.obj
 0001:00117970       ?RemovePrioritizedObject@SchedulerBase@details@Concurrency@@QEAAXPEAUBoostedObject@23@@Z 0000000140118970 f   libconcrtd:SchedulerBase.obj
 0001:001179e0       ?RemoveScheduleGroup@SchedulerBase@details@Concurrency@@QEAAXPEAVScheduleGroupBase@23@@Z 00000001401189e0 f   libconcrtd:SchedulerBase.obj
 0001:00117a70       ?RemoveSegments@FairScheduleGroup@details@Concurrency@@MEAAXXZ 0000000140118a70 f i libconcrtd:SchedulerBase.obj
 0001:00117aa0       ?RemoveVirtualProcessors@SchedulerBase@details@Concurrency@@IEAAXPEAPEAUIVirtualProcessorRoot@3@I@Z 0000000140118aa0 f   libconcrtd:SchedulerBase.obj
 0001:00117e50       ?Resurrect@SchedulerBase@details@Concurrency@@AEAAXXZ 0000000140118e50 f   libconcrtd:SchedulerBase.obj
 0001:00117f20       ?ReturnSubAllocator@SchedulerBase@details@Concurrency@@SAXPEAVSubAllocator@23@@Z 0000000140118f20 f   libconcrtd:SchedulerBase.obj
 0001:00118000       ?SafeFastCurrentContext@SchedulerBase@details@Concurrency@@SAPEAVContextBase@23@XZ 0000000140119000 f   libconcrtd:SchedulerBase.obj
 0001:00118040       ?SafeReference@SchedulerBase@details@Concurrency@@AEAA_NXZ 0000000140119040 f   libconcrtd:SchedulerBase.obj
 0001:00118070       ?ScheduleTask@SchedulerBase@details@Concurrency@@UEAAXP6AXPEAX@Z0@Z 0000000140119070 f   libconcrtd:SchedulerBase.obj
 0001:00118160       ?ScheduleTask@SchedulerBase@details@Concurrency@@UEAAXP6AXPEAX@Z0AEAVlocation@3@@Z 0000000140119160 f   libconcrtd:SchedulerBase.obj
 0001:00118230       ?Set@QuickBitSet@details@Concurrency@@QEAAXI@Z 0000000140119230 f i libconcrtd:SchedulerBase.obj
 0001:001182e0       ?SetDebugBits@InternalContextBase@details@Concurrency@@QEAAXK@Z 00000001401192e0 f i libconcrtd:SchedulerBase.obj
 0001:00118310       ?SetExternalAllocatorFlag@SubAllocator@details@Concurrency@@QEAAX_N@Z 0000000140119310 f i libconcrtd:SchedulerBase.obj
 0001:00118330       ?SetNextSchedulingRing@SchedulerBase@details@Concurrency@@QEAAXPEAVSchedulingRing@23@@Z 0000000140119330 f   libconcrtd:SchedulerBase.obj
 0001:001183c0       ?SetOwningNode@SchedulingRing@details@Concurrency@@AEAAXPEAVSchedulingNode@23@@Z 00000001401193c0 f i libconcrtd:SchedulerBase.obj
 0001:001183e0       ?SetScheduler@?$ListArray@VScheduleGroupBase@details@Concurrency@@@details@Concurrency@@QEAAXPEAVSchedulerBase@23@@Z 00000001401193e0 f i libconcrtd:SchedulerBase.obj
 0001:00118400       ?SpinUntilBitsReset@details@Concurrency@@YAJPECJJ@Z 0000000140119400 f i libconcrtd:SchedulerBase.obj
 0001:00118470       ?SpinUntilBitsSet@details@Concurrency@@YAJPECJJ@Z 0000000140119470 f i libconcrtd:SchedulerBase.obj
 0001:001184e0       ?StampThrottledCreate@SchedulerBase@details@Concurrency@@QEAAXXZ 00000001401194e0 f i libconcrtd:SchedulerBase.obj
 0001:00118500       ?StartupIdleVirtualProcessor@SchedulerBase@details@Concurrency@@QEAA_NPEAVScheduleGroupSegmentBase@23@Vlocation@3@@Z 0000000140119500 f i libconcrtd:SchedulerBase.obj
 0001:00118570       ?StartupNewVirtualProcessor@SchedulerBase@details@Concurrency@@UEAAXPEAVScheduleGroupSegmentBase@23@Vlocation@3@@Z 0000000140119570 f i libconcrtd:SchedulerBase.obj
 0001:001185d0       ?StartupVirtualProcessor@SchedulerBase@details@Concurrency@@QEAA_NPEAVScheduleGroupSegmentBase@23@Vlocation@3@K@Z 00000001401195d0 f   libconcrtd:SchedulerBase.obj
 0001:00118680       ?StaticConstruction@SchedulerBase@details@Concurrency@@CAXXZ 0000000140119680 f   libconcrtd:SchedulerBase.obj
 0001:001186a0       ?StaticDestruction@SchedulerBase@details@Concurrency@@CAXXZ 00000001401196a0 f   libconcrtd:SchedulerBase.obj
 0001:00118740       ?Statistics@SchedulerBase@details@Concurrency@@IEAAXPEAI00@Z 0000000140119740 f   libconcrtd:SchedulerBase.obj
 0001:00118a20       ?SweepSchedulerForFinalize@SchedulerBase@details@Concurrency@@AEAAXXZ 0000000140119a20 f   libconcrtd:SchedulerBase.obj
 0001:00118c00       ?ThrottlerDispatch@SchedulerBase@details@Concurrency@@AEAAXXZ 0000000140119c00 f   libconcrtd:SchedulerBase.obj
 0001:00118f40       ?ThrottlerDispatchBridge@SchedulerBase@details@Concurrency@@CAXPEAU_TP_CALLBACK_INSTANCE@@PEAXPEAU_TP_TIMER@@@Z 0000000140119f40 f i libconcrtd:SchedulerBase.obj
 0001:00118f70       ?ThrottlerDispatchBridgeXP@SchedulerBase@details@Concurrency@@CAXPEAXE@Z 0000000140119f70 f i libconcrtd:SchedulerBase.obj
 0001:00118f90       ?ThrottlerTrampoline@SchedulerBase@details@Concurrency@@CAXPEAXE@Z 0000000140119f90 f   libconcrtd:SchedulerBase.obj
 0001:00119000       ?ThrottlingDelta@SchedulerBase@details@Concurrency@@QEAAKXZ 000000014011a000 f i libconcrtd:SchedulerBase.obj
 0001:00119040       ?ThrottlingTime@SchedulerBase@details@Concurrency@@QEAAKK@Z 000000014011a040 f   libconcrtd:SchedulerBase.obj
 0001:00119180       ?ThrowSchedulerEvent@SchedulerBase@details@Concurrency@@CAXW4ConcRT_EventType@3@EI@Z 000000014011a180 f   libconcrtd:SchedulerBase.obj
 0001:00119230       ?TimeSinceServicing@ScheduleGroupSegmentBase@details@Concurrency@@QEAAK_K@Z 000000014011a230 f i libconcrtd:SchedulerBase.obj
 0001:00119260       ?TimeSinceServicing@VirtualProcessor@details@Concurrency@@QEAAK_K@Z 000000014011a260 f i libconcrtd:SchedulerBase.obj
 0001:00119290       ?TraceSchedulerEvent@SchedulerBase@details@Concurrency@@AEAAXW4ConcRT_EventType@3@EI@Z 000000014011a290 f i libconcrtd:SchedulerBase.obj
 0001:001192e0       ?TriggerCommitSafePoints@SchedulerBase@details@Concurrency@@QEAAXPEAVSafePointMarker@23@@Z 000000014011a2e0 f   libconcrtd:SchedulerBase.obj
 0001:00119340       ?TypeOfWorkPending@SchedulerBase@details@Concurrency@@MEAA?AW4PendingWorkType@123@XZ 000000014011a340 f   libconcrtd:SchedulerBase.obj
 0001:00119390       ?UnlockedAddHead@?$SafeRWList@UBoostedObject@details@Concurrency@@VNoCount@CollectionTypes@23@V_ReaderWriterLock@23@@details@Concurrency@@QEAAXPEAUBoostedObject@23@@Z 000000014011a390 f i libconcrtd:SchedulerBase.obj
 0001:00119410       ?UnlockedRemove@?$SafeRWList@UBoostedObject@details@Concurrency@@VNoCount@CollectionTypes@23@V_ReaderWriterLock@23@@details@Concurrency@@QEAAXPEAUBoostedObject@23@@Z 000000014011a410 f i libconcrtd:SchedulerBase.obj
 0001:00119490       ?UnlockedRemoveHead@?$SafeRWList@UBoostedObject@details@Concurrency@@VNoCount@CollectionTypes@23@V_ReaderWriterLock@23@@details@Concurrency@@QEAAPEAUBoostedObject@23@XZ 000000014011a490 f i libconcrtd:SchedulerBase.obj
 0001:00119510       ?UpdateCommitVersion@SchedulerBase@details@Concurrency@@AEAAKK@Z 000000014011a510 f   libconcrtd:SchedulerBase.obj
 0001:00119690       ?UpdatePendingVersion@SchedulerBase@details@Concurrency@@AEAAKXZ 000000014011a690 f   libconcrtd:SchedulerBase.obj
 0001:00119710       ?VirtualProcessorActive@SchedulerBase@details@Concurrency@@QEAA_N_N@Z 000000014011a710 f   libconcrtd:SchedulerBase.obj
 0001:00119aa0       ?VirtualProcessorActiveNotification@SchedulerBase@details@Concurrency@@MEAAX_NJ@Z 000000014011aaa0 f i libconcrtd:SchedulerBase.obj
 0001:00119ab0       ?VirtualProcessorIdle@SchedulerBase@details@Concurrency@@QEAAX_N@Z 000000014011aab0 f   libconcrtd:SchedulerBase.obj
 0001:00119c70       ?Wipe@?$Hash@II@details@Concurrency@@QEAAXXZ 000000014011ac70 f i libconcrtd:SchedulerBase.obj
 0001:00119d20       ?_Assign@location@Concurrency@@QEAAXAEBV12@@Z 000000014011ad20 f i libconcrtd:SchedulerBase.obj
 0001:00119dc0       ?_GetId@location@Concurrency@@QEBAIXZ 000000014011adc0 f i libconcrtd:SchedulerBase.obj
 0001:00119dc0       ?GetExecutionResourceTls@?$ThreadProxyFactory@VFreeThreadProxy@details@Concurrency@@@details@Concurrency@@UEAAKXZ 000000014011adc0 f i libconcrtd:ThreadProxyFactoryManager.obj
 0001:00119dd0       ?_GetType@location@Concurrency@@QEBA?AW4_Type@12@XZ 000000014011add0 f i libconcrtd:SchedulerBase.obj
 0001:00119df0       ?_GetVirtualProcessor@InternalContextBase@details@Concurrency@@IEBAPEAVVirtualProcessor@23@XZ 000000014011adf0 f i libconcrtd:SchedulerBase.obj
 0001:00119e50       ?_HasWriteLock@_ReaderWriterLock@details@Concurrency@@QEBA_NXZ 000000014011ae50 f i libconcrtd:SchedulerBase.obj
 0001:00119e80       ?_IsEnabled@_CONCRT_TRACE_INFO@details@Concurrency@@QEBA_NEK@Z 000000014011ae80 f i libconcrtd:SchedulerBase.obj
 0001:00119ee0       ?_Is_system@location@Concurrency@@QEBA_NXZ 000000014011aee0 f i libconcrtd:SchedulerBase.obj
 0001:00119f20       ?GetCurrentUmsThread@UMS@details@Concurrency@@SAPEAXXZ 000000014011af20 f   libconcrtd:UMSWrapper.obj
 0001:00119fa0       ?Initialize@UMS@details@Concurrency@@SAXXZ 000000014011afa0 f   libconcrtd:UMSWrapper.obj
 0001:0011a710       ?Initialized@UMS@details@Concurrency@@SA_NXZ 000000014011b710 f   libconcrtd:UMSWrapper.obj
 0001:0011a740       ?QueryUmsThreadInformation@UMS@details@Concurrency@@SAHPEAXW4_RTL_UMS_THREAD_INFO_CLASS@@0KPEAK@Z 000000014011b740 f   libconcrtd:UMSWrapper.obj
 0001:0011a800       ??0IExecutionContext@Concurrency@@QEAA@XZ 000000014011b800 f i libconcrtd:UMSSchedulingContext.obj
 0001:0011a820       ??0WorkItem@details@Concurrency@@QEAA@XZ 000000014011b820 f i libconcrtd:UMSSchedulingContext.obj
 0001:0011a850       ?ClearDebugBits@InternalContextBase@details@Concurrency@@QEAAXK@Z 000000014011b850 f i libconcrtd:UMSSchedulingContext.obj
 0001:0011a880       ?FastCurrentSchedulingContext@UMSThreadScheduler@details@Concurrency@@SAPEAVUMSSchedulingContext@23@XZ 000000014011b880 f i libconcrtd:UMSSchedulingContext.obj
 0001:0011a8a0       ?GetContext@WorkItem@details@Concurrency@@QEBAPEAVInternalContextBase@23@XZ 000000014011b8a0 f i libconcrtd:UMSSchedulingContext.obj
 0001:0011a8e0       ?GetDebugBits@InternalContextBase@details@Concurrency@@QEBAKXZ 000000014011b8e0 f i libconcrtd:UMSSchedulingContext.obj
 0001:0011a900       ?_GetToken@_CancellationTokenRegistration@details@Concurrency@@QEBAPEAV_CancellationTokenState@23@XZ 000000014011b900 f i libconcrtd:TaskCollectionBase.obj
 0001:0011a900       ?GetExecutingContext@VirtualProcessor@details@Concurrency@@QEAAPEAUIExecutionContext@3@XZ 000000014011b900 f i libconcrtd:UMSSchedulingContext.obj
 0001:0011a920       ?GetOwningRing@VirtualProcessor@details@Concurrency@@QEAAPEAVSchedulingRing@23@XZ 000000014011b920 f i libconcrtd:UMSSchedulingContext.obj
 0001:0011a940       ?IsAvailable@VirtualProcessor@details@Concurrency@@QEAA_NXZ 000000014011b940 f i libconcrtd:UMSSchedulingContext.obj
 0001:0011a970       ?OnPrimary@UMSSchedulingContext@details@Concurrency@@SA_NXZ 000000014011b970 f   libconcrtd:UMSSchedulingContext.obj
 0001:0011a9a0       ?Search@WorkSearchContext@details@Concurrency@@QEAA_NPEAVWorkItem@23@PEAVScheduleGroupSegmentBase@23@_NK@Z 000000014011b9a0 f i libconcrtd:UMSSchedulingContext.obj
 0001:0011aa00       ?SearchForWork@VirtualProcessor@details@Concurrency@@QEAA_NPEAVWorkItem@23@PEAVScheduleGroupSegmentBase@23@_NK@Z 000000014011ba00 f i libconcrtd:UMSSchedulingContext.obj
 0001:0011aa50       ??0IThreadProxy@Concurrency@@QEAA@XZ 000000014011ba50 f i libconcrtd:UMSThreadProxy.obj
 0001:0011aa70       ??0scheduler_worker_creation_error@Concurrency@@QEAA@AEBV01@@Z 000000014011ba70 f i libconcrtd:UMSThreadProxy.obj
 0001:0011aab0       ?FromUMSContext@UMSThreadProxy@details@Concurrency@@SAPEAV123@PEAX@Z 000000014011bab0 f   libconcrtd:UMSThreadProxy.obj
 0001:0011abd0       ?GetThreadProxyId@ResourceManager@details@Concurrency@@SAIXZ 000000014011bbd0 f i libconcrtd:UMSThreadProxy.obj
 0001:0011abf0       ??$_InternalDeleteHelper@VWorkQueue@details@Concurrency@@@details@Concurrency@@YAXPEAVWorkQueue@01@@Z 000000014011bbf0 f i libconcrtd:ContextBase.obj
 0001:0011ac30       ??0CancellationBeaconStack@ContextBase@details@Concurrency@@QEAA@XZ 000000014011bc30 f i libconcrtd:ContextBase.obj
 0001:0011ac90       ??0Context@Concurrency@@QEAA@XZ 000000014011bc90 f i libconcrtd:ContextBase.obj
 0001:0011acb0       ??0ContextBase@details@Concurrency@@QEAA@PEAVSchedulerBase@12@_N@Z 000000014011bcb0 f   libconcrtd:ContextBase.obj
 0001:0011aee0       ??0Slot@?$Mailbox@V_UnrealizedChore@details@Concurrency@@@details@Concurrency@@QEAA@AEBV0123@@Z 000000014011bee0 f i libconcrtd:ContextBase.obj
 0001:0011aee0       ??4Slot@?$Mailbox@VInternalContextBase@details@Concurrency@@@details@Concurrency@@QEAAAEAV0123@AEBV0123@@Z 000000014011bee0 f i libconcrtd:InternalContextBase.obj
 0001:0011aee0       ??4Slot@?$Mailbox@V_UnrealizedChore@details@Concurrency@@@details@Concurrency@@QEAAAEAV0123@AEBV0123@@Z 000000014011bee0 f i libconcrtd:ContextBase.obj
 0001:0011af10       ??0_Scoped_lock@_CriticalNonReentrantLock@details@Concurrency@@QEAA@AEAV123@@Z 000000014011bf10 f i libconcrtd:ContextBase.obj
 0001:0011af50       ??0_Scoped_lock_read@?$SafeRWList@UListEntry@details@Concurrency@@VNoCount@CollectionTypes@23@V_ReaderWriterLock@23@@details@Concurrency@@QEAA@AEAV123@@Z 000000014011bf50 f i libconcrtd:ContextBase.obj
 0001:0011af90       ??1?$Hash@PEAV_TaskCollection@details@Concurrency@@PEAV123@@details@Concurrency@@QEAA@XZ 000000014011bf90 f i libconcrtd:ContextBase.obj
 0001:0011afd0       ??1?$StructuredWorkStealingQueue@V_UnrealizedChore@details@Concurrency@@V_CriticalNonReentrantLock@23@@details@Concurrency@@QEAA@XZ 000000014011bfd0 f i libconcrtd:ContextBase.obj
 0001:0011afd0       ??1?$StructuredWorkStealingQueue@VInternalContextBase@details@Concurrency@@V_HyperNonReentrantLock@23@@details@Concurrency@@QEAA@XZ 000000014011bfd0 f i libconcrtd:VirtualProcessor.obj
 0001:0011b010       ??1?$WorkStealingQueue@V_UnrealizedChore@details@Concurrency@@V_CriticalNonReentrantLock@23@@details@Concurrency@@QEAA@XZ 000000014011c010 f i libconcrtd:ContextBase.obj
 0001:0011b050       ??1CancellationBeaconNode@CancellationBeaconStack@ContextBase@details@Concurrency@@QEAA@XZ 000000014011c050 f i libconcrtd:ContextBase.obj
 0001:0011b080       ??1CancellationBeaconStack@ContextBase@details@Concurrency@@QEAA@XZ 000000014011c080 f i libconcrtd:ContextBase.obj
 0001:0011b120       ??1Context@Concurrency@@MEAA@XZ 000000014011c120 f i libconcrtd:ContextBase.obj
 0001:0011b140       ??1ContextBase@details@Concurrency@@UEAA@XZ 000000014011c140 f i libconcrtd:ContextBase.obj
 0001:0011b180       ??1Segment@?$Mailbox@V_UnrealizedChore@details@Concurrency@@@details@Concurrency@@QEAA@XZ 000000014011c180 f i libconcrtd:ContextBase.obj
 0001:0011b180       ??1Segment@?$Mailbox@VInternalContextBase@details@Concurrency@@@details@Concurrency@@QEAA@XZ 000000014011c180 f i libconcrtd:VirtualProcessor.obj
 0001:0011b1c0       ??1WorkQueue@details@Concurrency@@QEAA@XZ 000000014011c1c0 f i libconcrtd:ContextBase.obj
 0001:0011b1f0       ??1_Scoped_lock@_CriticalNonReentrantLock@details@Concurrency@@QEAA@XZ 000000014011c1f0 f i libconcrtd:ContextBase.obj
 0001:0011b210       ??1_Scoped_lock_read@?$SafeRWList@UListEntry@details@Concurrency@@VNoCount@CollectionTypes@23@V_ReaderWriterLock@23@@details@Concurrency@@QEAA@XZ 000000014011c210 f i libconcrtd:ContextBase.obj
 0001:0011b230       ??8location@Concurrency@@QEBA_NAEBV01@@Z 000000014011c230 f i libconcrtd:ContextBase.obj
 0001:0011b290       ??ACancellationBeaconStack@ContextBase@details@Concurrency@@QEAAPEAUCancellationBeacon@123@J@Z 000000014011c290 f i libconcrtd:ContextBase.obj
 0001:0011b340       ??B?$atomic@J@std@@QEBAJXZ 000000014011c340 f i libconcrtd:ContextBase.obj
 0001:0011b360       ??_GCancellationBeaconNode@CancellationBeaconStack@ContextBase@details@Concurrency@@QEAAPEAXI@Z 000000014011c360 f i libconcrtd:ContextBase.obj
 0001:0011b3a0       ??_EContext@Concurrency@@MEAAPEAXI@Z 000000014011c3a0 f i libconcrtd:ContextBase.obj
 0001:0011b3a0       ??_GContext@Concurrency@@MEAAPEAXI@Z 000000014011c3a0 f i libconcrtd:ContextBase.obj
 0001:0011b3e0       ??_GContextBase@details@Concurrency@@UEAAPEAXI@Z 000000014011c3e0 f i libconcrtd:ContextBase.obj
 0001:0011b3e0       ??_EContextBase@details@Concurrency@@UEAAPEAXI@Z 000000014011c3e0 f i libconcrtd:ContextBase.obj
 0001:0011b420       ??_GSegment@?$Mailbox@VInternalContextBase@details@Concurrency@@@details@Concurrency@@QEAAPEAXI@Z 000000014011c420 f i libconcrtd:VirtualProcessor.obj
 0001:0011b420       ??_GSegment@?$Mailbox@V_UnrealizedChore@details@Concurrency@@@details@Concurrency@@QEAAPEAXI@Z 000000014011c420 f i libconcrtd:ContextBase.obj
 0001:0011b460       ??_GWorkQueue@details@Concurrency@@QEAAPEAXI@Z 000000014011c460 f i libconcrtd:ContextBase.obj
 0001:0011b4a0       ??_G_TaskCollection@details@Concurrency@@QEAAPEAXI@Z 000000014011c4a0 f i libconcrtd:ContextBase.obj
 0001:0011b4e0       ?AcquireRead@?$SafeRWList@UListEntry@details@Concurrency@@VNoCount@CollectionTypes@23@V_ReaderWriterLock@23@@details@Concurrency@@QEBAXXZ 000000014011c4e0 f i libconcrtd:ContextBase.obj
 0001:0011b500       ?Add@?$ListArray@VWorkQueue@details@Concurrency@@@details@Concurrency@@QEAAHPEAVWorkQueue@23@@Z 000000014011c500 f i libconcrtd:ContextBase.obj
 0001:0011b9b0       ?AddStealer@ContextBase@details@Concurrency@@QEAAXPEAV123@_N@Z 000000014011c9b0 f   libconcrtd:ContextBase.obj
 0001:0011ba10       ?AddTail@?$List@UListEntry@details@Concurrency@@VNoCount@CollectionTypes@23@@details@Concurrency@@QEAAXPEAUListEntry@23@@Z 000000014011ca10 f i libconcrtd:ContextBase.obj
 0001:0011bb00       ?AddTail@?$SafeRWList@UListEntry@details@Concurrency@@VNoCount@CollectionTypes@23@V_ReaderWriterLock@23@@details@Concurrency@@QEAAXPEAUListEntry@23@@Z 000000014011cb00 f i libconcrtd:ContextBase.obj
 0001:0011bb50       ?CancelCollection@ContextBase@details@Concurrency@@QEAAXH@Z 000000014011cb50 f   libconcrtd:ContextBase.obj
 0001:0011bc70       ?CancelCollectionComplete@ContextBase@details@Concurrency@@QEAA_NH@Z 000000014011cc70 f   libconcrtd:ContextBase.obj
 0001:0011bd40       ?CancelEntireContext@ContextBase@details@Concurrency@@QEAAXXZ 000000014011cd40 f i libconcrtd:ContextBase.obj
 0001:0011bd70       ?CancelStealers@ContextBase@details@Concurrency@@QEAAXPEAV_TaskCollectionBase@23@@Z 000000014011cd70 f   libconcrtd:ContextBase.obj
 0001:0011c060       ?CheckForDeletion@?$ListArray@VWorkQueue@details@Concurrency@@@details@Concurrency@@AEAAXXZ 000000014011d060 f i libconcrtd:ContextBase.obj
 0001:0011c0c0       ?CheckForDeletionBridge@?$ListArray@VWorkQueue@details@Concurrency@@@details@Concurrency@@CAXPEAV123@@Z 000000014011d0c0 f i libconcrtd:ContextBase.obj
 0001:0011c0e0       ?Claim@Slot@?$Mailbox@V_UnrealizedChore@details@Concurrency@@@details@Concurrency@@QEAA_NPEAPEAV_UnrealizedChore@34@@Z 000000014011d0e0 f i libconcrtd:ContextBase.obj
 0001:0011c0e0       ?Claim@Slot@?$Mailbox@VInternalContextBase@details@Concurrency@@@details@Concurrency@@QEAA_NPEAPEAVInternalContextBase@34@@Z 000000014011d0e0 f i libconcrtd:VirtualProcessor.obj
 0001:0011c1d0       ?Cleanup@ContextBase@details@Concurrency@@QEAAXXZ 000000014011d1d0 f   libconcrtd:ContextBase.obj
 0001:0011c240       ?ClearAliasTable@ContextBase@details@Concurrency@@QEAAXXZ 000000014011d240 f   libconcrtd:ContextBase.obj
 0001:0011c2d0       ?ClearContextTls@ContextBase@details@Concurrency@@AEAAXXZ 000000014011d2d0 f   libconcrtd:ContextBase.obj
 0001:0011c350       ?Count@?$Hash@PEAV_TaskCollection@details@Concurrency@@PEAV123@@details@Concurrency@@QEBAHXZ 000000014011d350 f i libconcrtd:ContextBase.obj
 0001:0011c350       ?_GetBindingId@location@Concurrency@@QEBAIXZ 000000014011d350 f i libconcrtd:SchedulingNode.obj
 0001:0011c360       ?CreateWorkQueue@ContextBase@details@Concurrency@@QEAAXXZ 000000014011d360 f   libconcrtd:ContextBase.obj
 0001:0011c500       ?Delete@?$Hash@PEAV_TaskCollection@details@Concurrency@@PEAV123@@details@Concurrency@@QEAA_NAEBQEAV_TaskCollection@23@@Z 000000014011d500 f i libconcrtd:ContextBase.obj
 0001:0011c530       ?DeleteElements@?$ListArray@VWorkQueue@details@Concurrency@@@details@Concurrency@@AEAAXPEAU_SLIST_ENTRY@@@Z 000000014011d530 f i libconcrtd:ContextBase.obj
 0001:0011c580       ?Dereference@Segment@?$Mailbox@VInternalContextBase@details@Concurrency@@@details@Concurrency@@QEAAXXZ 000000014011d580 f i libconcrtd:VirtualProcessor.obj
 0001:0011c580       ?Dereference@Segment@?$Mailbox@V_UnrealizedChore@details@Concurrency@@@details@Concurrency@@QEAAXXZ 000000014011d580 f i libconcrtd:ContextBase.obj
 0001:0011c5c0       ?DereferenceForCancellation@ContextBase@details@Concurrency@@QEAAXXZ 000000014011d5c0 f   libconcrtd:ContextBase.obj
 0001:0011c5e0       ?DetachStealers@ContextBase@details@Concurrency@@QEAAXXZ 000000014011d5e0 f   libconcrtd:ContextBase.obj
 0001:0011c8a0       ?Empty@?$WorkStealingQueue@V_UnrealizedChore@details@Concurrency@@V_CriticalNonReentrantLock@23@@details@Concurrency@@QEBA_NXZ 000000014011d8a0 f i libconcrtd:ContextBase.obj
 0001:0011c8a0       ?Empty@?$StructuredWorkStealingQueue@V_UnrealizedChore@details@Concurrency@@V_CriticalNonReentrantLock@23@@details@Concurrency@@QEBA_NXZ 000000014011d8a0 f i libconcrtd:ScheduleGroupBase.obj
 0001:0011c8a0       ?Empty@?$StructuredWorkStealingQueue@VInternalContextBase@details@Concurrency@@V_HyperNonReentrantLock@23@@details@Concurrency@@QEBA_NXZ 000000014011d8a0 f i libconcrtd:SearchAlgorithms.obj
 0001:0011c8e0       ?EnterCriticalRegion@ContextBase@details@Concurrency@@QEAAHXZ 000000014011d8e0 f   libconcrtd:ContextBase.obj
 0001:0011c930       ?EnterCriticalRegionHelper@ContextBase@details@Concurrency@@UEAAHXZ 000000014011d930 f i libconcrtd:ContextBase.obj
 0001:0011c990       ?EnterHyperCriticalRegion@ContextBase@details@Concurrency@@QEAAHXZ 000000014011d990 f   libconcrtd:ContextBase.obj
 0001:0011c9e0       ?EnterHyperCriticalRegionHelper@ContextBase@details@Concurrency@@UEAAHXZ 000000014011d9e0 f i libconcrtd:ContextBase.obj
 0001:0011ca20       ?ExitCriticalRegion@ContextBase@details@Concurrency@@QEAAHXZ 000000014011da20 f   libconcrtd:ContextBase.obj
 0001:0011ca70       ?ExitCriticalRegionHelper@ContextBase@details@Concurrency@@UEAAHXZ 000000014011da70 f i libconcrtd:ContextBase.obj
 0001:0011caf0       ?ExitHyperCriticalRegion@ContextBase@details@Concurrency@@QEAAHXZ 000000014011daf0 f   libconcrtd:ContextBase.obj
 0001:0011cb40       ?ExitHyperCriticalRegionHelper@ContextBase@details@Concurrency@@UEAAHXZ 000000014011db40 f i libconcrtd:ContextBase.obj
 0001:0011cbd0       ?Expire@Segment@?$Mailbox@V_UnrealizedChore@details@Concurrency@@@details@Concurrency@@QEAAXXZ 000000014011dbd0 f i libconcrtd:ContextBase.obj
 0001:0011cbd0       ?Expire@Segment@?$Mailbox@VInternalContextBase@details@Concurrency@@@details@Concurrency@@QEAAXXZ 000000014011dbd0 f i libconcrtd:VirtualProcessor.obj
 0001:0011cc10       ?FindAndDelete@?$Hash@PEAV_TaskCollection@details@Concurrency@@PEAV123@@details@Concurrency@@QEAA_NAEBQEAV_TaskCollection@23@PEAPEAV423@@Z 000000014011dc10 f i libconcrtd:ContextBase.obj
 0001:0011cc90       ?First@?$Hash@PEAV_TaskCollection@details@Concurrency@@PEAV123@@details@Concurrency@@QEAAPEAUListNode@123@PEAH@Z 000000014011dc90 f i libconcrtd:ContextBase.obj
 0001:0011cd10       ?First@?$List@UListEntry@details@Concurrency@@VNoCount@CollectionTypes@23@@details@Concurrency@@QEBAPEAUListEntry@23@XZ 000000014011dd10 f i libconcrtd:ContextBase.obj
 0001:0011cd50       ?FlagCancellationBeacons@ContextBase@details@Concurrency@@QEAAXH@Z 000000014011dd50 f   libconcrtd:ContextBase.obj
 0001:0011ce00       ?FlushWriteOwners@?$SafeRWList@UListEntry@details@Concurrency@@VNoCount@CollectionTypes@23@V_ReaderWriterLock@23@@details@Concurrency@@QEBAXXZ 000000014011de00 f i libconcrtd:ContextBase.obj
 0001:0011ce20       ?FreeNode@?$Hash@PEAV_TaskCollection@details@Concurrency@@PEAV123@@details@Concurrency@@CAXPEAUListNode@123@@Z 000000014011de20 f i libconcrtd:ContextBase.obj
 0001:0011ce70       ?GetCriticalRegionType@ContextBase@details@Concurrency@@UEBA?AW4CriticalRegionType@3@XZ 000000014011de70 f i libconcrtd:ContextBase.obj
 0001:0011cea0       ?GetGroup@ScheduleGroupSegmentBase@details@Concurrency@@QEBAPEAVScheduleGroupBase@23@XZ 000000014011dea0 f i libconcrtd:ContextBase.obj
 0001:0011cec0       ?GetId@ContextBase@details@Concurrency@@UEBAIXZ 000000014011dec0 f   libconcrtd:ContextBase.obj
 0001:0011ced0       ?GetIndirectAlias@ContextBase@details@Concurrency@@QEBAPEAV_TaskCollection@23@XZ 000000014011ded0 f   libconcrtd:ContextBase.obj
 0001:0011cef0       ?GetRootCollection@ContextBase@details@Concurrency@@QEAAPEAV_TaskCollectionBase@23@XZ 000000014011def0 f i libconcrtd:ContextBase.obj
 0001:0011cf00       ?GetScheduleGroup@ContextBase@details@Concurrency@@QEBAPEAVScheduleGroupBase@23@XZ 000000014011df00 f   libconcrtd:ContextBase.obj
 0001:0011cf40       ?GetScheduleGroupId@ContextBase@details@Concurrency@@UEBAIXZ 000000014011df40 f   libconcrtd:ContextBase.obj
 0001:0011cfa0       ?GetVirtualProcessorRoot@ExecutionResource@details@Concurrency@@QEAAPEAVVirtualProcessorRoot@23@XZ 000000014011dfa0 f   libconcrtd:SchedulerProxy.obj
 0001:0011cfa0       ?GetScheduleGroupSegment@ContextBase@details@Concurrency@@QEBAPEAVScheduleGroupSegmentBase@23@XZ 000000014011dfa0 f   libconcrtd:ContextBase.obj
 0001:0011cfb0       ?GetScheduler@ContextBase@details@Concurrency@@QEBAPEAVSchedulerBase@23@XZ 000000014011dfb0 f   libconcrtd:ContextBase.obj
 0001:0011cfc0       ?GetWorkQueue@ContextBase@details@Concurrency@@QEAAPEAVWorkQueue@23@XZ 000000014011dfc0 f i libconcrtd:ContextBase.obj
 0001:0011cff0       ?HasInlineCancellation@ContextBase@details@Concurrency@@QEBA_NXZ 000000014011dff0 f i libconcrtd:ContextBase.obj
 0001:0011d030       ?HasVirtualProcessorAvailableForNewWork@SchedulerBase@details@Concurrency@@QEBA_NXZ 000000014011e030 f i libconcrtd:ContextBase.obj
 0001:0011d070       ?HashValue@?$Hash@PEAV_TaskCollection@details@Concurrency@@PEAV123@@details@Concurrency@@CAIAEBQEAV_TaskCollection@23@H@Z 000000014011e070 f i libconcrtd:ContextBase.obj
 0001:0011d180       ?IncrementEnqueuedTaskCounter@ExternalContextBase@details@Concurrency@@QEAAXXZ 000000014011e180 f i libconcrtd:ContextBase.obj
 0001:0011d1a0       ?IncrementEnqueuedTaskCounter@ExternalStatistics@details@Concurrency@@QEAAXXZ 000000014011e1a0 f i libconcrtd:ContextBase.obj
 0001:0011d1c0       ?IncrementEnqueuedTaskCounter@InternalContextBase@details@Concurrency@@QEAAXXZ 000000014011e1c0 f i libconcrtd:ContextBase.obj
 0001:0011d220       ?InternalSignal@CancellationBeacon@ContextBase@details@Concurrency@@QEAAXXZ 000000014011e220 f i libconcrtd:ContextBase.obj
 0001:0011d240       ?IsCanceledAtDepth@ContextBase@details@Concurrency@@AEAA_NPEAV_TaskCollectionBase@23@H@Z 000000014011e240 f   libconcrtd:ContextBase.obj
 0001:0011d4c0       ?IsCanceledAtDepth@ContextBase@details@Concurrency@@QEAA_NPEAV_TaskCollectionBase@23@@Z 000000014011e4c0 f i libconcrtd:ContextBase.obj
 0001:0011d500       ?IsEntireContextCanceled@ContextBase@details@Concurrency@@QEBA_NXZ 000000014011e500 f i libconcrtd:ContextBase.obj
 0001:0011d540       ?IsInsideCriticalRegion@ContextBase@details@Concurrency@@QEBA_NXZ 000000014011e540 f   libconcrtd:ContextBase.obj
 0001:0011d5b0       ?IsLockHeld@WorkQueue@details@Concurrency@@QEBA_NXZ 000000014011e5b0 f i libconcrtd:ContextBase.obj
 0001:0011d5e0       ?IsUnstructuredEmpty@WorkQueue@details@Concurrency@@QEBA_NXZ 000000014011e5e0 f i libconcrtd:ContextBase.obj
 0001:0011d610       ?LockedSetOwningContext@WorkQueue@details@Concurrency@@QEAAXPEAVContextBase@23@@Z 000000014011e610 f i libconcrtd:ContextBase.obj
 0001:0011d660       ?Next@?$Hash@PEAV_TaskCollection@details@Concurrency@@PEAV123@@details@Concurrency@@QEAAPEAUListNode@123@PEAHPEAU4123@@Z 000000014011e660 f i libconcrtd:ContextBase.obj
 0001:0011d720       ?Next@?$List@UListEntry@details@Concurrency@@VNoCount@CollectionTypes@23@@details@Concurrency@@QEBAPEAUListEntry@23@PEAU423@@Z 000000014011e720 f i libconcrtd:ContextBase.obj
 0001:0011d760       ?NextList@?$Hash@PEAV_TaskCollection@details@Concurrency@@PEAV123@@details@Concurrency@@AEAAPEAUListNode@123@PEAH@Z 000000014011e760 f i libconcrtd:ContextBase.obj
 0001:0011d840       ?Pop@?$WorkStealingQueue@V_UnrealizedChore@details@Concurrency@@V_CriticalNonReentrantLock@23@@details@Concurrency@@QEAAPEAV_UnrealizedChore@23@XZ 000000014011e840 f i libconcrtd:ContextBase.obj
 0001:0011d930       ?PopContextFromTls@ContextBase@details@Concurrency@@AEAAPEAV123@XZ 000000014011e930 f   libconcrtd:ContextBase.obj
 0001:0011d970       ?PullFromFreePool@?$ListArray@VWorkQueue@details@Concurrency@@@details@Concurrency@@QEAAPEAVWorkQueue@23@XZ 000000014011e970 f i libconcrtd:ContextBase.obj
 0001:0011d9b0       ?PushContextToTls@ContextBase@details@Concurrency@@AEAAXPEAV123@@Z 000000014011e9b0 f   libconcrtd:ContextBase.obj
 0001:0011da40       ?Raise@CancellationBeacon@ContextBase@details@Concurrency@@QEAAXXZ 000000014011ea40 f i libconcrtd:ContextBase.obj
 0001:0011da50       ?RecomputeMaximumCancellationDepth@ContextBase@details@Concurrency@@AEAAXXZ 000000014011ea50 f   libconcrtd:ContextBase.obj
 0001:0011db90       ?ReferenceForCancellation@ContextBase@details@Concurrency@@QEAAXXZ 000000014011eb90 f   libconcrtd:ContextBase.obj
 0001:0011dbb0       ?ReleaseRead@?$SafeRWList@UListEntry@details@Concurrency@@VNoCount@CollectionTypes@23@V_ReaderWriterLock@23@@details@Concurrency@@QEBAXXZ 000000014011ebb0 f i libconcrtd:ContextBase.obj
 0001:0011dbd0       ?ReleaseWorkQueue@ContextBase@details@Concurrency@@IEAAXXZ 000000014011ebd0 f   libconcrtd:ContextBase.obj
 0001:0011dca0       ?Remove@?$Hash@PEAV_TaskCollection@details@Concurrency@@PEAV123@@details@Concurrency@@AEAAPEAUListNode@123@AEBQEAV_TaskCollection@23@H@Z 000000014011eca0 f i libconcrtd:ContextBase.obj
 0001:0011dd60       ?Remove@?$List@UListEntry@details@Concurrency@@VNoCount@CollectionTypes@23@@details@Concurrency@@QEAAXPEAUListEntry@23@@Z 000000014011ed60 f i libconcrtd:ContextBase.obj
 0001:0011de50       ?Remove@?$ListArray@VWorkQueue@details@Concurrency@@@details@Concurrency@@QEAA_NPEAVWorkQueue@23@H_N@Z 000000014011ee50 f i libconcrtd:ContextBase.obj
 0001:0011e1d0       ?Remove@?$ListArray@VWorkQueue@details@Concurrency@@@details@Concurrency@@QEAA_NPEAVWorkQueue@23@_N@Z 000000014011f1d0 f i libconcrtd:ContextBase.obj
 0001:0011e210       ?Remove@?$SafeRWList@UListEntry@details@Concurrency@@VNoCount@CollectionTypes@23@V_ReaderWriterLock@23@@details@Concurrency@@QEAAXPEAUListEntry@23@@Z 000000014011f210 f i libconcrtd:ContextBase.obj
 0001:0011e260       ?RemoveStealer@ContextBase@details@Concurrency@@QEAAXPEAV123@@Z 000000014011f260 f   libconcrtd:ContextBase.obj
 0001:0011e2a0       ?ScheduleGroupRefCount@ContextBase@details@Concurrency@@QEBAIXZ 000000014011f2a0 f   libconcrtd:ContextBase.obj
 0001:0011e2e0       ?SetAsCurrentTls@ContextBase@details@Concurrency@@IEAAXXZ 000000014011f2e0 f   libconcrtd:ContextBase.obj
 0001:0011e300       ?SetOwningContext@WorkQueue@details@Concurrency@@QEAAXPEAVContextBase@23@@Z 000000014011f300 f i libconcrtd:ContextBase.obj
 0001:0011e320       ?StaticDelete@Segment@?$Mailbox@VInternalContextBase@details@Concurrency@@@details@Concurrency@@SAXPEAU1234@@Z 000000014011f320 f i libconcrtd:VirtualProcessor.obj
 0001:0011e320       ?StaticDelete@Segment@?$Mailbox@V_UnrealizedChore@details@Concurrency@@@details@Concurrency@@SAXPEAU1234@@Z 000000014011f320 f i libconcrtd:ContextBase.obj
 0001:0011e360       ?StaticEnterCriticalRegion@ContextBase@details@Concurrency@@SAXXZ 000000014011f360 f   libconcrtd:ContextBase.obj
 0001:0011e390       ?StaticEnterHyperCriticalRegion@ContextBase@details@Concurrency@@SAXXZ 000000014011f390 f   libconcrtd:ContextBase.obj
 0001:0011e3c0       ?StaticExitCriticalRegion@ContextBase@details@Concurrency@@SAXXZ 000000014011f3c0 f   libconcrtd:ContextBase.obj
 0001:0011e3f0       ?StaticExitHyperCriticalRegion@ContextBase@details@Concurrency@@SAXXZ 000000014011f3f0 f   libconcrtd:ContextBase.obj
 0001:0011e420       ?SweepAliasTable@ContextBase@details@Concurrency@@QEAAXXZ 000000014011f420 f   libconcrtd:ContextBase.obj
 0001:0011e530       ?SweepUnstructured@ContextBase@details@Concurrency@@QEAAXP6A_NPEAV_UnrealizedChore@23@PEAX@Z12@Z 000000014011f530 f   libconcrtd:ContextBase.obj
 0001:0011e5d0       ?SyncPop@?$WorkStealingQueue@V_UnrealizedChore@details@Concurrency@@V_CriticalNonReentrantLock@23@@details@Concurrency@@AEAAPEAV_UnrealizedChore@23@XZ 000000014011f5d0 f i libconcrtd:ContextBase.obj
 0001:0011e740       ?ThrowContextEvent@ContextBase@details@Concurrency@@KAXW4ConcRT_EventType@3@EKK@Z 000000014011f740 f   libconcrtd:ContextBase.obj
 0001:0011e800       ?TraceContextEvent@ContextBase@details@Concurrency@@IEAAXW4ConcRT_EventType@3@EKK@Z 000000014011f800 f i libconcrtd:ContextBase.obj
 0001:0011e860       ?TryAcquireWrite@?$SafeRWList@UListEntry@details@Concurrency@@VNoCount@CollectionTypes@23@V_ReaderWriterLock@23@@details@Concurrency@@QEBA_NXZ 000000014011f860 f i libconcrtd:ContextBase.obj
 0001:0011e880       ?TryPop@?$WorkStealingQueue@V_UnrealizedChore@details@Concurrency@@V_CriticalNonReentrantLock@23@@details@Concurrency@@QEAAPEAV_UnrealizedChore@23@H@Z 000000014011f880 f i libconcrtd:ContextBase.obj
 0001:0011e980       ?TryPopUnstructured@ContextBase@details@Concurrency@@QEAAPEAV_UnrealizedChore@23@H@Z 000000014011f980 f   libconcrtd:ContextBase.obj
 0001:0011ea10       ?TryPopUnstructured@WorkQueue@details@Concurrency@@QEAAPEAV_UnrealizedChore@23@H@Z 000000014011fa10 f i libconcrtd:ContextBase.obj
 0001:0011ea40       ?UnlockedAddTail@?$SafeRWList@UListEntry@details@Concurrency@@VNoCount@CollectionTypes@23@V_ReaderWriterLock@23@@details@Concurrency@@QEAAXPEAUListEntry@23@@Z 000000014011fa40 f i libconcrtd:ContextBase.obj
 0001:0011eac0       ?UnlockedRemove@?$SafeRWList@UListEntry@details@Concurrency@@VNoCount@CollectionTypes@23@V_ReaderWriterLock@23@@details@Concurrency@@QEAAXPEAUListEntry@23@@Z 000000014011fac0 f i libconcrtd:ContextBase.obj
 0001:0011eb40       ?Wipe@?$Hash@PEAV_TaskCollection@details@Concurrency@@PEAV123@@details@Concurrency@@QEAAXXZ 000000014011fb40 f i libconcrtd:ContextBase.obj
 0001:0011ebf0       ?_CancelState@_TaskCollectionBase@details@Concurrency@@IEBA_KXZ 000000014011fbf0 f i libconcrtd:ContextBase.obj
 0001:0011ec10       ?_InliningDepth@_TaskCollectionBase@details@Concurrency@@QEBAHXZ 000000014011fc10 f i libconcrtd:ContextBase.obj
 0001:0011ec30       ?_IsCanceled@_CancellationTokenState@details@Concurrency@@QEBA_NXZ 000000014011fc30 f i libconcrtd:ContextBase.obj
 0001:0011ec70       ?_IsCurrentlyInlined@_TaskCollectionBase@details@Concurrency@@QEBA_NXZ 000000014011fc70 f i libconcrtd:ContextBase.obj
 0001:0011ecb0       ?_IsLockHeld@_CriticalNonReentrantLock@details@Concurrency@@QEBA_NXZ 000000014011fcb0 f i libconcrtd:ContextBase.obj
 0001:0011ecd0       ?_IsLockHeld@_NonReentrantLock@details@Concurrency@@QEBA_NXZ 000000014011fcd0 f i libconcrtd:ContextBase.obj
 0001:0011ed00       ?_IsMarkedForCancellation@_TaskCollectionBase@details@Concurrency@@IEBA_NXZ 000000014011fd00 f i libconcrtd:ContextBase.obj
 0001:0011ed40       ?_SafeGetParent@_TaskCollectionBase@details@Concurrency@@IEAAPEAV123@XZ 000000014011fd40 f i libconcrtd:ContextBase.obj
 0001:0011ed80       ?load@?$_Atomic_storage@J$03@std@@QEBAJXZ 000000014011fd80 f i libconcrtd:ContextBase.obj
 0001:0011edb0       ??$atomic_compare_exchange@J@details@Concurrency@@YAJAEAU?$atomic@J@std@@JJ@Z 000000014011fdb0 f i libconcrtd:TaskCollection.obj
 0001:0011edf0       ??$atomic_exchange@J@details@Concurrency@@YAJAEAU?$atomic@J@std@@J@Z 000000014011fdf0 f i libconcrtd:TaskCollection.obj
 0001:0011ee20       ??$wait@V<lambda_1>@?BE@??_DeregisterCallback@_CancellationTokenState@details@Concurrency@@QEAAXPEAV_CancellationTokenRegistration@45@@Z@@condition_variable@std@@QEAAXAEAV?$unique_lock@Vmutex@std@@@1@V<lambda_1>@?BE@??_DeregisterCallback@_CancellationTokenState@details@Concurrency@@QEAAXPEAV_CancellationTokenRegistration@67@@Z@@Z 000000014011fe20 f i libconcrtd:TaskCollection.obj
 0001:0011ee60       ??0<lambda_1>@?BE@??_DeregisterCallback@_CancellationTokenState@details@Concurrency@@QEAAXPEAV_CancellationTokenRegistration@34@@Z@QEAA@AEBQEAV534@@Z 000000014011fe60 f i libconcrtd:TaskCollection.obj
 0001:0011ee80       ??0?$_Atomic_integral@J$03@std@@QEAA@J@Z 000000014011fe80 f i libconcrtd:TaskCollection.obj
 0001:0011eeb0       ??0?$_Atomic_integral_facade@J@std@@QEAA@J@Z 000000014011feb0 f i libconcrtd:TaskCollection.obj
 0001:0011eee0       ??0?$_Atomic_storage@J$03@std@@QEAA@J@Z 000000014011fee0 f i libconcrtd:TaskCollection.obj
 0001:0011ef00       ??0?$_MallocaArrayHolder@PEAVevent@Concurrency@@@details@Concurrency@@QEAA@XZ 000000014011ff00 f i libconcrtd:TaskCollection.obj
 0001:0011ef40       ??0?$atomic@J@std@@QEAA@J@Z 000000014011ff40 f i libconcrtd:TaskCollection.obj
 0001:0011ef70       ??0CancellationTokenRegistration_TaskProc@details@Concurrency@@QEAA@P6AXPEAX@Z0H@Z 000000014011ff70 f i libconcrtd:TaskCollection.obj
 0001:0011efe0       ??0ListNode@?$Hash@PEAV_TaskCollection@details@Concurrency@@PEAV123@@details@Concurrency@@QEAA@AEBQEAV_TaskCollection@23@0@Z 000000014011ffe0 f i libconcrtd:TaskCollection.obj
 0001:0011f030       ??0SweeperContext@details@Concurrency@@QEAA@PEAV_TaskCollection@12@@Z 0000000140120030 f i libconcrtd:TaskCollection.obj
 0001:0011f060       ??0_CancellationTokenRegistration@details@Concurrency@@QEAA@J@Z 0000000140120060 f i libconcrtd:TaskCollection.obj
 0001:0011f0f0       ??0_Interruption_exception@details@Concurrency@@QEAA@AEBV012@@Z 00000001401200f0 f i libconcrtd:TaskCollection.obj
 0001:0011f130       ??0_Interruption_exception@details@Concurrency@@QEAA@XZ 0000000140120130 f i libconcrtd:TaskCollection.obj
 0001:0011f160       ??0_RefCounter@details@Concurrency@@IEAA@J@Z 0000000140120160 f i libconcrtd:TaskCollection.obj
 0001:0011f1e0       ??0_TaskCollection@details@Concurrency@@AEAA@PEAV012@_N@Z 00000001401201e0 f   libconcrtd:TaskCollection.obj
 0001:0011f3e0       ??0_TaskCollectionBase@details@Concurrency@@QEAA@XZ 00000001401203e0 f i libconcrtd:TaskCollection.obj
 0001:0011f440       ??0missing_wait@Concurrency@@QEAA@AEBV01@@Z 0000000140120440 f i libconcrtd:TaskCollection.obj
 0001:0011f480       ??1?$_MallocaArrayHolder@PEAVevent@Concurrency@@@details@Concurrency@@UEAA@XZ 0000000140120480 f i libconcrtd:TaskCollection.obj
 0001:0011f4e0       ??1CancellationTokenRegistration_TaskProc@details@Concurrency@@UEAA@XZ 00000001401204e0 f i libconcrtd:TaskCollection.obj
 0001:0011f500       ??1TaskStack@details@Concurrency@@QEAA@XZ 0000000140120500 f   libconcrtd:TaskCollection.obj
 0001:0011f540       ??1_CancellationTokenRegistration@details@Concurrency@@MEAA@XZ 0000000140120540 f i libconcrtd:TaskCollection.obj
 0001:0011f5e0       ??1_RefCounter@details@Concurrency@@UEAA@XZ 00000001401205e0 f i libconcrtd:TaskCollection.obj
 0001:0011f650       ??1_TaskCollection@details@Concurrency@@QEAA@XZ 0000000140120650 f   libconcrtd:TaskCollection.obj
 0001:0011f820       ??4?$atomic@J@std@@QEAAJJ@Z 0000000140120820 f i libconcrtd:TaskCollection.obj
 0001:0011f850       ??R<lambda_1>@?BE@??_DeregisterCallback@_CancellationTokenState@details@Concurrency@@QEAAXPEAV_CancellationTokenRegistration@34@@Z@QEBA_NXZ 0000000140120850 f i libconcrtd:TaskCollection.obj
 0001:0011f870       ??_G?$_MallocaArrayHolder@PEAVevent@Concurrency@@@details@Concurrency@@UEAAPEAXI@Z 0000000140120870 f i libconcrtd:TaskCollection.obj
 0001:0011f870       ??_E?$_MallocaArrayHolder@PEAVevent@Concurrency@@@details@Concurrency@@UEAAPEAXI@Z 0000000140120870 f i libconcrtd:TaskCollection.obj
 0001:0011f8b0       ??_ECancellationTokenRegistration_TaskProc@details@Concurrency@@UEAAPEAXI@Z 00000001401208b0 f i libconcrtd:TaskCollection.obj
 0001:0011f8b0       ??_GCancellationTokenRegistration_TaskProc@details@Concurrency@@UEAAPEAXI@Z 00000001401208b0 f i libconcrtd:TaskCollection.obj
 0001:0011f8f0       ??_GTaskStack@details@Concurrency@@QEAAPEAXI@Z 00000001401208f0 f i libconcrtd:TaskCollection.obj
 0001:0011f930       ??_G_CancellationTokenRegistration@details@Concurrency@@MEAAPEAXI@Z 0000000140120930 f i libconcrtd:TaskCollection.obj
 0001:0011f930       ??_E_CancellationTokenRegistration@details@Concurrency@@MEAAPEAXI@Z 0000000140120930 f i libconcrtd:TaskCollection.obj
 0001:0011f970       ??_E_RefCounter@details@Concurrency@@UEAAPEAXI@Z 0000000140120970 f i libconcrtd:TaskCollection.obj
 0001:0011f970       ??_G_RefCounter@details@Concurrency@@UEAAPEAXI@Z 0000000140120970 f i libconcrtd:TaskCollection.obj
 0001:0011f9b0       ??_Gexception_ptr@std@@QEAAPEAXI@Z 00000001401209b0 f i libconcrtd:TaskCollection.obj
 0001:0011f9f0       ?AddArbitraryAlias@ContextBase@details@Concurrency@@QEAAXPEAV_TaskCollection@23@0@Z 00000001401209f0 f i libconcrtd:TaskCollection.obj
 0001:0011fa40       ?Clear@TaskStack@details@Concurrency@@QEAAXXZ 0000000140120a40 f   libconcrtd:TaskCollection.obj
 0001:0011fa60       ?Find@?$Hash@PEAV_TaskCollection@details@Concurrency@@PEAV123@@details@Concurrency@@QEAAPEAUListNode@123@AEBQEAV_TaskCollection@23@PEAPEAV523@@Z 0000000140120a60 f i libconcrtd:TaskCollection.obj
 0001:0011fad0       ?GetArbitraryAlias@ContextBase@details@Concurrency@@QEAAPEAV_TaskCollection@23@PEAV423@@Z 0000000140120ad0 f i libconcrtd:TaskCollection.obj
 0001:0011fbc0       ?GetGoverningTokenState@ContextBase@details@Concurrency@@QEAAPEAV_CancellationTokenState@23@XZ 0000000140120bc0 f i libconcrtd:TaskCollection.obj
 0001:0011fbd0       ?GetWorkQueueIdentity@ContextBase@details@Concurrency@@QEAAIXZ 0000000140120bd0 f i libconcrtd:TaskCollection.obj
 0001:0011fbf0       ?Id@WorkQueue@details@Concurrency@@QEBAIXZ 0000000140120bf0 f i libconcrtd:TaskCollection.obj
 0001:0011fc10       ?IncrementDequeuedTaskCounter@ExternalContextBase@details@Concurrency@@QEAAXI@Z 0000000140120c10 f i libconcrtd:TaskCollection.obj
 0001:0011fc50       ?IncrementDequeuedTaskCounter@ExternalContextBase@details@Concurrency@@QEAAXXZ 0000000140120c50 f i libconcrtd:TaskCollection.obj
 0001:0011fc70       ?IncrementDequeuedTaskCounter@ExternalStatistics@details@Concurrency@@QEAAXI@Z 0000000140120c70 f i libconcrtd:TaskCollection.obj
 0001:0011fc90       ?IncrementDequeuedTaskCounter@ExternalStatistics@details@Concurrency@@QEAAXXZ 0000000140120c90 f i libconcrtd:TaskCollection.obj
 0001:0011fcb0       ?IncrementDequeuedTaskCounter@InternalContextBase@details@Concurrency@@QEAAXI@Z 0000000140120cb0 f i libconcrtd:TaskCollection.obj
 0001:0011fd10       ?IncrementDequeuedTaskCounter@InternalContextBase@details@Concurrency@@QEAAXXZ 0000000140120d10 f i libconcrtd:TaskCollection.obj
 0001:0011fd70       ?Insert@?$Hash@PEAV_TaskCollection@details@Concurrency@@PEAV123@@details@Concurrency@@QEAAPEAUListNode@123@AEBQEAV_TaskCollection@23@0@Z 0000000140120d70 f i libconcrtd:TaskCollection.obj
 0001:0011fe80       ?IsEmpty@TaskStack@details@Concurrency@@QEBA_NXZ 0000000140120e80 f   libconcrtd:TaskCollection.obj
 0001:0011feb0       ?Lookup@?$Hash@PEAV_TaskCollection@details@Concurrency@@PEAV123@@details@Concurrency@@AEAAPEAUListNode@123@AEBQEAV_TaskCollection@23@H@Z 0000000140120eb0 f i libconcrtd:TaskCollection.obj
 0001:0011ff70       ?Overflow@TaskStack@details@Concurrency@@QEBA_NXZ 0000000140120f70 f i libconcrtd:TaskCollection.obj
 0001:0011ff80       ?PendingCancel@ContextBase@details@Concurrency@@QEAAXXZ 0000000140120f80 f i libconcrtd:TaskCollection.obj
 0001:0011ffa0       ?Pop@TaskStack@details@Concurrency@@QEAAHXZ 0000000140120fa0 f   libconcrtd:TaskCollection.obj
 0001:00120050       ?ResetOverflow@TaskStack@details@Concurrency@@QEAAXXZ 0000000140121050 f i libconcrtd:TaskCollection.obj
 0001:00120060       ?_Abort@_TaskCollection@details@Concurrency@@AEAAX_N@Z 0000000140121060 f   libconcrtd:TaskCollection.obj
 0001:00120390       ?_AbortiveSweep@_TaskCollection@details@Concurrency@@AEAAXPEAX@Z 0000000140121390 f   libconcrtd:TaskCollection.obj
 0001:00120440       ?_Alias@_TaskCollection@details@Concurrency@@AEAAPEAV123@XZ 0000000140121440 f   libconcrtd:TaskCollection.obj
 0001:001206d0       ?_Cancel@_StructuredTaskCollection@details@Concurrency@@QEAAXXZ 00000001401216d0 f   libconcrtd:TaskCollection.obj
 0001:00120780       ?_Cancel@_TaskCollection@details@Concurrency@@AEAAX_NPEAV123@@Z 0000000140121780 f   libconcrtd:TaskCollection.obj
 0001:00120920       ?_CancelDirectAliases@_TaskCollection@details@Concurrency@@AEAAX_NPEAV123@@Z 0000000140121920 f   libconcrtd:TaskCollection.obj
 0001:001209d0       ?_CancelFromArbitraryThread@_TaskCollection@details@Concurrency@@AEAAX_N@Z 00000001401219d0 f   libconcrtd:TaskCollection.obj
 0001:00120b00       ?_CancelStolenContexts@_StructuredTaskCollection@details@Concurrency@@QEAAXXZ 0000000140121b00 f   libconcrtd:TaskCollection.obj
 0001:00120b30       ?_CancelStolenContexts@_TaskCollection@details@Concurrency@@AEAAX_N0@Z 0000000140121b30 f   libconcrtd:TaskCollection.obj
 0001:00120c20       ?_Check_memory_order@std@@YAXW4memory_order@1@@Z 0000000140121c20 f i libconcrtd:TaskCollection.obj
 0001:00120ca0       ?_CollectionMatchPredicate@_TaskCollection@details@Concurrency@@CA_NPEAV_UnrealizedChore@23@PEAX@Z 0000000140121ca0 f   libconcrtd:TaskCollection.obj
 0001:00120cf0       ?_CountUp@_StructuredTaskCollection@details@Concurrency@@AEAAXXZ 0000000140121cf0 f   libconcrtd:TaskCollection.obj
 0001:00120d50       ?_DeregisterCallback@_CancellationTokenState@details@Concurrency@@QEAAXPEAV_CancellationTokenRegistration@23@@Z 0000000140121d50 f i libconcrtd:TaskCollection.obj
 0001:00120f90       ?_Destroy@_RefCounter@details@Concurrency@@MEAAXXZ 0000000140121f90 f i libconcrtd:TaskCollection.obj
 0001:00120f90       ??$_InternalDeleteHelper@VVirtualProcessor@details@Concurrency@@@details@Concurrency@@YAXPEAVVirtualProcessor@01@@Z 0000000140121f90 f i libconcrtd:VirtualProcessor.obj
 0001:00120f90       ??$_InternalDeleteHelper@VScheduleGroupSegmentBase@details@Concurrency@@@details@Concurrency@@YAXPEAVScheduleGroupSegmentBase@01@@Z 0000000140121f90 f i libconcrtd:SchedulingRing.obj
 0001:00120ff0       ?_Exception@_TaskCollectionBase@details@Concurrency@@IEBAPEAVexception_ptr@std@@XZ 0000000140121ff0 f i libconcrtd:TaskCollection.obj
 0001:00121010       ?_Exec@CancellationTokenRegistration_TaskProc@details@Concurrency@@MEAAXXZ 0000000140122010 f i libconcrtd:TaskCollection.obj
 0001:00121050       ?_FullAliasWait@_TaskCollection@details@Concurrency@@AEAAXPEAV123@@Z 0000000140122050 f   libconcrtd:TaskCollection.obj
 0001:001211e0       ?_GetRuntimeOwnsLifetime@_UnrealizedChore@details@Concurrency@@QEBA_NXZ 00000001401221e0 f i libconcrtd:TaskCollection.obj
 0001:001211f0       ?_GetStealTrackingList@_TaskCollection@details@Concurrency@@AEBAPEAXXZ 00000001401221f0 f   libconcrtd:TaskCollection.obj
 0001:001211f0       ?GetAffinitySet@ScheduleGroupSegmentBase@details@Concurrency@@IEBAAEBVQuickBitSet@23@XZ 00000001401221f0 f   libconcrtd:InternalContextBase.obj
 0001:00121200       ?_Initialize@_StructuredTaskCollection@details@Concurrency@@AEAAXXZ 0000000140122200 f   libconcrtd:TaskCollection.obj
 0001:00121300       ?_Initialize@_TaskCollection@details@Concurrency@@AEAAXXZ 0000000140122300 f   libconcrtd:TaskCollection.obj
 0001:00121360       ?_Invoke@_CancellationTokenRegistration@details@Concurrency@@AEAAXXZ 0000000140122360 f i libconcrtd:TaskCollection.obj
 0001:00121480       ?_IsAlias@_TaskCollection@details@Concurrency@@QEBA_NXZ 0000000140122480 f   libconcrtd:TaskCollection.obj
 0001:001214c0       ?_IsDirectAlias@_TaskCollection@details@Concurrency@@AEBA_NXZ 00000001401224c0 f   libconcrtd:TaskCollection.obj
 0001:00121510       ?_IsIndirectAlias@_TaskCollection@details@Concurrency@@AEBA_NXZ 0000000140122510 f   libconcrtd:TaskCollection.obj
 0001:00121560       ?_IsMarkedForAbnormalExit@_TaskCollection@details@Concurrency@@QEBA_NXZ 0000000140122560 f   libconcrtd:TaskCollection.obj
 0001:001215a0       ?_IsStaleAlias@_TaskCollection@details@Concurrency@@AEBA_NXZ 00000001401225a0 f   libconcrtd:TaskCollection.obj
 0001:00121630       ?_IsValid@_CancellationTokenState@details@Concurrency@@SA_NPEAV123@@Z 0000000140122630 f i libconcrtd:TaskCollection.obj
 0001:00121670       ?_NotifyCompletedChoreAndFree@_TaskCollection@details@Concurrency@@AEAAXPEAV_UnrealizedChore@23@@Z 0000000140122670 f   libconcrtd:TaskCollection.obj
 0001:00121770       ?_OriginalCollection@_TaskCollection@details@Concurrency@@QEBAPEAV123@XZ 0000000140122770 f   libconcrtd:TaskCollection.obj
 0001:001217f0       ?_Reference@_RefCounter@details@Concurrency@@QEAAJXZ 00000001401227f0 f i libconcrtd:TaskCollection.obj
 0001:00121860       ?_RegisterCallback@_CancellationTokenState@details@Concurrency@@QEAAPEAV_CancellationTokenRegistration@23@P6AXPEAX@Z0H@Z 0000000140122860 f i libconcrtd:TaskCollection.obj
 0001:001218f0       ?_RegisterCallback@_CancellationTokenState@details@Concurrency@@QEAAXPEAV_CancellationTokenRegistration@23@@Z 00000001401228f0 f i libconcrtd:TaskCollection.obj
 0001:001219b0       ?_Release@_RefCounter@details@Concurrency@@QEAAJXZ 00000001401229b0 f i libconcrtd:TaskCollection.obj
 0001:00121a50       ?_ReleaseAlias@_TaskCollection@details@Concurrency@@AEAAXXZ 0000000140122a50 f   libconcrtd:TaskCollection.obj
 0001:00121b40       ?_Reset@_TaskCollection@details@Concurrency@@AEAAXPEAV123@@Z 0000000140122b40 f   libconcrtd:TaskCollection.obj
 0001:00121da0       ?_SetCancelState@_TaskCollection@details@Concurrency@@AEAA_NJ@Z 0000000140122da0 f   libconcrtd:TaskCollection.obj
 0001:00121e10       ?_SweepAbortedChore@_TaskCollection@details@Concurrency@@CA_NPEAV_UnrealizedChore@23@PEAX@Z 0000000140122e10 f   libconcrtd:TaskCollection.obj
 0001:00121e60       ?_TaskCleanup@_TaskCollection@details@Concurrency@@AEAA_N_N@Z 0000000140122e60 f   libconcrtd:TaskCollection.obj
 0001:00121f70       ?compare_exchange_strong@?$_Atomic_storage@J$03@std@@QEAA_NAEAJJW4memory_order@2@@Z 0000000140122f70 f i libconcrtd:TaskCollection.obj
 0001:00122010       ?exchange@?$_Atomic_storage@J$03@std@@QEAAJJW4memory_order@2@@Z 0000000140123010 f i libconcrtd:TaskCollection.obj
 0001:00122060       ?push_back@TokenRegistrationContainer@_CancellationTokenState@details@Concurrency@@QEAAXPEAV_CancellationTokenRegistration@34@@Z 0000000140123060 f i libconcrtd:TaskCollection.obj
 0001:00122100       ?remove@TokenRegistrationContainer@_CancellationTokenState@details@Concurrency@@QEAAXPEAV_CancellationTokenRegistration@34@@Z 0000000140123100 f i libconcrtd:TaskCollection.obj
 0001:001221d0       ?store@?$_Atomic_storage@J$03@std@@QEAAXJ@Z 00000001401231d0 f i libconcrtd:TaskCollection.obj
 0001:00122200       ??0SchedulerPolicy@Concurrency@@QEAA@AEBV01@@Z 0000000140123200 f   libconcrtd:SchedulerPolicyBase.obj
 0001:00122260       ??0SchedulerPolicy@Concurrency@@QEAA@_KZZ 0000000140123260 f   libconcrtd:SchedulerPolicyBase.obj
 0001:001222a0       ??0invalid_scheduler_policy_key@Concurrency@@QEAA@AEBV01@@Z 00000001401232a0 f i libconcrtd:SchedulerPolicyBase.obj
 0001:001222e0       ??0invalid_scheduler_policy_thread_specification@Concurrency@@QEAA@AEBV01@@Z 00000001401232e0 f i libconcrtd:SchedulerPolicyBase.obj
 0001:00122320       ??0invalid_scheduler_policy_value@Concurrency@@QEAA@AEBV01@@Z 0000000140123320 f i libconcrtd:SchedulerPolicyBase.obj
 0001:00122360       ??1SchedulerPolicy@Concurrency@@QEAA@XZ 0000000140123360 f   libconcrtd:SchedulerPolicyBase.obj
 0001:00122390       ??4SchedulerPolicy@Concurrency@@QEAAAEAV01@AEBV01@@Z 0000000140123390 f   libconcrtd:SchedulerPolicyBase.obj
 0001:001223c0       ?GetPolicyValue@SchedulerPolicy@Concurrency@@QEBAIW4PolicyElementKey@2@@Z 00000001401233c0 f   libconcrtd:SchedulerPolicyBase.obj
 0001:00122420       ?_AreConcurrencyLimitsValid@SchedulerPolicy@Concurrency@@AEBA_NXZ 0000000140123420 f   libconcrtd:SchedulerPolicyBase.obj
 0001:00122470       ?_AreConcurrencyLimitsValid@SchedulerPolicy@Concurrency@@CA_NII@Z 0000000140123470 f   libconcrtd:SchedulerPolicyBase.obj
 0001:001224a0       ?_Assign@SchedulerPolicy@Concurrency@@AEAAXAEBV12@@Z 00000001401234a0 f   libconcrtd:SchedulerPolicyBase.obj
 0001:001224e0       ?_Initialize@SchedulerPolicy@Concurrency@@AEAAX_KPEAPEAD@Z 00000001401234e0 f   libconcrtd:SchedulerPolicyBase.obj
 0001:00122790       ?_ResolvePolicyValues@SchedulerPolicy@Concurrency@@AEAAXXZ 0000000140123790 f   libconcrtd:SchedulerPolicyBase.obj
 0001:001229c0       ?_StringFromPolicyKey@SchedulerPolicy@Concurrency@@CAPEBDI@Z 00000001401239c0 f   libconcrtd:SchedulerPolicyBase.obj
 0001:001229f0       ?_ValidPolicyKey@SchedulerPolicy@Concurrency@@CA_NW4PolicyElementKey@2@@Z 00000001401239f0 f   libconcrtd:SchedulerPolicyBase.obj
 0001:00122a20       ?_ValidPolicyValue@SchedulerPolicy@Concurrency@@CA_NW4PolicyElementKey@2@I@Z 0000000140123a20 f   libconcrtd:SchedulerPolicyBase.obj
 0001:00122b80       ?_ValidateConcRTPolicy@SchedulerPolicy@Concurrency@@QEBAXXZ 0000000140123b80 f   libconcrtd:SchedulerPolicyBase.obj
 0001:00122c20       ??0ExecutionResource@details@Concurrency@@QEAA@PEAVSchedulerProxy@12@PEAUSchedulerNode@12@I@Z 0000000140123c20 f   libconcrtd:ExecutionResource.obj
 0001:00122d10       ??0ExecutionResource@details@Concurrency@@QEAA@PEAVSchedulerProxy@12@PEAV012@@Z 0000000140123d10 f   libconcrtd:ExecutionResource.obj
 0001:00122de0       ??0IExecutionResource@Concurrency@@QEAA@XZ 0000000140123de0 f i libconcrtd:ExecutionResource.obj
 0001:00122e00       ?CurrentSubscriptionLevel@ExecutionResource@details@Concurrency@@UEBAIXZ 0000000140123e00 f   libconcrtd:ExecutionResource.obj
 0001:00122e50       ?DecrementUseCounts@ExecutionResource@details@Concurrency@@QEAAXXZ 0000000140123e50 f   libconcrtd:ExecutionResource.obj
 0001:00123070       ?Id@SchedulingNode@details@Concurrency@@QEBAHXZ 0000000140124070 f i libconcrtd:location.obj
 0001:00123070       ?GetCoreIndex@ExecutionResource@details@Concurrency@@QEAAIXZ 0000000140124070 f i libconcrtd:ExecutionResource.obj
 0001:00123080       ?GetExecutionResourceId@ExecutionResource@details@Concurrency@@UEBAIXZ 0000000140124080 f i libconcrtd:ExecutionResource.obj
 0001:00123090       ?GetExecutionResourceTls@ResourceManager@details@Concurrency@@QEBAKXZ 0000000140124090 f i libconcrtd:ExecutionResource.obj
 0001:001230c0       ?Count@MeasuredHistory@HillClimbing@details@Concurrency@@QEAAHXZ 00000001401240c0 f i libconcrtd:HillClimbing.obj
 0001:001230c0       ?error_code@?$format_string_parser@D@__crt_stdio_input@@QEBAHXZ 00000001401240c0 f i libucrtd:input.obj
 0001:001230c0       ?GetExecutionResourceTls@ThreadProxyFactoryManager@details@Concurrency@@QEBAKXZ 00000001401240c0 f i libconcrtd:ExecutionResource.obj
 0001:001230d0       ?GetNodeAffinity@SchedulerProxy@details@Concurrency@@QEAA?AUHardwareAffinity@23@I@Z 00000001401240d0 f i libconcrtd:ExecutionResource.obj
 0001:001231f0       ?GetNodeId@ExecutionResource@details@Concurrency@@UEBAIXZ 00000001401241f0 f i libconcrtd:ExecutionResource.obj
 0001:001231f0       ?GetThreadId@ThreadProxy@details@Concurrency@@QEBAKXZ 00000001401241f0 f i libconcrtd:InternalContextBase.obj
 0001:001231f0       ?GetNumaNodeNumber@SchedulingNode@details@Concurrency@@QEBAKXZ 00000001401241f0 f i libconcrtd:location.obj
 0001:00123200       ?IncrementUseCounts@ExecutionResource@details@Concurrency@@QEAAXXZ 0000000140124200 f   libconcrtd:ExecutionResource.obj
 0001:00123440       ?Remove@ExecutionResource@details@Concurrency@@UEAAXPEAUIScheduler@3@@Z 0000000140124440 f   libconcrtd:ExecutionResource.obj
 0001:00123530       ?ResetCurrent@ExecutionResource@details@Concurrency@@QEAAXXZ 0000000140124530 f   libconcrtd:ExecutionResource.obj
 0001:00123580       ?SetAsCurrent@ExecutionResource@details@Concurrency@@QEAAXXZ 0000000140124580 f   libconcrtd:ExecutionResource.obj
 0001:00123620       ??$sign@I@details@Concurrency@@YAII@Z 0000000140124620 f i libconcrtd:HillClimbing.obj
 0001:00123660       ??$sign@N@details@Concurrency@@YANN@Z 0000000140124660 f i libconcrtd:HillClimbing.obj
 0001:001236b0       ??0HillClimbing@details@Concurrency@@QEAA@IIPEAVSchedulerProxy@12@@Z 00000001401246b0 f   libconcrtd:HillClimbing.obj
 0001:001237d0       ??0MeasuredHistory@HillClimbing@details@Concurrency@@QEAA@XZ 00000001401247d0 f   libconcrtd:HillClimbing.obj
 0001:001237f0       ?Add@MeasuredHistory@HillClimbing@details@Concurrency@@QEAAXNI@Z 00000001401247f0 f   libconcrtd:HillClimbing.obj
 0001:00123860       ?CalculateThroughput@HillClimbing@details@Concurrency@@AEAANIIII@Z 0000000140124860 f   libconcrtd:HillClimbing.obj
 0001:001238b0       ?CalculateThroughputSlope@HillClimbing@details@Concurrency@@AEAANHH@Z 00000001401248b0 f   libconcrtd:HillClimbing.obj
 0001:00123a60       ?Clear@MeasuredHistory@HillClimbing@details@Concurrency@@QEAAXI@Z 0000000140124a60 f   libconcrtd:HillClimbing.obj
 0001:00123ab0       ?CoefficientOfVariationMean@MeasuredHistory@HillClimbing@details@Concurrency@@QEAANXZ 0000000140124ab0 f   libconcrtd:HillClimbing.obj
 0001:00123b20       ?GetNumSchedulersForNotifications@ResourceManager@details@Concurrency@@QEAAIXZ 0000000140124b20 f   libconcrtd:SchedulerProxy.obj
 0001:00123b20       ?ControlSetting@MeasuredHistory@HillClimbing@details@Concurrency@@QEAAHXZ 0000000140124b20 f   libconcrtd:HillClimbing.obj
 0001:00123b20       ?kind@?$format_string_parser@D@__crt_stdio_input@@QEBA?AW4format_directive_kind@2@XZ 0000000140124b20 f   libucrtd:input.obj
 0001:00123b20       ?GetSchedulingProtocol@SchedulerBase@details@Concurrency@@QEAA?AW4SchedulingProtocolType@3@XZ 0000000140124b20 f   libconcrtd:VirtualProcessor.obj
 0001:00123b30       ?EstablishControlSetting@HillClimbing@details@Concurrency@@AEAAXI@Z 0000000140124b30 f   libconcrtd:HillClimbing.obj
 0001:00123bb0       ?FlushHistories@HillClimbing@details@Concurrency@@AEAAXXZ 0000000140124bb0 f   libconcrtd:HillClimbing.obj
 0001:00123c90       ?GetHistory@HillClimbing@details@Concurrency@@AEAAPEAVMeasuredHistory@123@I@Z 0000000140124c90 f   libconcrtd:HillClimbing.obj
 0001:00123d20       ?GetRandomMove@HillClimbing@details@Concurrency@@AEAAHXZ 0000000140124d20 f   libconcrtd:HillClimbing.obj
 0001:00123d90       ?IsStableHistory@HillClimbing@details@Concurrency@@AEAA_NPEAVMeasuredHistory@123@@Z 0000000140124d90 f   libconcrtd:HillClimbing.obj
 0001:00123e00       ?LastDataPointCount@MeasuredHistory@HillClimbing@details@Concurrency@@QEAAIXZ 0000000140124e00 f   libconcrtd:HillClimbing.obj
 0001:00123e10       ?Mean@MeasuredHistory@HillClimbing@details@Concurrency@@QEAANXZ 0000000140124e10 f   libconcrtd:HillClimbing.obj
 0001:00123e60       ?RecommendControlSetting@HillClimbing@details@Concurrency@@AEAAII@Z 0000000140124e60 f   libconcrtd:HillClimbing.obj
 0001:001240c0       ?StandardDeviation@MeasuredHistory@HillClimbing@details@Concurrency@@QEAANXZ 00000001401250c0 f   libconcrtd:HillClimbing.obj
 0001:001240e0       ?Update@HillClimbing@details@Concurrency@@QEAAIIIII@Z 00000001401250e0 f   libconcrtd:HillClimbing.obj
 0001:001246c0       ?Variance@MeasuredHistory@HillClimbing@details@Concurrency@@QEAANXZ 00000001401256c0 f   libconcrtd:HillClimbing.obj
 0001:00124770       ?VarianceMean@MeasuredHistory@HillClimbing@details@Concurrency@@QEAANXZ 0000000140125770 f   libconcrtd:HillClimbing.obj
 0001:001247b0       ?abs@@YANN@Z               00000001401257b0 f i libconcrtd:HillClimbing.obj
 0001:001247d0       ??0ISchedulerProxy@Concurrency@@QEAA@XZ 00000001401257d0 f i libconcrtd:SchedulerProxy.obj
 0001:001247f0       ??0SchedulerProxy@details@Concurrency@@QEAA@PEAUIScheduler@2@PEAVResourceManager@12@AEBVSchedulerPolicy@2@@Z 00000001401257f0 f   libconcrtd:SchedulerProxy.obj
 0001:001253f0       ??1ExecutionResource@details@Concurrency@@QEAA@XZ 00000001401263f0 f i libconcrtd:SchedulerProxy.obj
 0001:00125460       ??1SchedulerProxy@details@Concurrency@@IEAA@XZ 0000000140126460 f   libconcrtd:SchedulerProxy.obj
 0001:001254e0       ??_GExecutionResource@details@Concurrency@@QEAAPEAXI@Z 00000001401264e0 f i libconcrtd:SchedulerProxy.obj
 0001:00125520       ??_GSchedulerProxy@details@Concurrency@@IEAAPEAXI@Z 0000000140126520 f i libconcrtd:SchedulerProxy.obj
 0001:00125560       ?AddCore@SchedulerProxy@details@Concurrency@@QEAAXPEAUSchedulerNode@23@I_N@Z 0000000140126560 f   libconcrtd:SchedulerProxy.obj
 0001:00125a20       ?AddExecutionResource@SchedulerProxy@details@Concurrency@@QEAAXPEAVExecutionResource@23@@Z 0000000140126a20 f   libconcrtd:SchedulerProxy.obj
 0001:00125ab0       ?AddTail@?$List@VExecutionResource@details@Concurrency@@VCount@CollectionTypes@23@@details@Concurrency@@QEAAXPEAVExecutionResource@23@@Z 0000000140126ab0 f i libconcrtd:SchedulerProxy.obj
 0001:00125bb0       ?AddThreadSubscription@SchedulerProxy@details@Concurrency@@QEAAXPEAVExecutionResource@23@@Z 0000000140126bb0 f   libconcrtd:SchedulerProxy.obj
 0001:00125bf0       ?AddVirtualProcessorRoots@SchedulerProxy@details@Concurrency@@QEAAXPEAPEAUIVirtualProcessorRoot@3@I@Z 0000000140126bf0 f   libconcrtd:SchedulerProxy.obj
 0001:00125d60       ?AdjustAllocationIncrease@SchedulerProxy@details@Concurrency@@QEBAII@Z 0000000140126d60 f   libconcrtd:SchedulerProxy.obj
 0001:00125f90       ?BindContext@SchedulerProxy@details@Concurrency@@UEAAXPEAUIExecutionContext@3@@Z 0000000140126f90 f   libconcrtd:SchedulerProxy.obj
 0001:00126030       ?Cleanup@SchedulerProxy@details@Concurrency@@IEAAXXZ 0000000140127030 f   libconcrtd:SchedulerProxy.obj
 0001:001261d0       ?ContextPriority@SchedulerProxy@details@Concurrency@@QEBAHXZ 00000001401271d0 f i libconcrtd:SchedulerProxy.obj
 0001:001261f0       ?ContextStackSize@SchedulerProxy@details@Concurrency@@QEBAHXZ 00000001401271f0 f i libconcrtd:SchedulerProxy.obj
 0001:00126210       ?CreateExternalThreadResource@SchedulerProxy@details@Concurrency@@QEAAPEAVExecutionResource@23@PEAUSchedulerNode@23@I@Z 0000000140127210 f   libconcrtd:SchedulerProxy.obj
 0001:001262b0       ?CreateOversubscriber@SchedulerProxy@details@Concurrency@@UEAAPEAUIVirtualProcessorRoot@3@PEAUIExecutionResource@3@@Z 00000001401272b0 f   libconcrtd:SchedulerProxy.obj
 0001:00126470       ?CreateVirtualProcessorRoot@SchedulerProxy@details@Concurrency@@UEAAPEAVVirtualProcessorRoot@23@PEAUSchedulerNode@23@I@Z 0000000140127470 f   libconcrtd:SchedulerProxy.obj
 0001:00126500       ?DecrementCoreSubscription@SchedulerProxy@details@Concurrency@@QEAAXPEAVExecutionResource@23@@Z 0000000140127500 f   libconcrtd:SchedulerProxy.obj
 0001:001265b0       ?DecrementCoreUseCount@ResourceManager@details@Concurrency@@QEAAXII@Z 00000001401275b0 f i libconcrtd:SchedulerProxy.obj
 0001:00126600       ?DecrementFixedCoreCount@SchedulerProxy@details@Concurrency@@QEAAXII_N@Z 0000000140127600 f   libconcrtd:SchedulerProxy.obj
 0001:001268a0       ?DeleteThis@SchedulerProxy@details@Concurrency@@MEAAXXZ 00000001401278a0 f i libconcrtd:SchedulerProxy.obj
 0001:001268e0       ?DestroyExecutionResource@SchedulerProxy@details@Concurrency@@QEAAXPEAVExecutionResource@23@@Z 00000001401278e0 f   libconcrtd:SchedulerProxy.obj
 0001:00126c70       ?DestroyVirtualProcessorRoot@SchedulerProxy@details@Concurrency@@QEAAXPEAVVirtualProcessorRoot@23@@Z 0000000140127c70 f   libconcrtd:SchedulerProxy.obj
 0001:00126e90       ?FinalShutdown@SchedulerProxy@details@Concurrency@@UEAAXXZ 0000000140127e90 f   libconcrtd:SchedulerProxy.obj
 0001:00126ed0       ?First@?$List@VExecutionResource@details@Concurrency@@VCount@CollectionTypes@23@@details@Concurrency@@QEBAPEAVExecutionResource@23@XZ 0000000140127ed0 f i libconcrtd:SchedulerProxy.obj
 0001:00126f10       ?GetCoreIndex@VirtualProcessorRoot@details@Concurrency@@QEAAHXZ 0000000140127f10 f i libconcrtd:SchedulerProxy.obj
 0001:00126f30       ?GetCurrentThreadExecutionResource@SchedulerProxy@details@Concurrency@@QEAAPEAVExecutionResource@23@XZ 0000000140127f30 f   libconcrtd:SchedulerProxy.obj
 0001:00126fa0       ?GetNewThreadProxy@SchedulerProxy@details@Concurrency@@UEAAPEAUIThreadProxy@3@PEAUIExecutionContext@3@@Z 0000000140127fa0 f   libconcrtd:SchedulerProxy.obj
 0001:00127060       ?GetResourceForNewSubscription@SchedulerProxy@details@Concurrency@@QEAAPEAVExecutionResource@23@PEAV423@@Z 0000000140128060 f   libconcrtd:SchedulerProxy.obj
 0001:00127120       ?GetThreadProxyFactoryManager@ResourceManager@details@Concurrency@@QEAAPEAVThreadProxyFactoryManager@23@XZ 0000000140128120 f i libconcrtd:SchedulerProxy.obj
 0001:00127140       ?GetVirtualProcessorRoot@UMSThreadProxy@details@Concurrency@@QEAAPEAVUMSFreeVirtualProcessorRoot@23@XZ 0000000140128140 f i libconcrtd:SchedulerProxy.obj
 0001:00127150       ?GrantAllocation@SchedulerProxy@details@Concurrency@@QEAAPEAVExecutionResource@23@I_N0@Z 0000000140128150 f   libconcrtd:SchedulerProxy.obj
 0001:001280c0       ?IncrementCoreSubscription@SchedulerProxy@details@Concurrency@@QEAAXPEAVExecutionResource@23@@Z 00000001401290c0 f   libconcrtd:SchedulerProxy.obj
 0001:00128170       ?IncrementFixedCoreCount@SchedulerProxy@details@Concurrency@@QEAAXII_N@Z 0000000140129170 f   libconcrtd:SchedulerProxy.obj
 0001:001282d0       ?IsOversubscribed@VirtualProcessorRoot@details@Concurrency@@QEAA_NXZ 00000001401292d0 f i libconcrtd:SchedulerProxy.obj
 0001:001282e0       ?IsRootRemoved@VirtualProcessorRoot@details@Concurrency@@QEAA_NXZ 00000001401292e0 f i libconcrtd:SchedulerProxy.obj
 0001:001282f0       ?MarkAsOversubscribed@VirtualProcessorRoot@details@Concurrency@@QEAAXXZ 00000001401292f0 f i libconcrtd:SchedulerProxy.obj
 0001:00128300       ?MarkRootRemoved@VirtualProcessorRoot@details@Concurrency@@QEAAXXZ 0000000140129300 f i libconcrtd:SchedulerProxy.obj
 0001:00128310       ?Next@?$List@VExecutionResource@details@Concurrency@@VCount@CollectionTypes@23@@details@Concurrency@@QEBAPEAVExecutionResource@23@PEAV423@@Z 0000000140129310 f i libconcrtd:SchedulerProxy.obj
 0001:00128350       ?ReferenceCurrentThreadExecutionResource@SchedulerProxy@details@Concurrency@@QEAAPEAVExecutionResource@23@XZ 0000000140129350 f   libconcrtd:SchedulerProxy.obj
 0001:001285f0       ?Remove@?$List@VExecutionResource@details@Concurrency@@VCount@CollectionTypes@23@@details@Concurrency@@QEAAXPEAVExecutionResource@23@@Z 00000001401295f0 f i libconcrtd:SchedulerProxy.obj
 0001:001286f0       ?RemoveCore@SchedulerProxy@details@Concurrency@@QEAAXPEAUSchedulerNode@23@I@Z 00000001401296f0 f   libconcrtd:SchedulerProxy.obj
 0001:00128ba0       ?RemoveThreadSubscription@SchedulerProxy@details@Concurrency@@QEAAXPEAVExecutionResource@23@@Z 0000000140129ba0 f   libconcrtd:SchedulerProxy.obj
 0001:00128c10       ?RequestInitialVirtualProcessors@SchedulerProxy@details@Concurrency@@UEAAPEAUIExecutionResource@3@_N@Z 0000000140129c10 f   libconcrtd:SchedulerProxy.obj
 0001:00128c50       ?SendCoreNotification@SchedulerProxy@details@Concurrency@@QEAAXPEAUSchedulerCore@23@_N@Z 0000000140129c50 f   libconcrtd:SchedulerProxy.obj
 0001:00128f50       ?Shutdown@SchedulerProxy@details@Concurrency@@UEAAXXZ 0000000140129f50 f   libconcrtd:SchedulerProxy.obj
 0001:00128f80       ?SubscribeCurrentThread@SchedulerProxy@details@Concurrency@@UEAAPEAUIExecutionResource@3@XZ 0000000140129f80 f   libconcrtd:SchedulerProxy.obj
 0001:00128fb0       ?ToggleBorrowedState@SchedulerProxy@details@Concurrency@@QEAAXPEAUSchedulerNode@23@I@Z 0000000140129fb0 f   libconcrtd:SchedulerProxy.obj
 0001:00129050       ?UnbindContext@SchedulerProxy@details@Concurrency@@UEAAXPEAUIExecutionContext@3@@Z 000000014012a050 f   libconcrtd:SchedulerProxy.obj
 0001:00129110       ?Initialize@WinRT@details@Concurrency@@SAXXZ 000000014012a110 f   libconcrtd:WinRTWrapper.obj
 0001:001292a0       ?RoInitialize@WinRT@details@Concurrency@@SAJW4RO_INIT_TYPE@@@Z 000000014012a2a0 f   libconcrtd:WinRTWrapper.obj
 0001:00129330       ?RoUninitialize@WinRT@details@Concurrency@@SAXXZ 000000014012a330 f   libconcrtd:WinRTWrapper.obj
 0001:001293b0       ??0?$ThreadProxyFactory@VFreeThreadProxy@details@Concurrency@@@details@Concurrency@@IEAA@PEAVThreadProxyFactoryManager@12@@Z 000000014012a3b0 f i libconcrtd:ThreadProxyFactoryManager.obj
 0001:00129420       ??0FreeThreadProxy@details@Concurrency@@QEAA@PEAUIThreadProxyFactory@12@I@Z 000000014012a420 f i libconcrtd:ThreadProxyFactoryManager.obj
 0001:00129480       ??0FreeThreadProxyFactory@details@Concurrency@@IEAA@PEAVThreadProxyFactoryManager@12@@Z 000000014012a480 f i libconcrtd:ThreadProxyFactoryManager.obj
 0001:001294d0       ??0IThreadProxyFactory@details@Concurrency@@QEAA@XZ 000000014012a4d0 f i libconcrtd:ThreadProxyFactoryManager.obj
 0001:001294f0       ??0ThreadProxyFactoryManager@details@Concurrency@@QEAA@XZ 000000014012a4f0 f   libconcrtd:ThreadProxyFactoryManager.obj
 0001:00129540       ??1?$ThreadProxyFactory@VFreeThreadProxy@details@Concurrency@@@details@Concurrency@@UEAA@XZ 000000014012a540 f i libconcrtd:ThreadProxyFactoryManager.obj
 0001:00129570       ??1FreeThreadProxy@details@Concurrency@@UEAA@XZ 000000014012a570 f i libconcrtd:ThreadProxyFactoryManager.obj
 0001:001295a0       ??1FreeThreadProxyFactory@details@Concurrency@@UEAA@XZ 000000014012a5a0 f i libconcrtd:ThreadProxyFactoryManager.obj
 0001:001295d0       ??1IThreadProxyFactory@details@Concurrency@@UEAA@XZ 000000014012a5d0 f i libconcrtd:ThreadProxyFactoryManager.obj
 0001:001295f0       ??1ThreadProxyFactoryManager@details@Concurrency@@QEAA@XZ 000000014012a5f0 f   libconcrtd:ThreadProxyFactoryManager.obj
 0001:00129690       ??_E?$ThreadProxyFactory@VFreeThreadProxy@details@Concurrency@@@details@Concurrency@@UEAAPEAXI@Z 000000014012a690 f i libconcrtd:ThreadProxyFactoryManager.obj
 0001:00129690       ??_G?$ThreadProxyFactory@VFreeThreadProxy@details@Concurrency@@@details@Concurrency@@UEAAPEAXI@Z 000000014012a690 f i libconcrtd:ThreadProxyFactoryManager.obj
 0001:001296d0       ??_EFreeThreadProxy@details@Concurrency@@UEAAPEAXI@Z 000000014012a6d0 f i libconcrtd:ThreadProxyFactoryManager.obj
 0001:001296d0       ??_GFreeThreadProxy@details@Concurrency@@UEAAPEAXI@Z 000000014012a6d0 f i libconcrtd:ThreadProxyFactoryManager.obj
 0001:00129710       ??_EFreeThreadProxyFactory@details@Concurrency@@UEAAPEAXI@Z 000000014012a710 f i libconcrtd:ThreadProxyFactoryManager.obj
 0001:00129710       ??_GFreeThreadProxyFactory@details@Concurrency@@UEAAPEAXI@Z 000000014012a710 f i libconcrtd:ThreadProxyFactoryManager.obj
 0001:00129750       ??_EIThreadProxyFactory@details@Concurrency@@UEAAPEAXI@Z 000000014012a750 f i libconcrtd:ThreadProxyFactoryManager.obj
 0001:00129750       ??_GIThreadProxyFactory@details@Concurrency@@UEAAPEAXI@Z 000000014012a750 f i libconcrtd:ThreadProxyFactoryManager.obj
 0001:00129790       ?Create@FreeThreadProxyFactory@details@Concurrency@@EEAAPEAVFreeThreadProxy@23@I@Z 000000014012a790 f i libconcrtd:ThreadProxyFactoryManager.obj
 0001:00129810       ?CreateFactory@FreeThreadProxyFactory@details@Concurrency@@SAPEAV123@PEAVThreadProxyFactoryManager@23@@Z 000000014012a810 f i libconcrtd:ThreadProxyFactoryManager.obj
 0001:00129890       ?Delta@?$LockFreeStack@VFreeThreadProxy@details@Concurrency@@@details@Concurrency@@CAPEAVFreeThreadProxy@23@PEAX@Z 000000014012a890 f i libconcrtd:ThreadProxyFactoryManager.obj
 0001:001298d0       ?Flush@?$LockFreeStack@VFreeThreadProxy@details@Concurrency@@@details@Concurrency@@QEAAPEAVFreeThreadProxy@23@XZ 000000014012a8d0 f i libconcrtd:ThreadProxyFactoryManager.obj
 0001:00129900       ?GetFreeThreadProxyFactory@ThreadProxyFactoryManager@details@Concurrency@@QEAAPEAVFreeThreadProxyFactory@23@XZ 000000014012a900 f   libconcrtd:ThreadProxyFactoryManager.obj
 0001:00129960       ?GetPriority@ThreadProxy@details@Concurrency@@QEAAHXZ 000000014012a960 f i libconcrtd:ThreadProxyFactoryManager.obj
 0001:00129970       ?Next@?$LockFreeStack@VFreeThreadProxy@details@Concurrency@@@details@Concurrency@@SAPEAVFreeThreadProxy@23@PEAV423@@Z 000000014012a970 f i libconcrtd:ThreadProxyFactoryManager.obj
 0001:00129990       ?Pop@?$LockFreeStack@VFreeThreadProxy@details@Concurrency@@@details@Concurrency@@QEAAPEAVFreeThreadProxy@23@XZ 000000014012a990 f i libconcrtd:ThreadProxyFactoryManager.obj
 0001:001299c0       ?Prepare@?$ThreadProxyFactory@VFreeThreadProxy@details@Concurrency@@@details@Concurrency@@MEAAXPEAVFreeThreadProxy@23@H@Z 000000014012a9c0 f i libconcrtd:ThreadProxyFactoryManager.obj
 0001:00129a00       ?Push@?$LockFreeStack@VFreeThreadProxy@details@Concurrency@@@details@Concurrency@@QEAAXPEAVFreeThreadProxy@23@@Z 000000014012aa00 f i libconcrtd:ThreadProxyFactoryManager.obj
 0001:00129a30       ?ReclaimProxy@?$ThreadProxyFactory@VFreeThreadProxy@details@Concurrency@@@details@Concurrency@@UEAAXPEAUIThreadProxy@3@@Z 000000014012aa30 f i libconcrtd:ThreadProxyFactoryManager.obj
 0001:00129b20       ?ReclaimProxy@FreeThreadProxyFactory@details@Concurrency@@UEAAXPEAUIThreadProxy@3@@Z 000000014012ab20 f i libconcrtd:ThreadProxyFactoryManager.obj
 0001:00129cb0       ?Reference@FreeThreadProxyFactory@details@Concurrency@@UEAAJXZ 000000014012acb0 f i libconcrtd:ThreadProxyFactoryManager.obj
 0001:00129cd0       ?Release@FreeThreadProxyFactory@details@Concurrency@@UEAAJXZ 000000014012acd0 f i libconcrtd:ThreadProxyFactoryManager.obj
 0001:00129d60       ?RequestProxy@?$ThreadProxyFactory@VFreeThreadProxy@details@Concurrency@@@details@Concurrency@@UEAAPEAUIThreadProxy@3@IH@Z 000000014012ad60 f i libconcrtd:ThreadProxyFactoryManager.obj
 0001:00129e60       ?Retire@FreeThreadProxyFactory@details@Concurrency@@EEAAXPEAVFreeThreadProxy@23@@Z 000000014012ae60 f i libconcrtd:ThreadProxyFactoryManager.obj
 0001:00129e80       ?RetireThreadProxies@?$ThreadProxyFactory@VFreeThreadProxy@details@Concurrency@@@details@Concurrency@@QEAAXXZ 000000014012ae80 f i libconcrtd:ThreadProxyFactoryManager.obj
 0001:00129f30       ?ShutdownFactory@FreeThreadProxyFactory@details@Concurrency@@UEAAXXZ 000000014012af30 f i libconcrtd:ThreadProxyFactoryManager.obj
 0001:00129f80       ?StaticInitialize@?$ThreadProxyFactory@VFreeThreadProxy@details@Concurrency@@@details@Concurrency@@KAXXZ 000000014012af80 f i libconcrtd:ThreadProxyFactoryManager.obj
 0001:00129ff0       ?YieldToSystem@FreeThreadProxy@details@Concurrency@@UEAAXXZ 000000014012aff0 f i libconcrtd:ThreadProxyFactoryManager.obj
 0001:0012a010       ??0Etw@details@Concurrency@@AEAA@XZ 000000014012b010 f   libconcrtd:Trace.obj
 0001:0012a140       ?ControlCallback@details@Concurrency@@YAKW4WMIDPREQUESTCODE@@PEAXPEAK1@Z 000000014012b140 f   libconcrtd:Trace.obj
 0001:0012a270       ?GetEnableFlags@Etw@details@Concurrency@@QEAAK_K@Z 000000014012b270 f   libconcrtd:Trace.obj
 0001:0012a2e0       ?GetEnableLevel@Etw@details@Concurrency@@QEAAE_K@Z 000000014012b2e0 f   libconcrtd:Trace.obj
 0001:0012a350       ?GetLoggerHandle@Etw@details@Concurrency@@QEAA_KPEAX@Z 000000014012b350 f   libconcrtd:Trace.obj
 0001:0012a3d0       ?RegisterGuids@Etw@details@Concurrency@@QEAAKP6AKW4WMIDPREQUESTCODE@@PEAXPEAK1@ZPEBU_GUID@@KPEAU_TRACE_GUID_REGISTRATION@@PEA_K@Z 000000014012b3d0 f   libconcrtd:Trace.obj
 0001:0012a490       ?Trace@Etw@details@Concurrency@@QEAAK_KPEAU_EVENT_TRACE_HEADER@@@Z 000000014012b490 f   libconcrtd:Trace.obj
 0001:0012a500       ?UnregisterGuids@Etw@details@Concurrency@@QEAAK_K@Z 000000014012b500 f   libconcrtd:Trace.obj
 0001:0012a570       ?_DisableTrace@_CONCRT_TRACE_INFO@details@Concurrency@@QEAAXXZ 000000014012b570 f i libconcrtd:Trace.obj
 0001:0012a590       ?_EnableTrace@_CONCRT_TRACE_INFO@details@Concurrency@@QEAAXEK@Z 000000014012b590 f i libconcrtd:Trace.obj
 0001:0012a5c0       ?_RegisterConcRTEventTracing@details@Concurrency@@YAXXZ 000000014012b5c0 f   libconcrtd:Trace.obj
 0001:0012a690       ?_UnregisterConcRTEventTracing@details@Concurrency@@YAXXZ 000000014012b690 f   libconcrtd:Trace.obj
 0001:0012a6f0       ??0InternalContextBase@details@Concurrency@@QEAA@PEAVSchedulerBase@12@@Z 000000014012b6f0 f   libconcrtd:InternalContextBase.obj
 0001:0012a8c0       ??0ScopedCriticalRegion@ContextBase@details@Concurrency@@QEAA@PEAV123@@Z 000000014012b8c0 f i libconcrtd:InternalContextBase.obj
 0001:0012a900       ??0context_self_unblock@Concurrency@@QEAA@AEBV01@@Z 000000014012b900 f i libconcrtd:InternalContextBase.obj
 0001:0012a940       ??0context_unblock_unbalanced@Concurrency@@QEAA@AEBV01@@Z 000000014012b940 f i libconcrtd:InternalContextBase.obj
 0001:0012a980       ??0invalid_oversubscribe_operation@Concurrency@@QEAA@AEBV01@@Z 000000014012b980 f i libconcrtd:InternalContextBase.obj
 0001:0012a9c0       ??0nested_scheduler_missing_detach@Concurrency@@QEAA@AEBV01@@Z 000000014012b9c0 f i libconcrtd:InternalContextBase.obj
 0001:0012aa00       ??1InternalContextBase@details@Concurrency@@UEAA@XZ 000000014012ba00 f   libconcrtd:InternalContextBase.obj
 0001:0012aa50       ??1ScopedCriticalRegion@ContextBase@details@Concurrency@@QEAA@XZ 000000014012ba50 f i libconcrtd:InternalContextBase.obj
 0001:0012aa6c       ??_EInternalContextBase@details@Concurrency@@WBA@EAAPEAXI@Z 000000014012ba6c f i libconcrtd:InternalContextBase.obj
 0001:0012aa80       ??_EInternalContextBase@details@Concurrency@@UEAAPEAXI@Z 000000014012ba80 f i libconcrtd:InternalContextBase.obj
 0001:0012aa80       ??_GInternalContextBase@details@Concurrency@@UEAAPEAXI@Z 000000014012ba80 f i libconcrtd:InternalContextBase.obj
 0001:0012aac0       ?AddToRunnables@InternalContextBase@details@Concurrency@@MEAAXVlocation@3@@Z 000000014012bac0 f   libconcrtd:InternalContextBase.obj
 0001:0012afc0       ?Alloc@InternalContextBase@details@Concurrency@@UEAAPEAX_K@Z 000000014012bfc0 f   libconcrtd:InternalContextBase.obj
 0001:0012b130       ?Block@InternalContextBase@details@Concurrency@@UEAAXXZ 000000014012c130 f   libconcrtd:InternalContextBase.obj
 0001:0012b660       ?Cancel@InternalContextBase@details@Concurrency@@MEAAXXZ 000000014012c660 f   libconcrtd:InternalContextBase.obj
 0001:0012b900       ?Cleanup@InternalContextBase@details@Concurrency@@IEAAXXZ 000000014012c900 f   libconcrtd:InternalContextBase.obj
 0001:0012b930       ?CleanupDispatchedContextOnCancel@InternalContextBase@details@Concurrency@@IEAAXXZ 000000014012c930 f   libconcrtd:InternalContextBase.obj
 0001:0012ba50       ?ClearQuickCacheSlot@SchedulerBase@details@Concurrency@@QEAAXI@Z 000000014012ca50 f i libconcrtd:InternalContextBase.obj
 0001:0012bac0       ?ClearShutdownValidations@ContextBase@details@Concurrency@@QEAAXXZ 000000014012cac0 f i libconcrtd:InternalContextBase.obj
 0001:0012bae0       ?Count@?$StructuredWorkStealingQueue@VInternalContextBase@details@Concurrency@@V_HyperNonReentrantLock@23@@details@Concurrency@@QEBAHXZ 000000014012cae0 f i libconcrtd:InternalContextBase.obj
 0001:0012bb00       ?CrossGroupRunnable@InternalContextBase@details@Concurrency@@QEAAXJ@Z 000000014012cb00 f i libconcrtd:InternalContextBase.obj
 0001:0012bb20       ?Dispatch@InternalContextBase@details@Concurrency@@UEAAXPEAUDispatchState@3@@Z 000000014012cb20 f   libconcrtd:InternalContextBase.obj
 0001:0012bfe0       ?ExecuteChoreInline@InternalContextBase@details@Concurrency@@IEAAXPEAVWorkItem@23@@Z 000000014012cfe0 f   libconcrtd:InternalContextBase.obj
 0001:0012c110       ?ExecutedAssociatedChore@InternalContextBase@details@Concurrency@@IEAA_NXZ 000000014012d110 f   libconcrtd:InternalContextBase.obj
 0001:0012c210       ?FindWorkForBlockingOrNesting@InternalContextBase@details@Concurrency@@AEAAPEAV123@AEA_N0@Z 000000014012d210 f   libconcrtd:InternalContextBase.obj
 0001:0012c560       ?Free@InternalContextBase@details@Concurrency@@UEAAXPEAX@Z 000000014012d560 f   libconcrtd:InternalContextBase.obj
 0001:0012c6e0       ?GetAndResetOversubscribedVProc@InternalContextBase@details@Concurrency@@QEAAPEAVVirtualProcessor@23@PEAV423@@Z 000000014012d6e0 f   libconcrtd:InternalContextBase.obj
 0001:0012c750       ?GetId@InternalContextBase@details@Concurrency@@WBA@EBAIXZ 000000014012d750 f i libconcrtd:InternalContextBase.obj
 0001:0012c760       ?GetId@VirtualProcessor@details@Concurrency@@QEBAIXZ 000000014012d760 f i libconcrtd:InternalContextBase.obj
 0001:0012c780       ?GetMaskId@VirtualProcessor@details@Concurrency@@QEBAIXZ 000000014012d780 f i libconcrtd:InternalContextBase.obj
 0001:0012c7a0       ?GetProcessorMaskId@details@Concurrency@@YAIPEAVInternalContextBase@12@@Z 000000014012d7a0 f   libconcrtd:InternalContextBase.obj
 0001:0012c7c0       ?GetProxy@InternalContextBase@details@Concurrency@@UEAAPEAUIThreadProxy@3@XZ 000000014012d7c0 f   libconcrtd:InternalContextBase.obj
 0001:0012c7e0       ?GetScheduler@InternalContextBase@details@Concurrency@@UEAAPEAUIScheduler@3@XZ 000000014012d7e0 f   libconcrtd:InternalContextBase.obj
 0001:0012c820       ?GetThreadId@InternalContextBase@details@Concurrency@@UEBAKXZ 000000014012d820 f   libconcrtd:InternalContextBase.obj
 0001:0012c860       ?GetVirtualProcessorId@InternalContextBase@details@Concurrency@@UEBAIXZ 000000014012d860 f   libconcrtd:InternalContextBase.obj
 0001:0012c8e0       ?GrowAndPush@?$StructuredWorkStealingQueue@VInternalContextBase@details@Concurrency@@V_HyperNonReentrantLock@23@@details@Concurrency@@AEAAXPEAVInternalContextBase@23@VSlot@?$Mailbox@VInternalContextBase@details@Concurrency@@@23@@Z 000000014012d8e0 f i libconcrtd:InternalContextBase.obj
